   1              	 .syntax unified
   2              	 .cpu cortex-m4
   3              	 .eabi_attribute 27,3
   4              	 .fpu fpv4-sp-d16
   5              	 .eabi_attribute 20,1
   6              	 .eabi_attribute 21,1
   7              	 .eabi_attribute 23,3
   8              	 .eabi_attribute 24,1
   9              	 .eabi_attribute 25,1
  10              	 .eabi_attribute 26,1
  11              	 .eabi_attribute 30,6
  12              	 .eabi_attribute 34,1
  13              	 .eabi_attribute 18,4
  14              	 .thumb
  15              	 .file "queue.c"
  16              	 .text
  17              	.Ltext0:
  18              	 .cfi_sections .debug_frame
  19              	 .comm xQueueRegistry,64,4
  20              	 .section .text.xQueueGenericReset,"ax",%progbits
  21              	 .align 2
  22              	 .global xQueueGenericReset
  23              	 .thumb
  24              	 .thumb_func
  26              	xQueueGenericReset:
  27              	.LFB137:
  28              	 .file 1 "../Dave/Generated/FREERTOS/queue.c"
   1:../Dave/Generated/FREERTOS/queue.c **** /*
   2:../Dave/Generated/FREERTOS/queue.c ****  * FreeRTOS Kernel V10.4.3
   3:../Dave/Generated/FREERTOS/queue.c ****  * Copyright (C) 2020 Amazon.com, Inc. or its affiliates.  All Rights Reserved.
   4:../Dave/Generated/FREERTOS/queue.c ****  *
   5:../Dave/Generated/FREERTOS/queue.c ****  * Permission is hereby granted, free of charge, to any person obtaining a copy of
   6:../Dave/Generated/FREERTOS/queue.c ****  * this software and associated documentation files (the "Software"), to deal in
   7:../Dave/Generated/FREERTOS/queue.c ****  * the Software without restriction, including without limitation the rights to
   8:../Dave/Generated/FREERTOS/queue.c ****  * use, copy, modify, merge, publish, distribute, sublicense, and/or sell copies of
   9:../Dave/Generated/FREERTOS/queue.c ****  * the Software, and to permit persons to whom the Software is furnished to do so,
  10:../Dave/Generated/FREERTOS/queue.c ****  * subject to the following conditions:
  11:../Dave/Generated/FREERTOS/queue.c ****  *
  12:../Dave/Generated/FREERTOS/queue.c ****  * The above copyright notice and this permission notice shall be included in all
  13:../Dave/Generated/FREERTOS/queue.c ****  * copies or substantial portions of the Software.
  14:../Dave/Generated/FREERTOS/queue.c ****  *
  15:../Dave/Generated/FREERTOS/queue.c ****  * THE SOFTWARE IS PROVIDED "AS IS", WITHOUT WARRANTY OF ANY KIND, EXPRESS OR
  16:../Dave/Generated/FREERTOS/queue.c ****  * IMPLIED, INCLUDING BUT NOT LIMITED TO THE WARRANTIES OF MERCHANTABILITY, FITNESS
  17:../Dave/Generated/FREERTOS/queue.c ****  * FOR A PARTICULAR PURPOSE AND NONINFRINGEMENT. IN NO EVENT SHALL THE AUTHORS OR
  18:../Dave/Generated/FREERTOS/queue.c ****  * COPYRIGHT HOLDERS BE LIABLE FOR ANY CLAIM, DAMAGES OR OTHER LIABILITY, WHETHER
  19:../Dave/Generated/FREERTOS/queue.c ****  * IN AN ACTION OF CONTRACT, TORT OR OTHERWISE, ARISING FROM, OUT OF OR IN
  20:../Dave/Generated/FREERTOS/queue.c ****  * CONNECTION WITH THE SOFTWARE OR THE USE OR OTHER DEALINGS IN THE SOFTWARE.
  21:../Dave/Generated/FREERTOS/queue.c ****  *
  22:../Dave/Generated/FREERTOS/queue.c ****  * https://www.FreeRTOS.org
  23:../Dave/Generated/FREERTOS/queue.c ****  * https://github.com/FreeRTOS
  24:../Dave/Generated/FREERTOS/queue.c ****  *
  25:../Dave/Generated/FREERTOS/queue.c ****  */
  26:../Dave/Generated/FREERTOS/queue.c **** 
  27:../Dave/Generated/FREERTOS/queue.c **** #include <stdlib.h>
  28:../Dave/Generated/FREERTOS/queue.c **** #include <string.h>
  29:../Dave/Generated/FREERTOS/queue.c **** 
  30:../Dave/Generated/FREERTOS/queue.c **** /* Defining MPU_WRAPPERS_INCLUDED_FROM_API_FILE prevents task.h from redefining
  31:../Dave/Generated/FREERTOS/queue.c ****  * all the API functions to use the MPU wrappers.  That should only be done when
  32:../Dave/Generated/FREERTOS/queue.c ****  * task.h is included from an application file. */
  33:../Dave/Generated/FREERTOS/queue.c **** #define MPU_WRAPPERS_INCLUDED_FROM_API_FILE
  34:../Dave/Generated/FREERTOS/queue.c **** 
  35:../Dave/Generated/FREERTOS/queue.c **** #include "FreeRTOS.h"
  36:../Dave/Generated/FREERTOS/queue.c **** #include "task.h"
  37:../Dave/Generated/FREERTOS/queue.c **** #include "queue.h"
  38:../Dave/Generated/FREERTOS/queue.c **** 
  39:../Dave/Generated/FREERTOS/queue.c **** #if ( configUSE_CO_ROUTINES == 1 )
  40:../Dave/Generated/FREERTOS/queue.c ****     #include "croutine.h"
  41:../Dave/Generated/FREERTOS/queue.c **** #endif
  42:../Dave/Generated/FREERTOS/queue.c **** 
  43:../Dave/Generated/FREERTOS/queue.c **** /* Lint e9021, e961 and e750 are suppressed as a MISRA exception justified
  44:../Dave/Generated/FREERTOS/queue.c ****  * because the MPU ports require MPU_WRAPPERS_INCLUDED_FROM_API_FILE to be defined
  45:../Dave/Generated/FREERTOS/queue.c ****  * for the header files above, but not in this file, in order to generate the
  46:../Dave/Generated/FREERTOS/queue.c ****  * correct privileged Vs unprivileged linkage and placement. */
  47:../Dave/Generated/FREERTOS/queue.c **** #undef MPU_WRAPPERS_INCLUDED_FROM_API_FILE /*lint !e961 !e750 !e9021. */
  48:../Dave/Generated/FREERTOS/queue.c **** 
  49:../Dave/Generated/FREERTOS/queue.c **** 
  50:../Dave/Generated/FREERTOS/queue.c **** /* Constants used with the cRxLock and cTxLock structure members. */
  51:../Dave/Generated/FREERTOS/queue.c **** #define queueUNLOCKED             ( ( int8_t ) -1 )
  52:../Dave/Generated/FREERTOS/queue.c **** #define queueLOCKED_UNMODIFIED    ( ( int8_t ) 0 )
  53:../Dave/Generated/FREERTOS/queue.c **** #define queueINT8_MAX             ( ( int8_t ) 127 )
  54:../Dave/Generated/FREERTOS/queue.c **** 
  55:../Dave/Generated/FREERTOS/queue.c **** /* When the Queue_t structure is used to represent a base queue its pcHead and
  56:../Dave/Generated/FREERTOS/queue.c ****  * pcTail members are used as pointers into the queue storage area.  When the
  57:../Dave/Generated/FREERTOS/queue.c ****  * Queue_t structure is used to represent a mutex pcHead and pcTail pointers are
  58:../Dave/Generated/FREERTOS/queue.c ****  * not necessary, and the pcHead pointer is set to NULL to indicate that the
  59:../Dave/Generated/FREERTOS/queue.c ****  * structure instead holds a pointer to the mutex holder (if any).  Map alternative
  60:../Dave/Generated/FREERTOS/queue.c ****  * names to the pcHead and structure member to ensure the readability of the code
  61:../Dave/Generated/FREERTOS/queue.c ****  * is maintained.  The QueuePointers_t and SemaphoreData_t types are used to form
  62:../Dave/Generated/FREERTOS/queue.c ****  * a union as their usage is mutually exclusive dependent on what the queue is
  63:../Dave/Generated/FREERTOS/queue.c ****  * being used for. */
  64:../Dave/Generated/FREERTOS/queue.c **** #define uxQueueType               pcHead
  65:../Dave/Generated/FREERTOS/queue.c **** #define queueQUEUE_IS_MUTEX       NULL
  66:../Dave/Generated/FREERTOS/queue.c **** 
  67:../Dave/Generated/FREERTOS/queue.c **** typedef struct QueuePointers
  68:../Dave/Generated/FREERTOS/queue.c **** {
  69:../Dave/Generated/FREERTOS/queue.c ****     int8_t * pcTail;     /*< Points to the byte at the end of the queue storage area.  Once more by
  70:../Dave/Generated/FREERTOS/queue.c ****     int8_t * pcReadFrom; /*< Points to the last place that a queued item was read from when the str
  71:../Dave/Generated/FREERTOS/queue.c **** } QueuePointers_t;
  72:../Dave/Generated/FREERTOS/queue.c **** 
  73:../Dave/Generated/FREERTOS/queue.c **** typedef struct SemaphoreData
  74:../Dave/Generated/FREERTOS/queue.c **** {
  75:../Dave/Generated/FREERTOS/queue.c ****     TaskHandle_t xMutexHolder;        /*< The handle of the task that holds the mutex. */
  76:../Dave/Generated/FREERTOS/queue.c ****     UBaseType_t uxRecursiveCallCount; /*< Maintains a count of the number of times a recursive mute
  77:../Dave/Generated/FREERTOS/queue.c **** } SemaphoreData_t;
  78:../Dave/Generated/FREERTOS/queue.c **** 
  79:../Dave/Generated/FREERTOS/queue.c **** /* Semaphores do not actually store or copy data, so have an item size of
  80:../Dave/Generated/FREERTOS/queue.c ****  * zero. */
  81:../Dave/Generated/FREERTOS/queue.c **** #define queueSEMAPHORE_QUEUE_ITEM_LENGTH    ( ( UBaseType_t ) 0 )
  82:../Dave/Generated/FREERTOS/queue.c **** #define queueMUTEX_GIVE_BLOCK_TIME          ( ( TickType_t ) 0U )
  83:../Dave/Generated/FREERTOS/queue.c **** 
  84:../Dave/Generated/FREERTOS/queue.c **** #if ( configUSE_PREEMPTION == 0 )
  85:../Dave/Generated/FREERTOS/queue.c **** 
  86:../Dave/Generated/FREERTOS/queue.c **** /* If the cooperative scheduler is being used then a yield should not be
  87:../Dave/Generated/FREERTOS/queue.c ****  * performed just because a higher priority task has been woken. */
  88:../Dave/Generated/FREERTOS/queue.c ****     #define queueYIELD_IF_USING_PREEMPTION()
  89:../Dave/Generated/FREERTOS/queue.c **** #else
  90:../Dave/Generated/FREERTOS/queue.c ****     #define queueYIELD_IF_USING_PREEMPTION()    portYIELD_WITHIN_API()
  91:../Dave/Generated/FREERTOS/queue.c **** #endif
  92:../Dave/Generated/FREERTOS/queue.c **** 
  93:../Dave/Generated/FREERTOS/queue.c **** /*
  94:../Dave/Generated/FREERTOS/queue.c ****  * Definition of the queue used by the scheduler.
  95:../Dave/Generated/FREERTOS/queue.c ****  * Items are queued by copy, not reference.  See the following link for the
  96:../Dave/Generated/FREERTOS/queue.c ****  * rationale: https://www.FreeRTOS.org/Embedded-RTOS-Queues.html
  97:../Dave/Generated/FREERTOS/queue.c ****  */
  98:../Dave/Generated/FREERTOS/queue.c **** typedef struct QueueDefinition /* The old naming convention is used to prevent breaking kernel awar
  99:../Dave/Generated/FREERTOS/queue.c **** {
 100:../Dave/Generated/FREERTOS/queue.c ****     int8_t * pcHead;           /*< Points to the beginning of the queue storage area. */
 101:../Dave/Generated/FREERTOS/queue.c ****     int8_t * pcWriteTo;        /*< Points to the free next place in the storage area. */
 102:../Dave/Generated/FREERTOS/queue.c **** 
 103:../Dave/Generated/FREERTOS/queue.c ****     union
 104:../Dave/Generated/FREERTOS/queue.c ****     {
 105:../Dave/Generated/FREERTOS/queue.c ****         QueuePointers_t xQueue;     /*< Data required exclusively when this structure is used as a 
 106:../Dave/Generated/FREERTOS/queue.c ****         SemaphoreData_t xSemaphore; /*< Data required exclusively when this structure is used as a 
 107:../Dave/Generated/FREERTOS/queue.c ****     } u;
 108:../Dave/Generated/FREERTOS/queue.c **** 
 109:../Dave/Generated/FREERTOS/queue.c ****     List_t xTasksWaitingToSend;             /*< List of tasks that are blocked waiting to post onto
 110:../Dave/Generated/FREERTOS/queue.c ****     List_t xTasksWaitingToReceive;          /*< List of tasks that are blocked waiting to read from
 111:../Dave/Generated/FREERTOS/queue.c **** 
 112:../Dave/Generated/FREERTOS/queue.c ****     volatile UBaseType_t uxMessagesWaiting; /*< The number of items currently in the queue. */
 113:../Dave/Generated/FREERTOS/queue.c ****     UBaseType_t uxLength;                   /*< The length of the queue defined as the number of it
 114:../Dave/Generated/FREERTOS/queue.c ****     UBaseType_t uxItemSize;                 /*< The size of each items that the queue will hold. */
 115:../Dave/Generated/FREERTOS/queue.c **** 
 116:../Dave/Generated/FREERTOS/queue.c ****     volatile int8_t cRxLock;                /*< Stores the number of items received from the queue 
 117:../Dave/Generated/FREERTOS/queue.c ****     volatile int8_t cTxLock;                /*< Stores the number of items transmitted to the queue
 118:../Dave/Generated/FREERTOS/queue.c **** 
 119:../Dave/Generated/FREERTOS/queue.c ****     #if ( ( configSUPPORT_STATIC_ALLOCATION == 1 ) && ( configSUPPORT_DYNAMIC_ALLOCATION == 1 ) )
 120:../Dave/Generated/FREERTOS/queue.c ****         uint8_t ucStaticallyAllocated; /*< Set to pdTRUE if the memory used by the queue was static
 121:../Dave/Generated/FREERTOS/queue.c ****     #endif
 122:../Dave/Generated/FREERTOS/queue.c **** 
 123:../Dave/Generated/FREERTOS/queue.c ****     #if ( configUSE_QUEUE_SETS == 1 )
 124:../Dave/Generated/FREERTOS/queue.c ****         struct QueueDefinition * pxQueueSetContainer;
 125:../Dave/Generated/FREERTOS/queue.c ****     #endif
 126:../Dave/Generated/FREERTOS/queue.c **** 
 127:../Dave/Generated/FREERTOS/queue.c ****     #if ( configUSE_TRACE_FACILITY == 1 )
 128:../Dave/Generated/FREERTOS/queue.c ****         UBaseType_t uxQueueNumber;
 129:../Dave/Generated/FREERTOS/queue.c ****         uint8_t ucQueueType;
 130:../Dave/Generated/FREERTOS/queue.c ****     #endif
 131:../Dave/Generated/FREERTOS/queue.c **** } xQUEUE;
 132:../Dave/Generated/FREERTOS/queue.c **** 
 133:../Dave/Generated/FREERTOS/queue.c **** /* The old xQUEUE name is maintained above then typedefed to the new Queue_t
 134:../Dave/Generated/FREERTOS/queue.c ****  * name below to enable the use of older kernel aware debuggers. */
 135:../Dave/Generated/FREERTOS/queue.c **** typedef xQUEUE Queue_t;
 136:../Dave/Generated/FREERTOS/queue.c **** 
 137:../Dave/Generated/FREERTOS/queue.c **** /*-----------------------------------------------------------*/
 138:../Dave/Generated/FREERTOS/queue.c **** 
 139:../Dave/Generated/FREERTOS/queue.c **** /*
 140:../Dave/Generated/FREERTOS/queue.c ****  * The queue registry is just a means for kernel aware debuggers to locate
 141:../Dave/Generated/FREERTOS/queue.c ****  * queue structures.  It has no other purpose so is an optional component.
 142:../Dave/Generated/FREERTOS/queue.c ****  */
 143:../Dave/Generated/FREERTOS/queue.c **** #if ( configQUEUE_REGISTRY_SIZE > 0 )
 144:../Dave/Generated/FREERTOS/queue.c **** 
 145:../Dave/Generated/FREERTOS/queue.c **** /* The type stored within the queue registry array.  This allows a name
 146:../Dave/Generated/FREERTOS/queue.c ****  * to be assigned to each queue making kernel aware debugging a little
 147:../Dave/Generated/FREERTOS/queue.c ****  * more user friendly. */
 148:../Dave/Generated/FREERTOS/queue.c ****     typedef struct QUEUE_REGISTRY_ITEM
 149:../Dave/Generated/FREERTOS/queue.c ****     {
 150:../Dave/Generated/FREERTOS/queue.c ****         const char * pcQueueName; /*lint !e971 Unqualified char types are allowed for strings and s
 151:../Dave/Generated/FREERTOS/queue.c ****         QueueHandle_t xHandle;
 152:../Dave/Generated/FREERTOS/queue.c ****     } xQueueRegistryItem;
 153:../Dave/Generated/FREERTOS/queue.c **** 
 154:../Dave/Generated/FREERTOS/queue.c **** /* The old xQueueRegistryItem name is maintained above then typedefed to the
 155:../Dave/Generated/FREERTOS/queue.c ****  * new xQueueRegistryItem name below to enable the use of older kernel aware
 156:../Dave/Generated/FREERTOS/queue.c ****  * debuggers. */
 157:../Dave/Generated/FREERTOS/queue.c ****     typedef xQueueRegistryItem QueueRegistryItem_t;
 158:../Dave/Generated/FREERTOS/queue.c **** 
 159:../Dave/Generated/FREERTOS/queue.c **** /* The queue registry is simply an array of QueueRegistryItem_t structures.
 160:../Dave/Generated/FREERTOS/queue.c ****  * The pcQueueName member of a structure being NULL is indicative of the
 161:../Dave/Generated/FREERTOS/queue.c ****  * array position being vacant. */
 162:../Dave/Generated/FREERTOS/queue.c ****     PRIVILEGED_DATA QueueRegistryItem_t xQueueRegistry[ configQUEUE_REGISTRY_SIZE ];
 163:../Dave/Generated/FREERTOS/queue.c **** 
 164:../Dave/Generated/FREERTOS/queue.c **** #endif /* configQUEUE_REGISTRY_SIZE */
 165:../Dave/Generated/FREERTOS/queue.c **** 
 166:../Dave/Generated/FREERTOS/queue.c **** /*
 167:../Dave/Generated/FREERTOS/queue.c ****  * Unlocks a queue locked by a call to prvLockQueue.  Locking a queue does not
 168:../Dave/Generated/FREERTOS/queue.c ****  * prevent an ISR from adding or removing items to the queue, but does prevent
 169:../Dave/Generated/FREERTOS/queue.c ****  * an ISR from removing tasks from the queue event lists.  If an ISR finds a
 170:../Dave/Generated/FREERTOS/queue.c ****  * queue is locked it will instead increment the appropriate queue lock count
 171:../Dave/Generated/FREERTOS/queue.c ****  * to indicate that a task may require unblocking.  When the queue in unlocked
 172:../Dave/Generated/FREERTOS/queue.c ****  * these lock counts are inspected, and the appropriate action taken.
 173:../Dave/Generated/FREERTOS/queue.c ****  */
 174:../Dave/Generated/FREERTOS/queue.c **** static void prvUnlockQueue( Queue_t * const pxQueue ) PRIVILEGED_FUNCTION;
 175:../Dave/Generated/FREERTOS/queue.c **** 
 176:../Dave/Generated/FREERTOS/queue.c **** /*
 177:../Dave/Generated/FREERTOS/queue.c ****  * Uses a critical section to determine if there is any data in a queue.
 178:../Dave/Generated/FREERTOS/queue.c ****  *
 179:../Dave/Generated/FREERTOS/queue.c ****  * @return pdTRUE if the queue contains no items, otherwise pdFALSE.
 180:../Dave/Generated/FREERTOS/queue.c ****  */
 181:../Dave/Generated/FREERTOS/queue.c **** static BaseType_t prvIsQueueEmpty( const Queue_t * pxQueue ) PRIVILEGED_FUNCTION;
 182:../Dave/Generated/FREERTOS/queue.c **** 
 183:../Dave/Generated/FREERTOS/queue.c **** /*
 184:../Dave/Generated/FREERTOS/queue.c ****  * Uses a critical section to determine if there is any space in a queue.
 185:../Dave/Generated/FREERTOS/queue.c ****  *
 186:../Dave/Generated/FREERTOS/queue.c ****  * @return pdTRUE if there is no space, otherwise pdFALSE;
 187:../Dave/Generated/FREERTOS/queue.c ****  */
 188:../Dave/Generated/FREERTOS/queue.c **** static BaseType_t prvIsQueueFull( const Queue_t * pxQueue ) PRIVILEGED_FUNCTION;
 189:../Dave/Generated/FREERTOS/queue.c **** 
 190:../Dave/Generated/FREERTOS/queue.c **** /*
 191:../Dave/Generated/FREERTOS/queue.c ****  * Copies an item into the queue, either at the front of the queue or the
 192:../Dave/Generated/FREERTOS/queue.c ****  * back of the queue.
 193:../Dave/Generated/FREERTOS/queue.c ****  */
 194:../Dave/Generated/FREERTOS/queue.c **** static BaseType_t prvCopyDataToQueue( Queue_t * const pxQueue,
 195:../Dave/Generated/FREERTOS/queue.c ****                                       const void * pvItemToQueue,
 196:../Dave/Generated/FREERTOS/queue.c ****                                       const BaseType_t xPosition ) PRIVILEGED_FUNCTION;
 197:../Dave/Generated/FREERTOS/queue.c **** 
 198:../Dave/Generated/FREERTOS/queue.c **** /*
 199:../Dave/Generated/FREERTOS/queue.c ****  * Copies an item out of a queue.
 200:../Dave/Generated/FREERTOS/queue.c ****  */
 201:../Dave/Generated/FREERTOS/queue.c **** static void prvCopyDataFromQueue( Queue_t * const pxQueue,
 202:../Dave/Generated/FREERTOS/queue.c ****                                   void * const pvBuffer ) PRIVILEGED_FUNCTION;
 203:../Dave/Generated/FREERTOS/queue.c **** 
 204:../Dave/Generated/FREERTOS/queue.c **** #if ( configUSE_QUEUE_SETS == 1 )
 205:../Dave/Generated/FREERTOS/queue.c **** 
 206:../Dave/Generated/FREERTOS/queue.c **** /*
 207:../Dave/Generated/FREERTOS/queue.c ****  * Checks to see if a queue is a member of a queue set, and if so, notifies
 208:../Dave/Generated/FREERTOS/queue.c ****  * the queue set that the queue contains data.
 209:../Dave/Generated/FREERTOS/queue.c ****  */
 210:../Dave/Generated/FREERTOS/queue.c ****     static BaseType_t prvNotifyQueueSetContainer( const Queue_t * const pxQueue ) PRIVILEGED_FUNCTI
 211:../Dave/Generated/FREERTOS/queue.c **** #endif
 212:../Dave/Generated/FREERTOS/queue.c **** 
 213:../Dave/Generated/FREERTOS/queue.c **** /*
 214:../Dave/Generated/FREERTOS/queue.c ****  * Called after a Queue_t structure has been allocated either statically or
 215:../Dave/Generated/FREERTOS/queue.c ****  * dynamically to fill in the structure's members.
 216:../Dave/Generated/FREERTOS/queue.c ****  */
 217:../Dave/Generated/FREERTOS/queue.c **** static void prvInitialiseNewQueue( const UBaseType_t uxQueueLength,
 218:../Dave/Generated/FREERTOS/queue.c ****                                    const UBaseType_t uxItemSize,
 219:../Dave/Generated/FREERTOS/queue.c ****                                    uint8_t * pucQueueStorage,
 220:../Dave/Generated/FREERTOS/queue.c ****                                    const uint8_t ucQueueType,
 221:../Dave/Generated/FREERTOS/queue.c ****                                    Queue_t * pxNewQueue ) PRIVILEGED_FUNCTION;
 222:../Dave/Generated/FREERTOS/queue.c **** 
 223:../Dave/Generated/FREERTOS/queue.c **** /*
 224:../Dave/Generated/FREERTOS/queue.c ****  * Mutexes are a special type of queue.  When a mutex is created, first the
 225:../Dave/Generated/FREERTOS/queue.c ****  * queue is created, then prvInitialiseMutex() is called to configure the queue
 226:../Dave/Generated/FREERTOS/queue.c ****  * as a mutex.
 227:../Dave/Generated/FREERTOS/queue.c ****  */
 228:../Dave/Generated/FREERTOS/queue.c **** #if ( configUSE_MUTEXES == 1 )
 229:../Dave/Generated/FREERTOS/queue.c ****     static void prvInitialiseMutex( Queue_t * pxNewQueue ) PRIVILEGED_FUNCTION;
 230:../Dave/Generated/FREERTOS/queue.c **** #endif
 231:../Dave/Generated/FREERTOS/queue.c **** 
 232:../Dave/Generated/FREERTOS/queue.c **** #if ( configUSE_MUTEXES == 1 )
 233:../Dave/Generated/FREERTOS/queue.c **** 
 234:../Dave/Generated/FREERTOS/queue.c **** /*
 235:../Dave/Generated/FREERTOS/queue.c ****  * If a task waiting for a mutex causes the mutex holder to inherit a
 236:../Dave/Generated/FREERTOS/queue.c ****  * priority, but the waiting task times out, then the holder should
 237:../Dave/Generated/FREERTOS/queue.c ****  * disinherit the priority - but only down to the highest priority of any
 238:../Dave/Generated/FREERTOS/queue.c ****  * other tasks that are waiting for the same mutex.  This function returns
 239:../Dave/Generated/FREERTOS/queue.c ****  * that priority.
 240:../Dave/Generated/FREERTOS/queue.c ****  */
 241:../Dave/Generated/FREERTOS/queue.c ****     static UBaseType_t prvGetDisinheritPriorityAfterTimeout( const Queue_t * const pxQueue ) PRIVIL
 242:../Dave/Generated/FREERTOS/queue.c **** #endif
 243:../Dave/Generated/FREERTOS/queue.c **** /*-----------------------------------------------------------*/
 244:../Dave/Generated/FREERTOS/queue.c **** 
 245:../Dave/Generated/FREERTOS/queue.c **** /*
 246:../Dave/Generated/FREERTOS/queue.c ****  * Macro to mark a queue as locked.  Locking a queue prevents an ISR from
 247:../Dave/Generated/FREERTOS/queue.c ****  * accessing the queue event lists.
 248:../Dave/Generated/FREERTOS/queue.c ****  */
 249:../Dave/Generated/FREERTOS/queue.c **** #define prvLockQueue( pxQueue )                            \
 250:../Dave/Generated/FREERTOS/queue.c ****     taskENTER_CRITICAL();                                  \
 251:../Dave/Generated/FREERTOS/queue.c ****     {                                                      \
 252:../Dave/Generated/FREERTOS/queue.c ****         if( ( pxQueue )->cRxLock == queueUNLOCKED )        \
 253:../Dave/Generated/FREERTOS/queue.c ****         {                                                  \
 254:../Dave/Generated/FREERTOS/queue.c ****             ( pxQueue )->cRxLock = queueLOCKED_UNMODIFIED; \
 255:../Dave/Generated/FREERTOS/queue.c ****         }                                                  \
 256:../Dave/Generated/FREERTOS/queue.c ****         if( ( pxQueue )->cTxLock == queueUNLOCKED )        \
 257:../Dave/Generated/FREERTOS/queue.c ****         {                                                  \
 258:../Dave/Generated/FREERTOS/queue.c ****             ( pxQueue )->cTxLock = queueLOCKED_UNMODIFIED; \
 259:../Dave/Generated/FREERTOS/queue.c ****         }                                                  \
 260:../Dave/Generated/FREERTOS/queue.c ****     }                                                      \
 261:../Dave/Generated/FREERTOS/queue.c ****     taskEXIT_CRITICAL()
 262:../Dave/Generated/FREERTOS/queue.c **** /*-----------------------------------------------------------*/
 263:../Dave/Generated/FREERTOS/queue.c **** 
 264:../Dave/Generated/FREERTOS/queue.c **** BaseType_t xQueueGenericReset( QueueHandle_t xQueue,
 265:../Dave/Generated/FREERTOS/queue.c ****                                BaseType_t xNewQueue )
 266:../Dave/Generated/FREERTOS/queue.c **** {
  29              	 .loc 1 266 0
  30              	 .cfi_startproc
  31              	 
  32              	 
  33 0000 80B5     	 push {r7,lr}
  34              	.LCFI0:
  35              	 .cfi_def_cfa_offset 8
  36              	 .cfi_offset 7,-8
  37              	 .cfi_offset 14,-4
  38 0002 84B0     	 sub sp,sp,#16
  39              	.LCFI1:
  40              	 .cfi_def_cfa_offset 24
  41 0004 00AF     	 add r7,sp,#0
  42              	.LCFI2:
  43              	 .cfi_def_cfa_register 7
  44 0006 7860     	 str r0,[r7,#4]
  45 0008 3960     	 str r1,[r7]
 267:../Dave/Generated/FREERTOS/queue.c ****     Queue_t * const pxQueue = xQueue;
  46              	 .loc 1 267 0
  47 000a 7B68     	 ldr r3,[r7,#4]
  48 000c FB60     	 str r3,[r7,#12]
 268:../Dave/Generated/FREERTOS/queue.c **** 
 269:../Dave/Generated/FREERTOS/queue.c ****     configASSERT( pxQueue );
  49              	 .loc 1 269 0
  50 000e FB68     	 ldr r3,[r7,#12]
  51 0010 002B     	 cmp r3,#0
  52 0012 09D1     	 bne .L2
  53              	.LBB136:
  54              	.LBB137:
  55              	 .file 2 "C:/Infineon/Tools/DAVE IDE/4.5.0.202105191637/eclipse/workspace/xmc4800-CE/Dave/Generated/FREERTOS/portable/GCC/portmacro.h"
   1:C:/Infineon/Tools/DAVE IDE/4.5.0.202105191637/eclipse/workspace/xmc4800-CE/Dave/Generated/FREERTOS/portable/GCC\portmacro.h **** /*
   2:C:/Infineon/Tools/DAVE IDE/4.5.0.202105191637/eclipse/workspace/xmc4800-CE/Dave/Generated/FREERTOS/portable/GCC\portmacro.h ****  * FreeRTOS Kernel V10.4.3
   3:C:/Infineon/Tools/DAVE IDE/4.5.0.202105191637/eclipse/workspace/xmc4800-CE/Dave/Generated/FREERTOS/portable/GCC\portmacro.h ****  * Copyright (C) 2020 Amazon.com, Inc. or its affiliates.  All Rights Reserved.
   4:C:/Infineon/Tools/DAVE IDE/4.5.0.202105191637/eclipse/workspace/xmc4800-CE/Dave/Generated/FREERTOS/portable/GCC\portmacro.h ****  *
   5:C:/Infineon/Tools/DAVE IDE/4.5.0.202105191637/eclipse/workspace/xmc4800-CE/Dave/Generated/FREERTOS/portable/GCC\portmacro.h ****  * Permission is hereby granted, free of charge, to any person obtaining a copy of
   6:C:/Infineon/Tools/DAVE IDE/4.5.0.202105191637/eclipse/workspace/xmc4800-CE/Dave/Generated/FREERTOS/portable/GCC\portmacro.h ****  * this software and associated documentation files (the "Software"), to deal in
   7:C:/Infineon/Tools/DAVE IDE/4.5.0.202105191637/eclipse/workspace/xmc4800-CE/Dave/Generated/FREERTOS/portable/GCC\portmacro.h ****  * the Software without restriction, including without limitation the rights to
   8:C:/Infineon/Tools/DAVE IDE/4.5.0.202105191637/eclipse/workspace/xmc4800-CE/Dave/Generated/FREERTOS/portable/GCC\portmacro.h ****  * use, copy, modify, merge, publish, distribute, sublicense, and/or sell copies of
   9:C:/Infineon/Tools/DAVE IDE/4.5.0.202105191637/eclipse/workspace/xmc4800-CE/Dave/Generated/FREERTOS/portable/GCC\portmacro.h ****  * the Software, and to permit persons to whom the Software is furnished to do so,
  10:C:/Infineon/Tools/DAVE IDE/4.5.0.202105191637/eclipse/workspace/xmc4800-CE/Dave/Generated/FREERTOS/portable/GCC\portmacro.h ****  * subject to the following conditions:
  11:C:/Infineon/Tools/DAVE IDE/4.5.0.202105191637/eclipse/workspace/xmc4800-CE/Dave/Generated/FREERTOS/portable/GCC\portmacro.h ****  *
  12:C:/Infineon/Tools/DAVE IDE/4.5.0.202105191637/eclipse/workspace/xmc4800-CE/Dave/Generated/FREERTOS/portable/GCC\portmacro.h ****  * The above copyright notice and this permission notice shall be included in all
  13:C:/Infineon/Tools/DAVE IDE/4.5.0.202105191637/eclipse/workspace/xmc4800-CE/Dave/Generated/FREERTOS/portable/GCC\portmacro.h ****  * copies or substantial portions of the Software.
  14:C:/Infineon/Tools/DAVE IDE/4.5.0.202105191637/eclipse/workspace/xmc4800-CE/Dave/Generated/FREERTOS/portable/GCC\portmacro.h ****  *
  15:C:/Infineon/Tools/DAVE IDE/4.5.0.202105191637/eclipse/workspace/xmc4800-CE/Dave/Generated/FREERTOS/portable/GCC\portmacro.h ****  * THE SOFTWARE IS PROVIDED "AS IS", WITHOUT WARRANTY OF ANY KIND, EXPRESS OR
  16:C:/Infineon/Tools/DAVE IDE/4.5.0.202105191637/eclipse/workspace/xmc4800-CE/Dave/Generated/FREERTOS/portable/GCC\portmacro.h ****  * IMPLIED, INCLUDING BUT NOT LIMITED TO THE WARRANTIES OF MERCHANTABILITY, FITNESS
  17:C:/Infineon/Tools/DAVE IDE/4.5.0.202105191637/eclipse/workspace/xmc4800-CE/Dave/Generated/FREERTOS/portable/GCC\portmacro.h ****  * FOR A PARTICULAR PURPOSE AND NONINFRINGEMENT. IN NO EVENT SHALL THE AUTHORS OR
  18:C:/Infineon/Tools/DAVE IDE/4.5.0.202105191637/eclipse/workspace/xmc4800-CE/Dave/Generated/FREERTOS/portable/GCC\portmacro.h ****  * COPYRIGHT HOLDERS BE LIABLE FOR ANY CLAIM, DAMAGES OR OTHER LIABILITY, WHETHER
  19:C:/Infineon/Tools/DAVE IDE/4.5.0.202105191637/eclipse/workspace/xmc4800-CE/Dave/Generated/FREERTOS/portable/GCC\portmacro.h ****  * IN AN ACTION OF CONTRACT, TORT OR OTHERWISE, ARISING FROM, OUT OF OR IN
  20:C:/Infineon/Tools/DAVE IDE/4.5.0.202105191637/eclipse/workspace/xmc4800-CE/Dave/Generated/FREERTOS/portable/GCC\portmacro.h ****  * CONNECTION WITH THE SOFTWARE OR THE USE OR OTHER DEALINGS IN THE SOFTWARE.
  21:C:/Infineon/Tools/DAVE IDE/4.5.0.202105191637/eclipse/workspace/xmc4800-CE/Dave/Generated/FREERTOS/portable/GCC\portmacro.h ****  *
  22:C:/Infineon/Tools/DAVE IDE/4.5.0.202105191637/eclipse/workspace/xmc4800-CE/Dave/Generated/FREERTOS/portable/GCC\portmacro.h ****  * https://www.FreeRTOS.org
  23:C:/Infineon/Tools/DAVE IDE/4.5.0.202105191637/eclipse/workspace/xmc4800-CE/Dave/Generated/FREERTOS/portable/GCC\portmacro.h ****  * https://github.com/FreeRTOS
  24:C:/Infineon/Tools/DAVE IDE/4.5.0.202105191637/eclipse/workspace/xmc4800-CE/Dave/Generated/FREERTOS/portable/GCC\portmacro.h ****  *
  25:C:/Infineon/Tools/DAVE IDE/4.5.0.202105191637/eclipse/workspace/xmc4800-CE/Dave/Generated/FREERTOS/portable/GCC\portmacro.h ****  * 1 tab == 4 spaces!
  26:C:/Infineon/Tools/DAVE IDE/4.5.0.202105191637/eclipse/workspace/xmc4800-CE/Dave/Generated/FREERTOS/portable/GCC\portmacro.h ****  */
  27:C:/Infineon/Tools/DAVE IDE/4.5.0.202105191637/eclipse/workspace/xmc4800-CE/Dave/Generated/FREERTOS/portable/GCC\portmacro.h **** 
  28:C:/Infineon/Tools/DAVE IDE/4.5.0.202105191637/eclipse/workspace/xmc4800-CE/Dave/Generated/FREERTOS/portable/GCC\portmacro.h **** 
  29:C:/Infineon/Tools/DAVE IDE/4.5.0.202105191637/eclipse/workspace/xmc4800-CE/Dave/Generated/FREERTOS/portable/GCC\portmacro.h **** #ifndef PORTMACRO_H
  30:C:/Infineon/Tools/DAVE IDE/4.5.0.202105191637/eclipse/workspace/xmc4800-CE/Dave/Generated/FREERTOS/portable/GCC\portmacro.h ****     #define PORTMACRO_H
  31:C:/Infineon/Tools/DAVE IDE/4.5.0.202105191637/eclipse/workspace/xmc4800-CE/Dave/Generated/FREERTOS/portable/GCC\portmacro.h **** 
  32:C:/Infineon/Tools/DAVE IDE/4.5.0.202105191637/eclipse/workspace/xmc4800-CE/Dave/Generated/FREERTOS/portable/GCC\portmacro.h ****     #ifdef __cplusplus
  33:C:/Infineon/Tools/DAVE IDE/4.5.0.202105191637/eclipse/workspace/xmc4800-CE/Dave/Generated/FREERTOS/portable/GCC\portmacro.h ****         extern "C" {
  34:C:/Infineon/Tools/DAVE IDE/4.5.0.202105191637/eclipse/workspace/xmc4800-CE/Dave/Generated/FREERTOS/portable/GCC\portmacro.h ****     #endif
  35:C:/Infineon/Tools/DAVE IDE/4.5.0.202105191637/eclipse/workspace/xmc4800-CE/Dave/Generated/FREERTOS/portable/GCC\portmacro.h **** 
  36:C:/Infineon/Tools/DAVE IDE/4.5.0.202105191637/eclipse/workspace/xmc4800-CE/Dave/Generated/FREERTOS/portable/GCC\portmacro.h **** /*-----------------------------------------------------------
  37:C:/Infineon/Tools/DAVE IDE/4.5.0.202105191637/eclipse/workspace/xmc4800-CE/Dave/Generated/FREERTOS/portable/GCC\portmacro.h ****  * Port specific definitions.
  38:C:/Infineon/Tools/DAVE IDE/4.5.0.202105191637/eclipse/workspace/xmc4800-CE/Dave/Generated/FREERTOS/portable/GCC\portmacro.h ****  *
  39:C:/Infineon/Tools/DAVE IDE/4.5.0.202105191637/eclipse/workspace/xmc4800-CE/Dave/Generated/FREERTOS/portable/GCC\portmacro.h ****  * The settings in this file configure FreeRTOS correctly for the
  40:C:/Infineon/Tools/DAVE IDE/4.5.0.202105191637/eclipse/workspace/xmc4800-CE/Dave/Generated/FREERTOS/portable/GCC\portmacro.h ****  * given hardware and compiler.
  41:C:/Infineon/Tools/DAVE IDE/4.5.0.202105191637/eclipse/workspace/xmc4800-CE/Dave/Generated/FREERTOS/portable/GCC\portmacro.h ****  *
  42:C:/Infineon/Tools/DAVE IDE/4.5.0.202105191637/eclipse/workspace/xmc4800-CE/Dave/Generated/FREERTOS/portable/GCC\portmacro.h ****  * These settings should not be altered.
  43:C:/Infineon/Tools/DAVE IDE/4.5.0.202105191637/eclipse/workspace/xmc4800-CE/Dave/Generated/FREERTOS/portable/GCC\portmacro.h ****  *-----------------------------------------------------------
  44:C:/Infineon/Tools/DAVE IDE/4.5.0.202105191637/eclipse/workspace/xmc4800-CE/Dave/Generated/FREERTOS/portable/GCC\portmacro.h ****  */
  45:C:/Infineon/Tools/DAVE IDE/4.5.0.202105191637/eclipse/workspace/xmc4800-CE/Dave/Generated/FREERTOS/portable/GCC\portmacro.h **** 
  46:C:/Infineon/Tools/DAVE IDE/4.5.0.202105191637/eclipse/workspace/xmc4800-CE/Dave/Generated/FREERTOS/portable/GCC\portmacro.h **** /* Type definitions. */
  47:C:/Infineon/Tools/DAVE IDE/4.5.0.202105191637/eclipse/workspace/xmc4800-CE/Dave/Generated/FREERTOS/portable/GCC\portmacro.h ****     #define portCHAR          char
  48:C:/Infineon/Tools/DAVE IDE/4.5.0.202105191637/eclipse/workspace/xmc4800-CE/Dave/Generated/FREERTOS/portable/GCC\portmacro.h ****     #define portFLOAT         float
  49:C:/Infineon/Tools/DAVE IDE/4.5.0.202105191637/eclipse/workspace/xmc4800-CE/Dave/Generated/FREERTOS/portable/GCC\portmacro.h ****     #define portDOUBLE        double
  50:C:/Infineon/Tools/DAVE IDE/4.5.0.202105191637/eclipse/workspace/xmc4800-CE/Dave/Generated/FREERTOS/portable/GCC\portmacro.h ****     #define portLONG          long
  51:C:/Infineon/Tools/DAVE IDE/4.5.0.202105191637/eclipse/workspace/xmc4800-CE/Dave/Generated/FREERTOS/portable/GCC\portmacro.h ****     #define portSHORT         short
  52:C:/Infineon/Tools/DAVE IDE/4.5.0.202105191637/eclipse/workspace/xmc4800-CE/Dave/Generated/FREERTOS/portable/GCC\portmacro.h ****     #define portSTACK_TYPE    uint32_t
  53:C:/Infineon/Tools/DAVE IDE/4.5.0.202105191637/eclipse/workspace/xmc4800-CE/Dave/Generated/FREERTOS/portable/GCC\portmacro.h ****     #define portBASE_TYPE     long
  54:C:/Infineon/Tools/DAVE IDE/4.5.0.202105191637/eclipse/workspace/xmc4800-CE/Dave/Generated/FREERTOS/portable/GCC\portmacro.h **** 
  55:C:/Infineon/Tools/DAVE IDE/4.5.0.202105191637/eclipse/workspace/xmc4800-CE/Dave/Generated/FREERTOS/portable/GCC\portmacro.h ****     typedef portSTACK_TYPE   StackType_t;
  56:C:/Infineon/Tools/DAVE IDE/4.5.0.202105191637/eclipse/workspace/xmc4800-CE/Dave/Generated/FREERTOS/portable/GCC\portmacro.h ****     typedef long             BaseType_t;
  57:C:/Infineon/Tools/DAVE IDE/4.5.0.202105191637/eclipse/workspace/xmc4800-CE/Dave/Generated/FREERTOS/portable/GCC\portmacro.h ****     typedef unsigned long    UBaseType_t;
  58:C:/Infineon/Tools/DAVE IDE/4.5.0.202105191637/eclipse/workspace/xmc4800-CE/Dave/Generated/FREERTOS/portable/GCC\portmacro.h **** 
  59:C:/Infineon/Tools/DAVE IDE/4.5.0.202105191637/eclipse/workspace/xmc4800-CE/Dave/Generated/FREERTOS/portable/GCC\portmacro.h ****     #if ( configUSE_16_BIT_TICKS == 1 )
  60:C:/Infineon/Tools/DAVE IDE/4.5.0.202105191637/eclipse/workspace/xmc4800-CE/Dave/Generated/FREERTOS/portable/GCC\portmacro.h ****         typedef uint16_t     TickType_t;
  61:C:/Infineon/Tools/DAVE IDE/4.5.0.202105191637/eclipse/workspace/xmc4800-CE/Dave/Generated/FREERTOS/portable/GCC\portmacro.h ****         #define portMAX_DELAY              ( TickType_t ) 0xffff
  62:C:/Infineon/Tools/DAVE IDE/4.5.0.202105191637/eclipse/workspace/xmc4800-CE/Dave/Generated/FREERTOS/portable/GCC\portmacro.h ****     #else
  63:C:/Infineon/Tools/DAVE IDE/4.5.0.202105191637/eclipse/workspace/xmc4800-CE/Dave/Generated/FREERTOS/portable/GCC\portmacro.h ****         typedef uint32_t     TickType_t;
  64:C:/Infineon/Tools/DAVE IDE/4.5.0.202105191637/eclipse/workspace/xmc4800-CE/Dave/Generated/FREERTOS/portable/GCC\portmacro.h ****         #define portMAX_DELAY              ( TickType_t ) 0xffffffffUL
  65:C:/Infineon/Tools/DAVE IDE/4.5.0.202105191637/eclipse/workspace/xmc4800-CE/Dave/Generated/FREERTOS/portable/GCC\portmacro.h **** 
  66:C:/Infineon/Tools/DAVE IDE/4.5.0.202105191637/eclipse/workspace/xmc4800-CE/Dave/Generated/FREERTOS/portable/GCC\portmacro.h **** /* 32-bit tick type on a 32-bit architecture, so reads of the tick count do
  67:C:/Infineon/Tools/DAVE IDE/4.5.0.202105191637/eclipse/workspace/xmc4800-CE/Dave/Generated/FREERTOS/portable/GCC\portmacro.h ****  * not need to be guarded with a critical section. */
  68:C:/Infineon/Tools/DAVE IDE/4.5.0.202105191637/eclipse/workspace/xmc4800-CE/Dave/Generated/FREERTOS/portable/GCC\portmacro.h ****         #define portTICK_TYPE_IS_ATOMIC    1
  69:C:/Infineon/Tools/DAVE IDE/4.5.0.202105191637/eclipse/workspace/xmc4800-CE/Dave/Generated/FREERTOS/portable/GCC\portmacro.h ****     #endif
  70:C:/Infineon/Tools/DAVE IDE/4.5.0.202105191637/eclipse/workspace/xmc4800-CE/Dave/Generated/FREERTOS/portable/GCC\portmacro.h **** /*-----------------------------------------------------------*/
  71:C:/Infineon/Tools/DAVE IDE/4.5.0.202105191637/eclipse/workspace/xmc4800-CE/Dave/Generated/FREERTOS/portable/GCC\portmacro.h **** 
  72:C:/Infineon/Tools/DAVE IDE/4.5.0.202105191637/eclipse/workspace/xmc4800-CE/Dave/Generated/FREERTOS/portable/GCC\portmacro.h **** /* Architecture specifics. */
  73:C:/Infineon/Tools/DAVE IDE/4.5.0.202105191637/eclipse/workspace/xmc4800-CE/Dave/Generated/FREERTOS/portable/GCC\portmacro.h ****     #define portSTACK_GROWTH      ( -1 )
  74:C:/Infineon/Tools/DAVE IDE/4.5.0.202105191637/eclipse/workspace/xmc4800-CE/Dave/Generated/FREERTOS/portable/GCC\portmacro.h ****     #define portTICK_PERIOD_MS    ( ( TickType_t ) 1000 / configTICK_RATE_HZ )
  75:C:/Infineon/Tools/DAVE IDE/4.5.0.202105191637/eclipse/workspace/xmc4800-CE/Dave/Generated/FREERTOS/portable/GCC\portmacro.h ****     #define portBYTE_ALIGNMENT    8
  76:C:/Infineon/Tools/DAVE IDE/4.5.0.202105191637/eclipse/workspace/xmc4800-CE/Dave/Generated/FREERTOS/portable/GCC\portmacro.h ****     #define portDONT_DISCARD      __attribute__( ( used ) )
  77:C:/Infineon/Tools/DAVE IDE/4.5.0.202105191637/eclipse/workspace/xmc4800-CE/Dave/Generated/FREERTOS/portable/GCC\portmacro.h **** /*-----------------------------------------------------------*/
  78:C:/Infineon/Tools/DAVE IDE/4.5.0.202105191637/eclipse/workspace/xmc4800-CE/Dave/Generated/FREERTOS/portable/GCC\portmacro.h **** 
  79:C:/Infineon/Tools/DAVE IDE/4.5.0.202105191637/eclipse/workspace/xmc4800-CE/Dave/Generated/FREERTOS/portable/GCC\portmacro.h **** /* Scheduler utilities. */
  80:C:/Infineon/Tools/DAVE IDE/4.5.0.202105191637/eclipse/workspace/xmc4800-CE/Dave/Generated/FREERTOS/portable/GCC\portmacro.h ****     #define portYIELD()                                 \
  81:C:/Infineon/Tools/DAVE IDE/4.5.0.202105191637/eclipse/workspace/xmc4800-CE/Dave/Generated/FREERTOS/portable/GCC\portmacro.h ****     {                                                   \
  82:C:/Infineon/Tools/DAVE IDE/4.5.0.202105191637/eclipse/workspace/xmc4800-CE/Dave/Generated/FREERTOS/portable/GCC\portmacro.h ****         /* Set a PendSV to request a context switch. */ \
  83:C:/Infineon/Tools/DAVE IDE/4.5.0.202105191637/eclipse/workspace/xmc4800-CE/Dave/Generated/FREERTOS/portable/GCC\portmacro.h ****         portNVIC_INT_CTRL_REG = portNVIC_PENDSVSET_BIT; \
  84:C:/Infineon/Tools/DAVE IDE/4.5.0.202105191637/eclipse/workspace/xmc4800-CE/Dave/Generated/FREERTOS/portable/GCC\portmacro.h ****                                                         \
  85:C:/Infineon/Tools/DAVE IDE/4.5.0.202105191637/eclipse/workspace/xmc4800-CE/Dave/Generated/FREERTOS/portable/GCC\portmacro.h ****         /* Barriers are normally not required but do ensure the code is completely \
  86:C:/Infineon/Tools/DAVE IDE/4.5.0.202105191637/eclipse/workspace/xmc4800-CE/Dave/Generated/FREERTOS/portable/GCC\portmacro.h ****          * within the specified behaviour for the architecture. */ \
  87:C:/Infineon/Tools/DAVE IDE/4.5.0.202105191637/eclipse/workspace/xmc4800-CE/Dave/Generated/FREERTOS/portable/GCC\portmacro.h ****         __asm volatile ( "dsb" ::: "memory" );                     \
  88:C:/Infineon/Tools/DAVE IDE/4.5.0.202105191637/eclipse/workspace/xmc4800-CE/Dave/Generated/FREERTOS/portable/GCC\portmacro.h ****         __asm volatile ( "isb" );                                  \
  89:C:/Infineon/Tools/DAVE IDE/4.5.0.202105191637/eclipse/workspace/xmc4800-CE/Dave/Generated/FREERTOS/portable/GCC\portmacro.h ****     }
  90:C:/Infineon/Tools/DAVE IDE/4.5.0.202105191637/eclipse/workspace/xmc4800-CE/Dave/Generated/FREERTOS/portable/GCC\portmacro.h **** 
  91:C:/Infineon/Tools/DAVE IDE/4.5.0.202105191637/eclipse/workspace/xmc4800-CE/Dave/Generated/FREERTOS/portable/GCC\portmacro.h ****     #define portNVIC_INT_CTRL_REG     ( *( ( volatile uint32_t * ) 0xe000ed04 ) )
  92:C:/Infineon/Tools/DAVE IDE/4.5.0.202105191637/eclipse/workspace/xmc4800-CE/Dave/Generated/FREERTOS/portable/GCC\portmacro.h ****     #define portNVIC_PENDSVSET_BIT    ( 1UL << 28UL )
  93:C:/Infineon/Tools/DAVE IDE/4.5.0.202105191637/eclipse/workspace/xmc4800-CE/Dave/Generated/FREERTOS/portable/GCC\portmacro.h ****     #define portEND_SWITCHING_ISR( xSwitchRequired )    if( xSwitchRequired != pdFALSE ) portYIELD(
  94:C:/Infineon/Tools/DAVE IDE/4.5.0.202105191637/eclipse/workspace/xmc4800-CE/Dave/Generated/FREERTOS/portable/GCC\portmacro.h ****     #define portYIELD_FROM_ISR( x )                     portEND_SWITCHING_ISR( x )
  95:C:/Infineon/Tools/DAVE IDE/4.5.0.202105191637/eclipse/workspace/xmc4800-CE/Dave/Generated/FREERTOS/portable/GCC\portmacro.h **** /*-----------------------------------------------------------*/
  96:C:/Infineon/Tools/DAVE IDE/4.5.0.202105191637/eclipse/workspace/xmc4800-CE/Dave/Generated/FREERTOS/portable/GCC\portmacro.h **** 
  97:C:/Infineon/Tools/DAVE IDE/4.5.0.202105191637/eclipse/workspace/xmc4800-CE/Dave/Generated/FREERTOS/portable/GCC\portmacro.h **** /* Critical section management. */
  98:C:/Infineon/Tools/DAVE IDE/4.5.0.202105191637/eclipse/workspace/xmc4800-CE/Dave/Generated/FREERTOS/portable/GCC\portmacro.h ****     extern void vPortEnterCritical( void );
  99:C:/Infineon/Tools/DAVE IDE/4.5.0.202105191637/eclipse/workspace/xmc4800-CE/Dave/Generated/FREERTOS/portable/GCC\portmacro.h ****     extern void vPortExitCritical( void );
 100:C:/Infineon/Tools/DAVE IDE/4.5.0.202105191637/eclipse/workspace/xmc4800-CE/Dave/Generated/FREERTOS/portable/GCC\portmacro.h ****     #define portSET_INTERRUPT_MASK_FROM_ISR()         ulPortRaiseBASEPRI()
 101:C:/Infineon/Tools/DAVE IDE/4.5.0.202105191637/eclipse/workspace/xmc4800-CE/Dave/Generated/FREERTOS/portable/GCC\portmacro.h ****     #define portCLEAR_INTERRUPT_MASK_FROM_ISR( x )    vPortSetBASEPRI( x )
 102:C:/Infineon/Tools/DAVE IDE/4.5.0.202105191637/eclipse/workspace/xmc4800-CE/Dave/Generated/FREERTOS/portable/GCC\portmacro.h ****     #define portDISABLE_INTERRUPTS()                  vPortRaiseBASEPRI()
 103:C:/Infineon/Tools/DAVE IDE/4.5.0.202105191637/eclipse/workspace/xmc4800-CE/Dave/Generated/FREERTOS/portable/GCC\portmacro.h ****     #define portENABLE_INTERRUPTS()                   vPortSetBASEPRI( 0 )
 104:C:/Infineon/Tools/DAVE IDE/4.5.0.202105191637/eclipse/workspace/xmc4800-CE/Dave/Generated/FREERTOS/portable/GCC\portmacro.h ****     #define portENTER_CRITICAL()                      vPortEnterCritical()
 105:C:/Infineon/Tools/DAVE IDE/4.5.0.202105191637/eclipse/workspace/xmc4800-CE/Dave/Generated/FREERTOS/portable/GCC\portmacro.h ****     #define portEXIT_CRITICAL()                       vPortExitCritical()
 106:C:/Infineon/Tools/DAVE IDE/4.5.0.202105191637/eclipse/workspace/xmc4800-CE/Dave/Generated/FREERTOS/portable/GCC\portmacro.h **** 
 107:C:/Infineon/Tools/DAVE IDE/4.5.0.202105191637/eclipse/workspace/xmc4800-CE/Dave/Generated/FREERTOS/portable/GCC\portmacro.h **** /*-----------------------------------------------------------*/
 108:C:/Infineon/Tools/DAVE IDE/4.5.0.202105191637/eclipse/workspace/xmc4800-CE/Dave/Generated/FREERTOS/portable/GCC\portmacro.h **** 
 109:C:/Infineon/Tools/DAVE IDE/4.5.0.202105191637/eclipse/workspace/xmc4800-CE/Dave/Generated/FREERTOS/portable/GCC\portmacro.h **** /* Task function macros as described on the FreeRTOS.org WEB site.  These are
 110:C:/Infineon/Tools/DAVE IDE/4.5.0.202105191637/eclipse/workspace/xmc4800-CE/Dave/Generated/FREERTOS/portable/GCC\portmacro.h ****  * not necessary for to use this port.  They are defined so the common demo files
 111:C:/Infineon/Tools/DAVE IDE/4.5.0.202105191637/eclipse/workspace/xmc4800-CE/Dave/Generated/FREERTOS/portable/GCC\portmacro.h ****  * (which build with all the ports) will build. */
 112:C:/Infineon/Tools/DAVE IDE/4.5.0.202105191637/eclipse/workspace/xmc4800-CE/Dave/Generated/FREERTOS/portable/GCC\portmacro.h ****     #define portTASK_FUNCTION_PROTO( vFunction, pvParameters )    void vFunction( void * pvParamete
 113:C:/Infineon/Tools/DAVE IDE/4.5.0.202105191637/eclipse/workspace/xmc4800-CE/Dave/Generated/FREERTOS/portable/GCC\portmacro.h ****     #define portTASK_FUNCTION( vFunction, pvParameters )          void vFunction( void * pvParamete
 114:C:/Infineon/Tools/DAVE IDE/4.5.0.202105191637/eclipse/workspace/xmc4800-CE/Dave/Generated/FREERTOS/portable/GCC\portmacro.h **** /*-----------------------------------------------------------*/
 115:C:/Infineon/Tools/DAVE IDE/4.5.0.202105191637/eclipse/workspace/xmc4800-CE/Dave/Generated/FREERTOS/portable/GCC\portmacro.h **** 
 116:C:/Infineon/Tools/DAVE IDE/4.5.0.202105191637/eclipse/workspace/xmc4800-CE/Dave/Generated/FREERTOS/portable/GCC\portmacro.h **** /* Tickless idle/low power functionality. */
 117:C:/Infineon/Tools/DAVE IDE/4.5.0.202105191637/eclipse/workspace/xmc4800-CE/Dave/Generated/FREERTOS/portable/GCC\portmacro.h ****     #ifndef portSUPPRESS_TICKS_AND_SLEEP
 118:C:/Infineon/Tools/DAVE IDE/4.5.0.202105191637/eclipse/workspace/xmc4800-CE/Dave/Generated/FREERTOS/portable/GCC\portmacro.h ****         extern void vPortSuppressTicksAndSleep( TickType_t xExpectedIdleTime );
 119:C:/Infineon/Tools/DAVE IDE/4.5.0.202105191637/eclipse/workspace/xmc4800-CE/Dave/Generated/FREERTOS/portable/GCC\portmacro.h ****         #define portSUPPRESS_TICKS_AND_SLEEP( xExpectedIdleTime )    vPortSuppressTicksAndSleep( xE
 120:C:/Infineon/Tools/DAVE IDE/4.5.0.202105191637/eclipse/workspace/xmc4800-CE/Dave/Generated/FREERTOS/portable/GCC\portmacro.h ****     #endif
 121:C:/Infineon/Tools/DAVE IDE/4.5.0.202105191637/eclipse/workspace/xmc4800-CE/Dave/Generated/FREERTOS/portable/GCC\portmacro.h **** /*-----------------------------------------------------------*/
 122:C:/Infineon/Tools/DAVE IDE/4.5.0.202105191637/eclipse/workspace/xmc4800-CE/Dave/Generated/FREERTOS/portable/GCC\portmacro.h **** 
 123:C:/Infineon/Tools/DAVE IDE/4.5.0.202105191637/eclipse/workspace/xmc4800-CE/Dave/Generated/FREERTOS/portable/GCC\portmacro.h **** /* Architecture specific optimisations. */
 124:C:/Infineon/Tools/DAVE IDE/4.5.0.202105191637/eclipse/workspace/xmc4800-CE/Dave/Generated/FREERTOS/portable/GCC\portmacro.h ****     #ifndef configUSE_PORT_OPTIMISED_TASK_SELECTION
 125:C:/Infineon/Tools/DAVE IDE/4.5.0.202105191637/eclipse/workspace/xmc4800-CE/Dave/Generated/FREERTOS/portable/GCC\portmacro.h ****         #define configUSE_PORT_OPTIMISED_TASK_SELECTION    1
 126:C:/Infineon/Tools/DAVE IDE/4.5.0.202105191637/eclipse/workspace/xmc4800-CE/Dave/Generated/FREERTOS/portable/GCC\portmacro.h ****     #endif
 127:C:/Infineon/Tools/DAVE IDE/4.5.0.202105191637/eclipse/workspace/xmc4800-CE/Dave/Generated/FREERTOS/portable/GCC\portmacro.h **** 
 128:C:/Infineon/Tools/DAVE IDE/4.5.0.202105191637/eclipse/workspace/xmc4800-CE/Dave/Generated/FREERTOS/portable/GCC\portmacro.h ****     #if configUSE_PORT_OPTIMISED_TASK_SELECTION == 1
 129:C:/Infineon/Tools/DAVE IDE/4.5.0.202105191637/eclipse/workspace/xmc4800-CE/Dave/Generated/FREERTOS/portable/GCC\portmacro.h **** 
 130:C:/Infineon/Tools/DAVE IDE/4.5.0.202105191637/eclipse/workspace/xmc4800-CE/Dave/Generated/FREERTOS/portable/GCC\portmacro.h **** /* Generic helper function. */
 131:C:/Infineon/Tools/DAVE IDE/4.5.0.202105191637/eclipse/workspace/xmc4800-CE/Dave/Generated/FREERTOS/portable/GCC\portmacro.h ****         __attribute__( ( always_inline ) ) static inline uint8_t ucPortCountLeadingZeros( uint32_t 
 132:C:/Infineon/Tools/DAVE IDE/4.5.0.202105191637/eclipse/workspace/xmc4800-CE/Dave/Generated/FREERTOS/portable/GCC\portmacro.h ****         {
 133:C:/Infineon/Tools/DAVE IDE/4.5.0.202105191637/eclipse/workspace/xmc4800-CE/Dave/Generated/FREERTOS/portable/GCC\portmacro.h ****             uint8_t ucReturn;
 134:C:/Infineon/Tools/DAVE IDE/4.5.0.202105191637/eclipse/workspace/xmc4800-CE/Dave/Generated/FREERTOS/portable/GCC\portmacro.h **** 
 135:C:/Infineon/Tools/DAVE IDE/4.5.0.202105191637/eclipse/workspace/xmc4800-CE/Dave/Generated/FREERTOS/portable/GCC\portmacro.h ****             __asm volatile ( "clz %0, %1" : "=r" ( ucReturn ) : "r" ( ulBitmap ) : "memory" );
 136:C:/Infineon/Tools/DAVE IDE/4.5.0.202105191637/eclipse/workspace/xmc4800-CE/Dave/Generated/FREERTOS/portable/GCC\portmacro.h **** 
 137:C:/Infineon/Tools/DAVE IDE/4.5.0.202105191637/eclipse/workspace/xmc4800-CE/Dave/Generated/FREERTOS/portable/GCC\portmacro.h ****             return ucReturn;
 138:C:/Infineon/Tools/DAVE IDE/4.5.0.202105191637/eclipse/workspace/xmc4800-CE/Dave/Generated/FREERTOS/portable/GCC\portmacro.h ****         }
 139:C:/Infineon/Tools/DAVE IDE/4.5.0.202105191637/eclipse/workspace/xmc4800-CE/Dave/Generated/FREERTOS/portable/GCC\portmacro.h **** 
 140:C:/Infineon/Tools/DAVE IDE/4.5.0.202105191637/eclipse/workspace/xmc4800-CE/Dave/Generated/FREERTOS/portable/GCC\portmacro.h **** /* Check the configuration. */
 141:C:/Infineon/Tools/DAVE IDE/4.5.0.202105191637/eclipse/workspace/xmc4800-CE/Dave/Generated/FREERTOS/portable/GCC\portmacro.h ****         #if ( configMAX_PRIORITIES > 32 )
 142:C:/Infineon/Tools/DAVE IDE/4.5.0.202105191637/eclipse/workspace/xmc4800-CE/Dave/Generated/FREERTOS/portable/GCC\portmacro.h ****             #error configUSE_PORT_OPTIMISED_TASK_SELECTION can only be set to 1 when configMAX_PRIO
 143:C:/Infineon/Tools/DAVE IDE/4.5.0.202105191637/eclipse/workspace/xmc4800-CE/Dave/Generated/FREERTOS/portable/GCC\portmacro.h ****         #endif
 144:C:/Infineon/Tools/DAVE IDE/4.5.0.202105191637/eclipse/workspace/xmc4800-CE/Dave/Generated/FREERTOS/portable/GCC\portmacro.h **** 
 145:C:/Infineon/Tools/DAVE IDE/4.5.0.202105191637/eclipse/workspace/xmc4800-CE/Dave/Generated/FREERTOS/portable/GCC\portmacro.h **** /* Store/clear the ready priorities in a bit map. */
 146:C:/Infineon/Tools/DAVE IDE/4.5.0.202105191637/eclipse/workspace/xmc4800-CE/Dave/Generated/FREERTOS/portable/GCC\portmacro.h ****         #define portRECORD_READY_PRIORITY( uxPriority, uxReadyPriorities )    ( uxReadyPriorities )
 147:C:/Infineon/Tools/DAVE IDE/4.5.0.202105191637/eclipse/workspace/xmc4800-CE/Dave/Generated/FREERTOS/portable/GCC\portmacro.h ****         #define portRESET_READY_PRIORITY( uxPriority, uxReadyPriorities )     ( uxReadyPriorities )
 148:C:/Infineon/Tools/DAVE IDE/4.5.0.202105191637/eclipse/workspace/xmc4800-CE/Dave/Generated/FREERTOS/portable/GCC\portmacro.h **** 
 149:C:/Infineon/Tools/DAVE IDE/4.5.0.202105191637/eclipse/workspace/xmc4800-CE/Dave/Generated/FREERTOS/portable/GCC\portmacro.h **** /*-----------------------------------------------------------*/
 150:C:/Infineon/Tools/DAVE IDE/4.5.0.202105191637/eclipse/workspace/xmc4800-CE/Dave/Generated/FREERTOS/portable/GCC\portmacro.h **** 
 151:C:/Infineon/Tools/DAVE IDE/4.5.0.202105191637/eclipse/workspace/xmc4800-CE/Dave/Generated/FREERTOS/portable/GCC\portmacro.h ****         #define portGET_HIGHEST_PRIORITY( uxTopPriority, uxReadyPriorities )    uxTopPriority = ( 3
 152:C:/Infineon/Tools/DAVE IDE/4.5.0.202105191637/eclipse/workspace/xmc4800-CE/Dave/Generated/FREERTOS/portable/GCC\portmacro.h **** 
 153:C:/Infineon/Tools/DAVE IDE/4.5.0.202105191637/eclipse/workspace/xmc4800-CE/Dave/Generated/FREERTOS/portable/GCC\portmacro.h ****     #endif /* configUSE_PORT_OPTIMISED_TASK_SELECTION */
 154:C:/Infineon/Tools/DAVE IDE/4.5.0.202105191637/eclipse/workspace/xmc4800-CE/Dave/Generated/FREERTOS/portable/GCC\portmacro.h **** 
 155:C:/Infineon/Tools/DAVE IDE/4.5.0.202105191637/eclipse/workspace/xmc4800-CE/Dave/Generated/FREERTOS/portable/GCC\portmacro.h **** /*-----------------------------------------------------------*/
 156:C:/Infineon/Tools/DAVE IDE/4.5.0.202105191637/eclipse/workspace/xmc4800-CE/Dave/Generated/FREERTOS/portable/GCC\portmacro.h **** 
 157:C:/Infineon/Tools/DAVE IDE/4.5.0.202105191637/eclipse/workspace/xmc4800-CE/Dave/Generated/FREERTOS/portable/GCC\portmacro.h ****     #ifdef configASSERT
 158:C:/Infineon/Tools/DAVE IDE/4.5.0.202105191637/eclipse/workspace/xmc4800-CE/Dave/Generated/FREERTOS/portable/GCC\portmacro.h ****         void vPortValidateInterruptPriority( void );
 159:C:/Infineon/Tools/DAVE IDE/4.5.0.202105191637/eclipse/workspace/xmc4800-CE/Dave/Generated/FREERTOS/portable/GCC\portmacro.h ****         #define portASSERT_IF_INTERRUPT_PRIORITY_INVALID()    vPortValidateInterruptPriority()
 160:C:/Infineon/Tools/DAVE IDE/4.5.0.202105191637/eclipse/workspace/xmc4800-CE/Dave/Generated/FREERTOS/portable/GCC\portmacro.h ****     #endif
 161:C:/Infineon/Tools/DAVE IDE/4.5.0.202105191637/eclipse/workspace/xmc4800-CE/Dave/Generated/FREERTOS/portable/GCC\portmacro.h **** 
 162:C:/Infineon/Tools/DAVE IDE/4.5.0.202105191637/eclipse/workspace/xmc4800-CE/Dave/Generated/FREERTOS/portable/GCC\portmacro.h **** /* portNOP() is not required by this port. */
 163:C:/Infineon/Tools/DAVE IDE/4.5.0.202105191637/eclipse/workspace/xmc4800-CE/Dave/Generated/FREERTOS/portable/GCC\portmacro.h ****     #define portNOP()
 164:C:/Infineon/Tools/DAVE IDE/4.5.0.202105191637/eclipse/workspace/xmc4800-CE/Dave/Generated/FREERTOS/portable/GCC\portmacro.h **** 
 165:C:/Infineon/Tools/DAVE IDE/4.5.0.202105191637/eclipse/workspace/xmc4800-CE/Dave/Generated/FREERTOS/portable/GCC\portmacro.h ****     #define portINLINE              __inline
 166:C:/Infineon/Tools/DAVE IDE/4.5.0.202105191637/eclipse/workspace/xmc4800-CE/Dave/Generated/FREERTOS/portable/GCC\portmacro.h **** 
 167:C:/Infineon/Tools/DAVE IDE/4.5.0.202105191637/eclipse/workspace/xmc4800-CE/Dave/Generated/FREERTOS/portable/GCC\portmacro.h ****     #ifndef portFORCE_INLINE
 168:C:/Infineon/Tools/DAVE IDE/4.5.0.202105191637/eclipse/workspace/xmc4800-CE/Dave/Generated/FREERTOS/portable/GCC\portmacro.h ****         #define portFORCE_INLINE    inline __attribute__( ( always_inline ) )
 169:C:/Infineon/Tools/DAVE IDE/4.5.0.202105191637/eclipse/workspace/xmc4800-CE/Dave/Generated/FREERTOS/portable/GCC\portmacro.h ****     #endif
 170:C:/Infineon/Tools/DAVE IDE/4.5.0.202105191637/eclipse/workspace/xmc4800-CE/Dave/Generated/FREERTOS/portable/GCC\portmacro.h **** 
 171:C:/Infineon/Tools/DAVE IDE/4.5.0.202105191637/eclipse/workspace/xmc4800-CE/Dave/Generated/FREERTOS/portable/GCC\portmacro.h ****     portFORCE_INLINE static BaseType_t xPortIsInsideInterrupt( void )
 172:C:/Infineon/Tools/DAVE IDE/4.5.0.202105191637/eclipse/workspace/xmc4800-CE/Dave/Generated/FREERTOS/portable/GCC\portmacro.h ****     {
 173:C:/Infineon/Tools/DAVE IDE/4.5.0.202105191637/eclipse/workspace/xmc4800-CE/Dave/Generated/FREERTOS/portable/GCC\portmacro.h ****         uint32_t ulCurrentInterrupt;
 174:C:/Infineon/Tools/DAVE IDE/4.5.0.202105191637/eclipse/workspace/xmc4800-CE/Dave/Generated/FREERTOS/portable/GCC\portmacro.h ****         BaseType_t xReturn;
 175:C:/Infineon/Tools/DAVE IDE/4.5.0.202105191637/eclipse/workspace/xmc4800-CE/Dave/Generated/FREERTOS/portable/GCC\portmacro.h **** 
 176:C:/Infineon/Tools/DAVE IDE/4.5.0.202105191637/eclipse/workspace/xmc4800-CE/Dave/Generated/FREERTOS/portable/GCC\portmacro.h ****         /* Obtain the number of the currently executing interrupt. */
 177:C:/Infineon/Tools/DAVE IDE/4.5.0.202105191637/eclipse/workspace/xmc4800-CE/Dave/Generated/FREERTOS/portable/GCC\portmacro.h ****         __asm volatile ( "mrs %0, ipsr" : "=r" ( ulCurrentInterrupt )::"memory" );
 178:C:/Infineon/Tools/DAVE IDE/4.5.0.202105191637/eclipse/workspace/xmc4800-CE/Dave/Generated/FREERTOS/portable/GCC\portmacro.h **** 
 179:C:/Infineon/Tools/DAVE IDE/4.5.0.202105191637/eclipse/workspace/xmc4800-CE/Dave/Generated/FREERTOS/portable/GCC\portmacro.h ****         if( ulCurrentInterrupt == 0 )
 180:C:/Infineon/Tools/DAVE IDE/4.5.0.202105191637/eclipse/workspace/xmc4800-CE/Dave/Generated/FREERTOS/portable/GCC\portmacro.h ****         {
 181:C:/Infineon/Tools/DAVE IDE/4.5.0.202105191637/eclipse/workspace/xmc4800-CE/Dave/Generated/FREERTOS/portable/GCC\portmacro.h ****             xReturn = pdFALSE;
 182:C:/Infineon/Tools/DAVE IDE/4.5.0.202105191637/eclipse/workspace/xmc4800-CE/Dave/Generated/FREERTOS/portable/GCC\portmacro.h ****         }
 183:C:/Infineon/Tools/DAVE IDE/4.5.0.202105191637/eclipse/workspace/xmc4800-CE/Dave/Generated/FREERTOS/portable/GCC\portmacro.h ****         else
 184:C:/Infineon/Tools/DAVE IDE/4.5.0.202105191637/eclipse/workspace/xmc4800-CE/Dave/Generated/FREERTOS/portable/GCC\portmacro.h ****         {
 185:C:/Infineon/Tools/DAVE IDE/4.5.0.202105191637/eclipse/workspace/xmc4800-CE/Dave/Generated/FREERTOS/portable/GCC\portmacro.h ****             xReturn = pdTRUE;
 186:C:/Infineon/Tools/DAVE IDE/4.5.0.202105191637/eclipse/workspace/xmc4800-CE/Dave/Generated/FREERTOS/portable/GCC\portmacro.h ****         }
 187:C:/Infineon/Tools/DAVE IDE/4.5.0.202105191637/eclipse/workspace/xmc4800-CE/Dave/Generated/FREERTOS/portable/GCC\portmacro.h **** 
 188:C:/Infineon/Tools/DAVE IDE/4.5.0.202105191637/eclipse/workspace/xmc4800-CE/Dave/Generated/FREERTOS/portable/GCC\portmacro.h ****         return xReturn;
 189:C:/Infineon/Tools/DAVE IDE/4.5.0.202105191637/eclipse/workspace/xmc4800-CE/Dave/Generated/FREERTOS/portable/GCC\portmacro.h ****     }
 190:C:/Infineon/Tools/DAVE IDE/4.5.0.202105191637/eclipse/workspace/xmc4800-CE/Dave/Generated/FREERTOS/portable/GCC\portmacro.h **** 
 191:C:/Infineon/Tools/DAVE IDE/4.5.0.202105191637/eclipse/workspace/xmc4800-CE/Dave/Generated/FREERTOS/portable/GCC\portmacro.h **** /*-----------------------------------------------------------*/
 192:C:/Infineon/Tools/DAVE IDE/4.5.0.202105191637/eclipse/workspace/xmc4800-CE/Dave/Generated/FREERTOS/portable/GCC\portmacro.h **** 
 193:C:/Infineon/Tools/DAVE IDE/4.5.0.202105191637/eclipse/workspace/xmc4800-CE/Dave/Generated/FREERTOS/portable/GCC\portmacro.h ****     portFORCE_INLINE static void vPortRaiseBASEPRI( void )
 194:C:/Infineon/Tools/DAVE IDE/4.5.0.202105191637/eclipse/workspace/xmc4800-CE/Dave/Generated/FREERTOS/portable/GCC\portmacro.h ****     {
 195:C:/Infineon/Tools/DAVE IDE/4.5.0.202105191637/eclipse/workspace/xmc4800-CE/Dave/Generated/FREERTOS/portable/GCC\portmacro.h ****         uint32_t ulNewBASEPRI;
 196:C:/Infineon/Tools/DAVE IDE/4.5.0.202105191637/eclipse/workspace/xmc4800-CE/Dave/Generated/FREERTOS/portable/GCC\portmacro.h **** 
 197:C:/Infineon/Tools/DAVE IDE/4.5.0.202105191637/eclipse/workspace/xmc4800-CE/Dave/Generated/FREERTOS/portable/GCC\portmacro.h ****         __asm volatile
  56              	 .loc 2 197 0 discriminator 1
  57              	
  58 0014 4FF0FC03 	 mov r3,#252
  59 0018 83F31188 	 msr basepri,r3
  60 001c BFF36F8F 	 isb 
  61 0020 BFF34F8F 	 dsb 
  62              	
  63              	
  64              	 .thumb
  65 0024 BB60     	 str r3,[r7,#8]
  66              	.L3:
  67              	.LBE137:
  68              	.LBE136:
  69              	 .loc 1 269 0 discriminator 1
  70 0026 FEE7     	 b .L3
  71              	.L2:
 270:../Dave/Generated/FREERTOS/queue.c **** 
 271:../Dave/Generated/FREERTOS/queue.c ****     taskENTER_CRITICAL();
  72              	 .loc 1 271 0
  73 0028 FFF7FEFF 	 bl vPortEnterCritical
 272:../Dave/Generated/FREERTOS/queue.c ****     {
 273:../Dave/Generated/FREERTOS/queue.c ****         pxQueue->u.xQueue.pcTail = pxQueue->pcHead + ( pxQueue->uxLength * pxQueue->uxItemSize ); /
  74              	 .loc 1 273 0
  75 002c FB68     	 ldr r3,[r7,#12]
  76 002e 1A68     	 ldr r2,[r3]
  77 0030 FB68     	 ldr r3,[r7,#12]
  78 0032 DB6B     	 ldr r3,[r3,#60]
  79 0034 F968     	 ldr r1,[r7,#12]
  80 0036 096C     	 ldr r1,[r1,#64]
  81 0038 01FB03F3 	 mul r3,r1,r3
  82 003c 1A44     	 add r2,r2,r3
  83 003e FB68     	 ldr r3,[r7,#12]
  84 0040 9A60     	 str r2,[r3,#8]
 274:../Dave/Generated/FREERTOS/queue.c ****         pxQueue->uxMessagesWaiting = ( UBaseType_t ) 0U;
  85              	 .loc 1 274 0
  86 0042 FB68     	 ldr r3,[r7,#12]
  87 0044 0022     	 movs r2,#0
  88 0046 9A63     	 str r2,[r3,#56]
 275:../Dave/Generated/FREERTOS/queue.c ****         pxQueue->pcWriteTo = pxQueue->pcHead;
  89              	 .loc 1 275 0
  90 0048 FB68     	 ldr r3,[r7,#12]
  91 004a 1A68     	 ldr r2,[r3]
  92 004c FB68     	 ldr r3,[r7,#12]
  93 004e 5A60     	 str r2,[r3,#4]
 276:../Dave/Generated/FREERTOS/queue.c ****         pxQueue->u.xQueue.pcReadFrom = pxQueue->pcHead + ( ( pxQueue->uxLength - 1U ) * pxQueue->ux
  94              	 .loc 1 276 0
  95 0050 FB68     	 ldr r3,[r7,#12]
  96 0052 1A68     	 ldr r2,[r3]
  97 0054 FB68     	 ldr r3,[r7,#12]
  98 0056 DB6B     	 ldr r3,[r3,#60]
  99 0058 013B     	 subs r3,r3,#1
 100 005a F968     	 ldr r1,[r7,#12]
 101 005c 096C     	 ldr r1,[r1,#64]
 102 005e 01FB03F3 	 mul r3,r1,r3
 103 0062 1A44     	 add r2,r2,r3
 104 0064 FB68     	 ldr r3,[r7,#12]
 105 0066 DA60     	 str r2,[r3,#12]
 277:../Dave/Generated/FREERTOS/queue.c ****         pxQueue->cRxLock = queueUNLOCKED;
 106              	 .loc 1 277 0
 107 0068 FB68     	 ldr r3,[r7,#12]
 108 006a FF22     	 movs r2,#255
 109 006c 83F84420 	 strb r2,[r3,#68]
 278:../Dave/Generated/FREERTOS/queue.c ****         pxQueue->cTxLock = queueUNLOCKED;
 110              	 .loc 1 278 0
 111 0070 FB68     	 ldr r3,[r7,#12]
 112 0072 FF22     	 movs r2,#255
 113 0074 83F84520 	 strb r2,[r3,#69]
 279:../Dave/Generated/FREERTOS/queue.c **** 
 280:../Dave/Generated/FREERTOS/queue.c ****         if( xNewQueue == pdFALSE )
 114              	 .loc 1 280 0
 115 0078 3B68     	 ldr r3,[r7]
 116 007a 002B     	 cmp r3,#0
 117 007c 14D1     	 bne .L4
 281:../Dave/Generated/FREERTOS/queue.c ****         {
 282:../Dave/Generated/FREERTOS/queue.c ****             /* If there are tasks blocked waiting to read from the queue, then
 283:../Dave/Generated/FREERTOS/queue.c ****              * the tasks will remain blocked as after this function exits the queue
 284:../Dave/Generated/FREERTOS/queue.c ****              * will still be empty.  If there are tasks blocked waiting to write to
 285:../Dave/Generated/FREERTOS/queue.c ****              * the queue, then one should be unblocked as after this function exits
 286:../Dave/Generated/FREERTOS/queue.c ****              * it will be possible to write to it. */
 287:../Dave/Generated/FREERTOS/queue.c ****             if( listLIST_IS_EMPTY( &( pxQueue->xTasksWaitingToSend ) ) == pdFALSE )
 118              	 .loc 1 287 0
 119 007e FB68     	 ldr r3,[r7,#12]
 120 0080 1B69     	 ldr r3,[r3,#16]
 121 0082 002B     	 cmp r3,#0
 122 0084 1AD0     	 beq .L5
 288:../Dave/Generated/FREERTOS/queue.c ****             {
 289:../Dave/Generated/FREERTOS/queue.c ****                 if( xTaskRemoveFromEventList( &( pxQueue->xTasksWaitingToSend ) ) != pdFALSE )
 123              	 .loc 1 289 0
 124 0086 FB68     	 ldr r3,[r7,#12]
 125 0088 1033     	 adds r3,r3,#16
 126 008a 1846     	 mov r0,r3
 127 008c FFF7FEFF 	 bl xTaskRemoveFromEventList
 128 0090 0346     	 mov r3,r0
 129 0092 002B     	 cmp r3,#0
 130 0094 12D0     	 beq .L5
 290:../Dave/Generated/FREERTOS/queue.c ****                 {
 291:../Dave/Generated/FREERTOS/queue.c ****                     queueYIELD_IF_USING_PREEMPTION();
 131              	 .loc 1 291 0
 132 0096 0D4B     	 ldr r3,.L7
 133 0098 4FF08052 	 mov r2,#268435456
 134 009c 1A60     	 str r2,[r3]
 135              	
 136 009e BFF34F8F 	 dsb
 137              	
 138              	
 139 00a2 BFF36F8F 	 isb
 140              	
 141              	 .thumb
 142 00a6 09E0     	 b .L5
 143              	.L4:
 292:../Dave/Generated/FREERTOS/queue.c ****                 }
 293:../Dave/Generated/FREERTOS/queue.c ****                 else
 294:../Dave/Generated/FREERTOS/queue.c ****                 {
 295:../Dave/Generated/FREERTOS/queue.c ****                     mtCOVERAGE_TEST_MARKER();
 296:../Dave/Generated/FREERTOS/queue.c ****                 }
 297:../Dave/Generated/FREERTOS/queue.c ****             }
 298:../Dave/Generated/FREERTOS/queue.c ****             else
 299:../Dave/Generated/FREERTOS/queue.c ****             {
 300:../Dave/Generated/FREERTOS/queue.c ****                 mtCOVERAGE_TEST_MARKER();
 301:../Dave/Generated/FREERTOS/queue.c ****             }
 302:../Dave/Generated/FREERTOS/queue.c ****         }
 303:../Dave/Generated/FREERTOS/queue.c ****         else
 304:../Dave/Generated/FREERTOS/queue.c ****         {
 305:../Dave/Generated/FREERTOS/queue.c ****             /* Ensure the event queues start in the correct state. */
 306:../Dave/Generated/FREERTOS/queue.c ****             vListInitialise( &( pxQueue->xTasksWaitingToSend ) );
 144              	 .loc 1 306 0
 145 00a8 FB68     	 ldr r3,[r7,#12]
 146 00aa 1033     	 adds r3,r3,#16
 147 00ac 1846     	 mov r0,r3
 148 00ae FFF7FEFF 	 bl vListInitialise
 307:../Dave/Generated/FREERTOS/queue.c ****             vListInitialise( &( pxQueue->xTasksWaitingToReceive ) );
 149              	 .loc 1 307 0
 150 00b2 FB68     	 ldr r3,[r7,#12]
 151 00b4 2433     	 adds r3,r3,#36
 152 00b6 1846     	 mov r0,r3
 153 00b8 FFF7FEFF 	 bl vListInitialise
 154              	.L5:
 308:../Dave/Generated/FREERTOS/queue.c ****         }
 309:../Dave/Generated/FREERTOS/queue.c ****     }
 310:../Dave/Generated/FREERTOS/queue.c ****     taskEXIT_CRITICAL();
 155              	 .loc 1 310 0
 156 00bc FFF7FEFF 	 bl vPortExitCritical
 311:../Dave/Generated/FREERTOS/queue.c **** 
 312:../Dave/Generated/FREERTOS/queue.c ****     /* A value is returned for calling semantic consistency with previous
 313:../Dave/Generated/FREERTOS/queue.c ****      * versions. */
 314:../Dave/Generated/FREERTOS/queue.c ****     return pdPASS;
 157              	 .loc 1 314 0
 158 00c0 0123     	 movs r3,#1
 315:../Dave/Generated/FREERTOS/queue.c **** }
 159              	 .loc 1 315 0
 160 00c2 1846     	 mov r0,r3
 161 00c4 1037     	 adds r7,r7,#16
 162              	.LCFI3:
 163              	 .cfi_def_cfa_offset 8
 164 00c6 BD46     	 mov sp,r7
 165              	.LCFI4:
 166              	 .cfi_def_cfa_register 13
 167              	 
 168 00c8 80BD     	 pop {r7,pc}
 169              	.L8:
 170 00ca 00BF     	 .align 2
 171              	.L7:
 172 00cc 04ED00E0 	 .word -536810236
 173              	 .cfi_endproc
 174              	.LFE137:
 176              	 .section .text.xQueueGenericCreateStatic,"ax",%progbits
 177              	 .align 2
 178              	 .global xQueueGenericCreateStatic
 179              	 .thumb
 180              	 .thumb_func
 182              	xQueueGenericCreateStatic:
 183              	.LFB138:
 316:../Dave/Generated/FREERTOS/queue.c **** /*-----------------------------------------------------------*/
 317:../Dave/Generated/FREERTOS/queue.c **** 
 318:../Dave/Generated/FREERTOS/queue.c **** #if ( configSUPPORT_STATIC_ALLOCATION == 1 )
 319:../Dave/Generated/FREERTOS/queue.c **** 
 320:../Dave/Generated/FREERTOS/queue.c ****     QueueHandle_t xQueueGenericCreateStatic( const UBaseType_t uxQueueLength,
 321:../Dave/Generated/FREERTOS/queue.c ****                                              const UBaseType_t uxItemSize,
 322:../Dave/Generated/FREERTOS/queue.c ****                                              uint8_t * pucQueueStorage,
 323:../Dave/Generated/FREERTOS/queue.c ****                                              StaticQueue_t * pxStaticQueue,
 324:../Dave/Generated/FREERTOS/queue.c ****                                              const uint8_t ucQueueType )
 325:../Dave/Generated/FREERTOS/queue.c ****     {
 184              	 .loc 1 325 0
 185              	 .cfi_startproc
 186              	 
 187              	 
 188 0000 90B5     	 push {r4,r7,lr}
 189              	.LCFI5:
 190              	 .cfi_def_cfa_offset 12
 191              	 .cfi_offset 4,-12
 192              	 .cfi_offset 7,-8
 193              	 .cfi_offset 14,-4
 194 0002 8FB0     	 sub sp,sp,#60
 195              	.LCFI6:
 196              	 .cfi_def_cfa_offset 72
 197 0004 02AF     	 add r7,sp,#8
 198              	.LCFI7:
 199              	 .cfi_def_cfa 7,64
 200 0006 F860     	 str r0,[r7,#12]
 201 0008 B960     	 str r1,[r7,#8]
 202 000a 7A60     	 str r2,[r7,#4]
 203 000c 3B60     	 str r3,[r7]
 326:../Dave/Generated/FREERTOS/queue.c ****         Queue_t * pxNewQueue;
 327:../Dave/Generated/FREERTOS/queue.c **** 
 328:../Dave/Generated/FREERTOS/queue.c ****         configASSERT( uxQueueLength > ( UBaseType_t ) 0 );
 204              	 .loc 1 328 0
 205 000e FB68     	 ldr r3,[r7,#12]
 206 0010 002B     	 cmp r3,#0
 207 0012 09D1     	 bne .L10
 208              	.LBB138:
 209              	.LBB139:
 210              	 .loc 2 197 0 discriminator 1
 211              	
 212 0014 4FF0FC03 	 mov r3,#252
 213 0018 83F31188 	 msr basepri,r3
 214 001c BFF36F8F 	 isb 
 215 0020 BFF34F8F 	 dsb 
 216              	
 217              	
 218              	 .thumb
 219 0024 BB62     	 str r3,[r7,#40]
 220              	.L11:
 221              	.LBE139:
 222              	.LBE138:
 223              	 .loc 1 328 0 discriminator 1
 224 0026 FEE7     	 b .L11
 225              	.L10:
 329:../Dave/Generated/FREERTOS/queue.c **** 
 330:../Dave/Generated/FREERTOS/queue.c ****         /* The StaticQueue_t structure and the queue storage area must be
 331:../Dave/Generated/FREERTOS/queue.c ****          * supplied. */
 332:../Dave/Generated/FREERTOS/queue.c ****         configASSERT( pxStaticQueue != NULL );
 226              	 .loc 1 332 0
 227 0028 3B68     	 ldr r3,[r7]
 228 002a 002B     	 cmp r3,#0
 229 002c 09D1     	 bne .L12
 230              	.LBB140:
 231              	.LBB141:
 232              	 .loc 2 197 0 discriminator 1
 233              	
 234 002e 4FF0FC03 	 mov r3,#252
 235 0032 83F31188 	 msr basepri,r3
 236 0036 BFF36F8F 	 isb 
 237 003a BFF34F8F 	 dsb 
 238              	
 239              	
 240              	 .thumb
 241 003e 7B62     	 str r3,[r7,#36]
 242              	.L13:
 243              	.LBE141:
 244              	.LBE140:
 245              	 .loc 1 332 0 discriminator 2
 246 0040 FEE7     	 b .L13
 247              	.L12:
 333:../Dave/Generated/FREERTOS/queue.c **** 
 334:../Dave/Generated/FREERTOS/queue.c ****         /* A queue storage area should be provided if the item size is not 0, and
 335:../Dave/Generated/FREERTOS/queue.c ****          * should not be provided if the item size is 0. */
 336:../Dave/Generated/FREERTOS/queue.c ****         configASSERT( !( ( pucQueueStorage != NULL ) && ( uxItemSize == 0 ) ) );
 248              	 .loc 1 336 0
 249 0042 7B68     	 ldr r3,[r7,#4]
 250 0044 002B     	 cmp r3,#0
 251 0046 02D0     	 beq .L14
 252              	 .loc 1 336 0 is_stmt 0 discriminator 2
 253 0048 BB68     	 ldr r3,[r7,#8]
 254 004a 002B     	 cmp r3,#0
 255 004c 01D0     	 beq .L15
 256              	.L14:
 257              	 .loc 1 336 0 discriminator 3
 258 004e 0123     	 movs r3,#1
 259 0050 00E0     	 b .L16
 260              	.L15:
 261              	 .loc 1 336 0 discriminator 4
 262 0052 0023     	 movs r3,#0
 263              	.L16:
 264              	 .loc 1 336 0 discriminator 6
 265 0054 002B     	 cmp r3,#0
 266 0056 09D1     	 bne .L17
 267              	.LBB142:
 268              	.LBB143:
 269              	 .loc 2 197 0 is_stmt 1 discriminator 7
 270              	
 271 0058 4FF0FC03 	 mov r3,#252
 272 005c 83F31188 	 msr basepri,r3
 273 0060 BFF36F8F 	 isb 
 274 0064 BFF34F8F 	 dsb 
 275              	
 276              	
 277              	 .thumb
 278 0068 3B62     	 str r3,[r7,#32]
 279              	.L18:
 280              	.LBE143:
 281              	.LBE142:
 282              	 .loc 1 336 0 discriminator 3
 283 006a FEE7     	 b .L18
 284              	.L17:
 337:../Dave/Generated/FREERTOS/queue.c ****         configASSERT( !( ( pucQueueStorage == NULL ) && ( uxItemSize != 0 ) ) );
 285              	 .loc 1 337 0
 286 006c 7B68     	 ldr r3,[r7,#4]
 287 006e 002B     	 cmp r3,#0
 288 0070 02D1     	 bne .L19
 289              	 .loc 1 337 0 is_stmt 0 discriminator 2
 290 0072 BB68     	 ldr r3,[r7,#8]
 291 0074 002B     	 cmp r3,#0
 292 0076 01D1     	 bne .L20
 293              	.L19:
 294              	 .loc 1 337 0 discriminator 3
 295 0078 0123     	 movs r3,#1
 296 007a 00E0     	 b .L21
 297              	.L20:
 298              	 .loc 1 337 0 discriminator 4
 299 007c 0023     	 movs r3,#0
 300              	.L21:
 301              	 .loc 1 337 0 discriminator 6
 302 007e 002B     	 cmp r3,#0
 303 0080 09D1     	 bne .L22
 304              	.LBB144:
 305              	.LBB145:
 306              	 .loc 2 197 0 is_stmt 1 discriminator 7
 307              	
 308 0082 4FF0FC03 	 mov r3,#252
 309 0086 83F31188 	 msr basepri,r3
 310 008a BFF36F8F 	 isb 
 311 008e BFF34F8F 	 dsb 
 312              	
 313              	
 314              	 .thumb
 315 0092 FB61     	 str r3,[r7,#28]
 316              	.L23:
 317              	.LBE145:
 318              	.LBE144:
 319              	 .loc 1 337 0 discriminator 4
 320 0094 FEE7     	 b .L23
 321              	.L22:
 322              	.LBB146:
 338:../Dave/Generated/FREERTOS/queue.c **** 
 339:../Dave/Generated/FREERTOS/queue.c ****         #if ( configASSERT_DEFINED == 1 )
 340:../Dave/Generated/FREERTOS/queue.c ****             {
 341:../Dave/Generated/FREERTOS/queue.c ****                 /* Sanity check that the size of the structure used to declare a
 342:../Dave/Generated/FREERTOS/queue.c ****                  * variable of type StaticQueue_t or StaticSemaphore_t equals the size of
 343:../Dave/Generated/FREERTOS/queue.c ****                  * the real queue and semaphore structures. */
 344:../Dave/Generated/FREERTOS/queue.c ****                 volatile size_t xSize = sizeof( StaticQueue_t );
 323              	 .loc 1 344 0
 324 0096 5423     	 movs r3,#84
 325 0098 7B61     	 str r3,[r7,#20]
 345:../Dave/Generated/FREERTOS/queue.c ****                 configASSERT( xSize == sizeof( Queue_t ) );
 326              	 .loc 1 345 0
 327 009a 7B69     	 ldr r3,[r7,#20]
 328 009c 542B     	 cmp r3,#84
 329 009e 09D0     	 beq .L24
 330              	.LBB147:
 331              	.LBB148:
 332              	 .loc 2 197 0 discriminator 1
 333              	
 334 00a0 4FF0FC03 	 mov r3,#252
 335 00a4 83F31188 	 msr basepri,r3
 336 00a8 BFF36F8F 	 isb 
 337 00ac BFF34F8F 	 dsb 
 338              	
 339              	
 340              	 .thumb
 341 00b0 BB61     	 str r3,[r7,#24]
 342              	.L25:
 343              	.LBE148:
 344              	.LBE147:
 345              	 .loc 1 345 0 discriminator 5
 346 00b2 FEE7     	 b .L25
 347              	.L24:
 346:../Dave/Generated/FREERTOS/queue.c ****                 ( void ) xSize; /* Keeps lint quiet when configASSERT() is not defined. */
 348              	 .loc 1 346 0
 349 00b4 7B69     	 ldr r3,[r7,#20]
 350              	.LBE146:
 347:../Dave/Generated/FREERTOS/queue.c ****             }
 348:../Dave/Generated/FREERTOS/queue.c ****         #endif /* configASSERT_DEFINED */
 349:../Dave/Generated/FREERTOS/queue.c **** 
 350:../Dave/Generated/FREERTOS/queue.c ****         /* The address of a statically allocated queue was passed in, use it.
 351:../Dave/Generated/FREERTOS/queue.c ****          * The address of a statically allocated storage area was also passed in
 352:../Dave/Generated/FREERTOS/queue.c ****          * but is already set. */
 353:../Dave/Generated/FREERTOS/queue.c ****         pxNewQueue = ( Queue_t * ) pxStaticQueue; /*lint !e740 !e9087 Unusual cast is ok as the str
 351              	 .loc 1 353 0
 352 00b6 3B68     	 ldr r3,[r7]
 353 00b8 FB62     	 str r3,[r7,#44]
 354:../Dave/Generated/FREERTOS/queue.c **** 
 355:../Dave/Generated/FREERTOS/queue.c ****         if( pxNewQueue != NULL )
 354              	 .loc 1 355 0
 355 00ba FB6A     	 ldr r3,[r7,#44]
 356 00bc 002B     	 cmp r3,#0
 357 00be 0DD0     	 beq .L26
 356:../Dave/Generated/FREERTOS/queue.c ****         {
 357:../Dave/Generated/FREERTOS/queue.c ****             #if ( configSUPPORT_DYNAMIC_ALLOCATION == 1 )
 358:../Dave/Generated/FREERTOS/queue.c ****                 {
 359:../Dave/Generated/FREERTOS/queue.c ****                     /* Queues can be allocated wither statically or dynamically, so
 360:../Dave/Generated/FREERTOS/queue.c ****                      * note this queue was allocated statically in case the queue is
 361:../Dave/Generated/FREERTOS/queue.c ****                      * later deleted. */
 362:../Dave/Generated/FREERTOS/queue.c ****                     pxNewQueue->ucStaticallyAllocated = pdTRUE;
 358              	 .loc 1 362 0
 359 00c0 FB6A     	 ldr r3,[r7,#44]
 360 00c2 0122     	 movs r2,#1
 361 00c4 83F84620 	 strb r2,[r3,#70]
 363:../Dave/Generated/FREERTOS/queue.c ****                 }
 364:../Dave/Generated/FREERTOS/queue.c ****             #endif /* configSUPPORT_DYNAMIC_ALLOCATION */
 365:../Dave/Generated/FREERTOS/queue.c **** 
 366:../Dave/Generated/FREERTOS/queue.c ****             prvInitialiseNewQueue( uxQueueLength, uxItemSize, pucQueueStorage, ucQueueType, pxNewQu
 362              	 .loc 1 366 0
 363 00c8 97F84040 	 ldrb r4,[r7,#64]
 364 00cc FB6A     	 ldr r3,[r7,#44]
 365 00ce 0093     	 str r3,[sp]
 366 00d0 F868     	 ldr r0,[r7,#12]
 367 00d2 B968     	 ldr r1,[r7,#8]
 368 00d4 7A68     	 ldr r2,[r7,#4]
 369 00d6 2346     	 mov r3,r4
 370 00d8 FFF7FEFF 	 bl prvInitialiseNewQueue
 371              	.L26:
 367:../Dave/Generated/FREERTOS/queue.c ****         }
 368:../Dave/Generated/FREERTOS/queue.c ****         else
 369:../Dave/Generated/FREERTOS/queue.c ****         {
 370:../Dave/Generated/FREERTOS/queue.c ****             traceQUEUE_CREATE_FAILED( ucQueueType );
 371:../Dave/Generated/FREERTOS/queue.c ****             mtCOVERAGE_TEST_MARKER();
 372:../Dave/Generated/FREERTOS/queue.c ****         }
 373:../Dave/Generated/FREERTOS/queue.c **** 
 374:../Dave/Generated/FREERTOS/queue.c ****         return pxNewQueue;
 372              	 .loc 1 374 0
 373 00dc FB6A     	 ldr r3,[r7,#44]
 375:../Dave/Generated/FREERTOS/queue.c ****     }
 374              	 .loc 1 375 0
 375 00de 1846     	 mov r0,r3
 376 00e0 3437     	 adds r7,r7,#52
 377              	.LCFI8:
 378              	 .cfi_def_cfa_offset 12
 379 00e2 BD46     	 mov sp,r7
 380              	.LCFI9:
 381              	 .cfi_def_cfa_register 13
 382              	 
 383 00e4 90BD     	 pop {r4,r7,pc}
 384              	 .cfi_endproc
 385              	.LFE138:
 387 00e6 00BF     	 .section .text.xQueueGenericCreate,"ax",%progbits
 388              	 .align 2
 389              	 .global xQueueGenericCreate
 390              	 .thumb
 391              	 .thumb_func
 393              	xQueueGenericCreate:
 394              	.LFB139:
 376:../Dave/Generated/FREERTOS/queue.c **** 
 377:../Dave/Generated/FREERTOS/queue.c **** #endif /* configSUPPORT_STATIC_ALLOCATION */
 378:../Dave/Generated/FREERTOS/queue.c **** /*-----------------------------------------------------------*/
 379:../Dave/Generated/FREERTOS/queue.c **** 
 380:../Dave/Generated/FREERTOS/queue.c **** #if ( configSUPPORT_DYNAMIC_ALLOCATION == 1 )
 381:../Dave/Generated/FREERTOS/queue.c **** 
 382:../Dave/Generated/FREERTOS/queue.c ****     QueueHandle_t xQueueGenericCreate( const UBaseType_t uxQueueLength,
 383:../Dave/Generated/FREERTOS/queue.c ****                                        const UBaseType_t uxItemSize,
 384:../Dave/Generated/FREERTOS/queue.c ****                                        const uint8_t ucQueueType )
 385:../Dave/Generated/FREERTOS/queue.c ****     {
 395              	 .loc 1 385 0
 396              	 .cfi_startproc
 397              	 
 398              	 
 399 0000 90B5     	 push {r4,r7,lr}
 400              	.LCFI10:
 401              	 .cfi_def_cfa_offset 12
 402              	 .cfi_offset 4,-12
 403              	 .cfi_offset 7,-8
 404              	 .cfi_offset 14,-4
 405 0002 8DB0     	 sub sp,sp,#52
 406              	.LCFI11:
 407              	 .cfi_def_cfa_offset 64
 408 0004 02AF     	 add r7,sp,#8
 409              	.LCFI12:
 410              	 .cfi_def_cfa 7,56
 411 0006 F860     	 str r0,[r7,#12]
 412 0008 B960     	 str r1,[r7,#8]
 413 000a 1346     	 mov r3,r2
 414 000c FB71     	 strb r3,[r7,#7]
 386:../Dave/Generated/FREERTOS/queue.c ****         Queue_t * pxNewQueue;
 387:../Dave/Generated/FREERTOS/queue.c ****         size_t xQueueSizeInBytes;
 388:../Dave/Generated/FREERTOS/queue.c ****         uint8_t * pucQueueStorage;
 389:../Dave/Generated/FREERTOS/queue.c **** 
 390:../Dave/Generated/FREERTOS/queue.c ****         configASSERT( uxQueueLength > ( UBaseType_t ) 0 );
 415              	 .loc 1 390 0
 416 000e FB68     	 ldr r3,[r7,#12]
 417 0010 002B     	 cmp r3,#0
 418 0012 09D1     	 bne .L29
 419              	.LBB149:
 420              	.LBB150:
 421              	 .loc 2 197 0 discriminator 1
 422              	
 423 0014 4FF0FC03 	 mov r3,#252
 424 0018 83F31188 	 msr basepri,r3
 425 001c BFF36F8F 	 isb 
 426 0020 BFF34F8F 	 dsb 
 427              	
 428              	
 429              	 .thumb
 430 0024 BB61     	 str r3,[r7,#24]
 431              	.L30:
 432              	.LBE150:
 433              	.LBE149:
 434              	 .loc 1 390 0 discriminator 1
 435 0026 FEE7     	 b .L30
 436              	.L29:
 391:../Dave/Generated/FREERTOS/queue.c **** 
 392:../Dave/Generated/FREERTOS/queue.c ****         /* Allocate enough space to hold the maximum number of items that
 393:../Dave/Generated/FREERTOS/queue.c ****          * can be in the queue at any time.  It is valid for uxItemSize to be
 394:../Dave/Generated/FREERTOS/queue.c ****          * zero in the case the queue is used as a semaphore. */
 395:../Dave/Generated/FREERTOS/queue.c ****         xQueueSizeInBytes = ( size_t ) ( uxQueueLength * uxItemSize ); /*lint !e961 MISRA exception
 437              	 .loc 1 395 0
 438 0028 FB68     	 ldr r3,[r7,#12]
 439 002a BA68     	 ldr r2,[r7,#8]
 440 002c 02FB03F3 	 mul r3,r2,r3
 441 0030 7B62     	 str r3,[r7,#36]
 396:../Dave/Generated/FREERTOS/queue.c **** 
 397:../Dave/Generated/FREERTOS/queue.c ****         /* Check for multiplication overflow. */
 398:../Dave/Generated/FREERTOS/queue.c ****         configASSERT( ( uxItemSize == 0 ) || ( uxQueueLength == ( xQueueSizeInBytes / uxItemSize ) 
 442              	 .loc 1 398 0
 443 0032 BB68     	 ldr r3,[r7,#8]
 444 0034 002B     	 cmp r3,#0
 445 0036 06D0     	 beq .L31
 446              	 .loc 1 398 0 is_stmt 0 discriminator 2
 447 0038 7A6A     	 ldr r2,[r7,#36]
 448 003a BB68     	 ldr r3,[r7,#8]
 449 003c B2FBF3F2 	 udiv r2,r2,r3
 450 0040 FB68     	 ldr r3,[r7,#12]
 451 0042 9A42     	 cmp r2,r3
 452 0044 01D1     	 bne .L32
 453              	.L31:
 454              	 .loc 1 398 0 discriminator 3
 455 0046 0123     	 movs r3,#1
 456 0048 00E0     	 b .L33
 457              	.L32:
 458              	 .loc 1 398 0 discriminator 4
 459 004a 0023     	 movs r3,#0
 460              	.L33:
 461              	 .loc 1 398 0 discriminator 6
 462 004c 002B     	 cmp r3,#0
 463 004e 09D1     	 bne .L34
 464              	.LBB151:
 465              	.LBB152:
 466              	 .loc 2 197 0 is_stmt 1 discriminator 7
 467              	
 468 0050 4FF0FC03 	 mov r3,#252
 469 0054 83F31188 	 msr basepri,r3
 470 0058 BFF36F8F 	 isb 
 471 005c BFF34F8F 	 dsb 
 472              	
 473              	
 474              	 .thumb
 475 0060 7B61     	 str r3,[r7,#20]
 476              	.L35:
 477              	.LBE152:
 478              	.LBE151:
 479              	 .loc 1 398 0 discriminator 2
 480 0062 FEE7     	 b .L35
 481              	.L34:
 399:../Dave/Generated/FREERTOS/queue.c **** 
 400:../Dave/Generated/FREERTOS/queue.c ****         /* Check for addition overflow. */
 401:../Dave/Generated/FREERTOS/queue.c ****         configASSERT( ( sizeof( Queue_t ) + xQueueSizeInBytes ) >  xQueueSizeInBytes );
 482              	 .loc 1 401 0
 483 0064 7B6A     	 ldr r3,[r7,#36]
 484 0066 03F15402 	 add r2,r3,#84
 485 006a 7B6A     	 ldr r3,[r7,#36]
 486 006c 9A42     	 cmp r2,r3
 487 006e 09D8     	 bhi .L36
 488              	.LBB153:
 489              	.LBB154:
 490              	 .loc 2 197 0 discriminator 1
 491              	
 492 0070 4FF0FC03 	 mov r3,#252
 493 0074 83F31188 	 msr basepri,r3
 494 0078 BFF36F8F 	 isb 
 495 007c BFF34F8F 	 dsb 
 496              	
 497              	
 498              	 .thumb
 499 0080 3B61     	 str r3,[r7,#16]
 500              	.L37:
 501              	.LBE154:
 502              	.LBE153:
 503              	 .loc 1 401 0 discriminator 3
 504 0082 FEE7     	 b .L37
 505              	.L36:
 402:../Dave/Generated/FREERTOS/queue.c **** 
 403:../Dave/Generated/FREERTOS/queue.c ****         /* Allocate the queue and storage area.  Justification for MISRA
 404:../Dave/Generated/FREERTOS/queue.c ****          * deviation as follows:  pvPortMalloc() always ensures returned memory
 405:../Dave/Generated/FREERTOS/queue.c ****          * blocks are aligned per the requirements of the MCU stack.  In this case
 406:../Dave/Generated/FREERTOS/queue.c ****          * pvPortMalloc() must return a pointer that is guaranteed to meet the
 407:../Dave/Generated/FREERTOS/queue.c ****          * alignment requirements of the Queue_t structure - which in this case
 408:../Dave/Generated/FREERTOS/queue.c ****          * is an int8_t *.  Therefore, whenever the stack alignment requirements
 409:../Dave/Generated/FREERTOS/queue.c ****          * are greater than or equal to the pointer to char requirements the cast
 410:../Dave/Generated/FREERTOS/queue.c ****          * is safe.  In other cases alignment requirements are not strict (one or
 411:../Dave/Generated/FREERTOS/queue.c ****          * two bytes). */
 412:../Dave/Generated/FREERTOS/queue.c ****         pxNewQueue = ( Queue_t * ) pvPortMalloc( sizeof( Queue_t ) + xQueueSizeInBytes ); /*lint !e
 506              	 .loc 1 412 0
 507 0084 7B6A     	 ldr r3,[r7,#36]
 508 0086 5433     	 adds r3,r3,#84
 509 0088 1846     	 mov r0,r3
 510 008a FFF7FEFF 	 bl pvPortMalloc
 511 008e 3862     	 str r0,[r7,#32]
 413:../Dave/Generated/FREERTOS/queue.c **** 
 414:../Dave/Generated/FREERTOS/queue.c ****         if( pxNewQueue != NULL )
 512              	 .loc 1 414 0
 513 0090 3B6A     	 ldr r3,[r7,#32]
 514 0092 002B     	 cmp r3,#0
 515 0094 11D0     	 beq .L38
 415:../Dave/Generated/FREERTOS/queue.c ****         {
 416:../Dave/Generated/FREERTOS/queue.c ****             /* Jump past the queue structure to find the location of the queue
 417:../Dave/Generated/FREERTOS/queue.c ****              * storage area. */
 418:../Dave/Generated/FREERTOS/queue.c ****             pucQueueStorage = ( uint8_t * ) pxNewQueue;
 516              	 .loc 1 418 0
 517 0096 3B6A     	 ldr r3,[r7,#32]
 518 0098 FB61     	 str r3,[r7,#28]
 419:../Dave/Generated/FREERTOS/queue.c ****             pucQueueStorage += sizeof( Queue_t ); /*lint !e9016 Pointer arithmetic allowed on char 
 519              	 .loc 1 419 0
 520 009a FB69     	 ldr r3,[r7,#28]
 521 009c 5433     	 adds r3,r3,#84
 522 009e FB61     	 str r3,[r7,#28]
 420:../Dave/Generated/FREERTOS/queue.c **** 
 421:../Dave/Generated/FREERTOS/queue.c ****             #if ( configSUPPORT_STATIC_ALLOCATION == 1 )
 422:../Dave/Generated/FREERTOS/queue.c ****                 {
 423:../Dave/Generated/FREERTOS/queue.c ****                     /* Queues can be created either statically or dynamically, so
 424:../Dave/Generated/FREERTOS/queue.c ****                      * note this task was created dynamically in case it is later
 425:../Dave/Generated/FREERTOS/queue.c ****                      * deleted. */
 426:../Dave/Generated/FREERTOS/queue.c ****                     pxNewQueue->ucStaticallyAllocated = pdFALSE;
 523              	 .loc 1 426 0
 524 00a0 3B6A     	 ldr r3,[r7,#32]
 525 00a2 0022     	 movs r2,#0
 526 00a4 83F84620 	 strb r2,[r3,#70]
 427:../Dave/Generated/FREERTOS/queue.c ****                 }
 428:../Dave/Generated/FREERTOS/queue.c ****             #endif /* configSUPPORT_STATIC_ALLOCATION */
 429:../Dave/Generated/FREERTOS/queue.c **** 
 430:../Dave/Generated/FREERTOS/queue.c ****             prvInitialiseNewQueue( uxQueueLength, uxItemSize, pucQueueStorage, ucQueueType, pxNewQu
 527              	 .loc 1 430 0
 528 00a8 FC79     	 ldrb r4,[r7,#7]
 529 00aa 3B6A     	 ldr r3,[r7,#32]
 530 00ac 0093     	 str r3,[sp]
 531 00ae F868     	 ldr r0,[r7,#12]
 532 00b0 B968     	 ldr r1,[r7,#8]
 533 00b2 FA69     	 ldr r2,[r7,#28]
 534 00b4 2346     	 mov r3,r4
 535 00b6 FFF7FEFF 	 bl prvInitialiseNewQueue
 536              	.L38:
 431:../Dave/Generated/FREERTOS/queue.c ****         }
 432:../Dave/Generated/FREERTOS/queue.c ****         else
 433:../Dave/Generated/FREERTOS/queue.c ****         {
 434:../Dave/Generated/FREERTOS/queue.c ****             traceQUEUE_CREATE_FAILED( ucQueueType );
 435:../Dave/Generated/FREERTOS/queue.c ****             mtCOVERAGE_TEST_MARKER();
 436:../Dave/Generated/FREERTOS/queue.c ****         }
 437:../Dave/Generated/FREERTOS/queue.c **** 
 438:../Dave/Generated/FREERTOS/queue.c ****         return pxNewQueue;
 537              	 .loc 1 438 0
 538 00ba 3B6A     	 ldr r3,[r7,#32]
 439:../Dave/Generated/FREERTOS/queue.c ****     }
 539              	 .loc 1 439 0
 540 00bc 1846     	 mov r0,r3
 541 00be 2C37     	 adds r7,r7,#44
 542              	.LCFI13:
 543              	 .cfi_def_cfa_offset 12
 544 00c0 BD46     	 mov sp,r7
 545              	.LCFI14:
 546              	 .cfi_def_cfa_register 13
 547              	 
 548 00c2 90BD     	 pop {r4,r7,pc}
 549              	 .cfi_endproc
 550              	.LFE139:
 552              	 .section .text.prvInitialiseNewQueue,"ax",%progbits
 553              	 .align 2
 554              	 .thumb
 555              	 .thumb_func
 557              	prvInitialiseNewQueue:
 558              	.LFB140:
 440:../Dave/Generated/FREERTOS/queue.c **** 
 441:../Dave/Generated/FREERTOS/queue.c **** #endif /* configSUPPORT_STATIC_ALLOCATION */
 442:../Dave/Generated/FREERTOS/queue.c **** /*-----------------------------------------------------------*/
 443:../Dave/Generated/FREERTOS/queue.c **** 
 444:../Dave/Generated/FREERTOS/queue.c **** static void prvInitialiseNewQueue( const UBaseType_t uxQueueLength,
 445:../Dave/Generated/FREERTOS/queue.c ****                                    const UBaseType_t uxItemSize,
 446:../Dave/Generated/FREERTOS/queue.c ****                                    uint8_t * pucQueueStorage,
 447:../Dave/Generated/FREERTOS/queue.c ****                                    const uint8_t ucQueueType,
 448:../Dave/Generated/FREERTOS/queue.c ****                                    Queue_t * pxNewQueue )
 449:../Dave/Generated/FREERTOS/queue.c **** {
 559              	 .loc 1 449 0
 560              	 .cfi_startproc
 561              	 
 562              	 
 563 0000 80B5     	 push {r7,lr}
 564              	.LCFI15:
 565              	 .cfi_def_cfa_offset 8
 566              	 .cfi_offset 7,-8
 567              	 .cfi_offset 14,-4
 568 0002 84B0     	 sub sp,sp,#16
 569              	.LCFI16:
 570              	 .cfi_def_cfa_offset 24
 571 0004 00AF     	 add r7,sp,#0
 572              	.LCFI17:
 573              	 .cfi_def_cfa_register 7
 574 0006 F860     	 str r0,[r7,#12]
 575 0008 B960     	 str r1,[r7,#8]
 576 000a 7A60     	 str r2,[r7,#4]
 577 000c FB70     	 strb r3,[r7,#3]
 450:../Dave/Generated/FREERTOS/queue.c ****     /* Remove compiler warnings about unused parameters should
 451:../Dave/Generated/FREERTOS/queue.c ****      * configUSE_TRACE_FACILITY not be set to 1. */
 452:../Dave/Generated/FREERTOS/queue.c ****     ( void ) ucQueueType;
 453:../Dave/Generated/FREERTOS/queue.c **** 
 454:../Dave/Generated/FREERTOS/queue.c ****     if( uxItemSize == ( UBaseType_t ) 0 )
 578              	 .loc 1 454 0
 579 000e BB68     	 ldr r3,[r7,#8]
 580 0010 002B     	 cmp r3,#0
 581 0012 03D1     	 bne .L41
 455:../Dave/Generated/FREERTOS/queue.c ****     {
 456:../Dave/Generated/FREERTOS/queue.c ****         /* No RAM was allocated for the queue storage area, but PC head cannot
 457:../Dave/Generated/FREERTOS/queue.c ****          * be set to NULL because NULL is used as a key to say the queue is used as
 458:../Dave/Generated/FREERTOS/queue.c ****          * a mutex.  Therefore just set pcHead to point to the queue as a benign
 459:../Dave/Generated/FREERTOS/queue.c ****          * value that is known to be within the memory map. */
 460:../Dave/Generated/FREERTOS/queue.c ****         pxNewQueue->pcHead = ( int8_t * ) pxNewQueue;
 582              	 .loc 1 460 0
 583 0014 BB69     	 ldr r3,[r7,#24]
 584 0016 BA69     	 ldr r2,[r7,#24]
 585 0018 1A60     	 str r2,[r3]
 586 001a 02E0     	 b .L42
 587              	.L41:
 461:../Dave/Generated/FREERTOS/queue.c ****     }
 462:../Dave/Generated/FREERTOS/queue.c ****     else
 463:../Dave/Generated/FREERTOS/queue.c ****     {
 464:../Dave/Generated/FREERTOS/queue.c ****         /* Set the head to the start of the queue storage area. */
 465:../Dave/Generated/FREERTOS/queue.c ****         pxNewQueue->pcHead = ( int8_t * ) pucQueueStorage;
 588              	 .loc 1 465 0
 589 001c BB69     	 ldr r3,[r7,#24]
 590 001e 7A68     	 ldr r2,[r7,#4]
 591 0020 1A60     	 str r2,[r3]
 592              	.L42:
 466:../Dave/Generated/FREERTOS/queue.c ****     }
 467:../Dave/Generated/FREERTOS/queue.c **** 
 468:../Dave/Generated/FREERTOS/queue.c ****     /* Initialise the queue members as described where the queue type is
 469:../Dave/Generated/FREERTOS/queue.c ****      * defined. */
 470:../Dave/Generated/FREERTOS/queue.c ****     pxNewQueue->uxLength = uxQueueLength;
 593              	 .loc 1 470 0
 594 0022 BB69     	 ldr r3,[r7,#24]
 595 0024 FA68     	 ldr r2,[r7,#12]
 596 0026 DA63     	 str r2,[r3,#60]
 471:../Dave/Generated/FREERTOS/queue.c ****     pxNewQueue->uxItemSize = uxItemSize;
 597              	 .loc 1 471 0
 598 0028 BB69     	 ldr r3,[r7,#24]
 599 002a BA68     	 ldr r2,[r7,#8]
 600 002c 1A64     	 str r2,[r3,#64]
 472:../Dave/Generated/FREERTOS/queue.c ****     ( void ) xQueueGenericReset( pxNewQueue, pdTRUE );
 601              	 .loc 1 472 0
 602 002e B869     	 ldr r0,[r7,#24]
 603 0030 0121     	 movs r1,#1
 604 0032 FFF7FEFF 	 bl xQueueGenericReset
 473:../Dave/Generated/FREERTOS/queue.c **** 
 474:../Dave/Generated/FREERTOS/queue.c ****     #if ( configUSE_TRACE_FACILITY == 1 )
 475:../Dave/Generated/FREERTOS/queue.c ****         {
 476:../Dave/Generated/FREERTOS/queue.c ****             pxNewQueue->ucQueueType = ucQueueType;
 605              	 .loc 1 476 0
 606 0036 BB69     	 ldr r3,[r7,#24]
 607 0038 FA78     	 ldrb r2,[r7,#3]
 608 003a 83F85020 	 strb r2,[r3,#80]
 477:../Dave/Generated/FREERTOS/queue.c ****         }
 478:../Dave/Generated/FREERTOS/queue.c ****     #endif /* configUSE_TRACE_FACILITY */
 479:../Dave/Generated/FREERTOS/queue.c **** 
 480:../Dave/Generated/FREERTOS/queue.c ****     #if ( configUSE_QUEUE_SETS == 1 )
 481:../Dave/Generated/FREERTOS/queue.c ****         {
 482:../Dave/Generated/FREERTOS/queue.c ****             pxNewQueue->pxQueueSetContainer = NULL;
 609              	 .loc 1 482 0
 610 003e BB69     	 ldr r3,[r7,#24]
 611 0040 0022     	 movs r2,#0
 612 0042 9A64     	 str r2,[r3,#72]
 483:../Dave/Generated/FREERTOS/queue.c ****         }
 484:../Dave/Generated/FREERTOS/queue.c ****     #endif /* configUSE_QUEUE_SETS */
 485:../Dave/Generated/FREERTOS/queue.c **** 
 486:../Dave/Generated/FREERTOS/queue.c ****     traceQUEUE_CREATE( pxNewQueue );
 487:../Dave/Generated/FREERTOS/queue.c **** }
 613              	 .loc 1 487 0
 614 0044 1037     	 adds r7,r7,#16
 615              	.LCFI18:
 616              	 .cfi_def_cfa_offset 8
 617 0046 BD46     	 mov sp,r7
 618              	.LCFI19:
 619              	 .cfi_def_cfa_register 13
 620              	 
 621 0048 80BD     	 pop {r7,pc}
 622              	 .cfi_endproc
 623              	.LFE140:
 625 004a 00BF     	 .section .text.prvInitialiseMutex,"ax",%progbits
 626              	 .align 2
 627              	 .thumb
 628              	 .thumb_func
 630              	prvInitialiseMutex:
 631              	.LFB141:
 488:../Dave/Generated/FREERTOS/queue.c **** /*-----------------------------------------------------------*/
 489:../Dave/Generated/FREERTOS/queue.c **** 
 490:../Dave/Generated/FREERTOS/queue.c **** #if ( configUSE_MUTEXES == 1 )
 491:../Dave/Generated/FREERTOS/queue.c **** 
 492:../Dave/Generated/FREERTOS/queue.c ****     static void prvInitialiseMutex( Queue_t * pxNewQueue )
 493:../Dave/Generated/FREERTOS/queue.c ****     {
 632              	 .loc 1 493 0
 633              	 .cfi_startproc
 634              	 
 635              	 
 636 0000 80B5     	 push {r7,lr}
 637              	.LCFI20:
 638              	 .cfi_def_cfa_offset 8
 639              	 .cfi_offset 7,-8
 640              	 .cfi_offset 14,-4
 641 0002 82B0     	 sub sp,sp,#8
 642              	.LCFI21:
 643              	 .cfi_def_cfa_offset 16
 644 0004 00AF     	 add r7,sp,#0
 645              	.LCFI22:
 646              	 .cfi_def_cfa_register 7
 647 0006 7860     	 str r0,[r7,#4]
 494:../Dave/Generated/FREERTOS/queue.c ****         if( pxNewQueue != NULL )
 648              	 .loc 1 494 0
 649 0008 7B68     	 ldr r3,[r7,#4]
 650 000a 002B     	 cmp r3,#0
 651 000c 0ED0     	 beq .L43
 495:../Dave/Generated/FREERTOS/queue.c ****         {
 496:../Dave/Generated/FREERTOS/queue.c ****             /* The queue create function will set all the queue structure members
 497:../Dave/Generated/FREERTOS/queue.c ****             * correctly for a generic queue, but this function is creating a
 498:../Dave/Generated/FREERTOS/queue.c ****             * mutex.  Overwrite those members that need to be set differently -
 499:../Dave/Generated/FREERTOS/queue.c ****             * in particular the information required for priority inheritance. */
 500:../Dave/Generated/FREERTOS/queue.c ****             pxNewQueue->u.xSemaphore.xMutexHolder = NULL;
 652              	 .loc 1 500 0
 653 000e 7B68     	 ldr r3,[r7,#4]
 654 0010 0022     	 movs r2,#0
 655 0012 9A60     	 str r2,[r3,#8]
 501:../Dave/Generated/FREERTOS/queue.c ****             pxNewQueue->uxQueueType = queueQUEUE_IS_MUTEX;
 656              	 .loc 1 501 0
 657 0014 7B68     	 ldr r3,[r7,#4]
 658 0016 0022     	 movs r2,#0
 659 0018 1A60     	 str r2,[r3]
 502:../Dave/Generated/FREERTOS/queue.c **** 
 503:../Dave/Generated/FREERTOS/queue.c ****             /* In case this is a recursive mutex. */
 504:../Dave/Generated/FREERTOS/queue.c ****             pxNewQueue->u.xSemaphore.uxRecursiveCallCount = 0;
 660              	 .loc 1 504 0
 661 001a 7B68     	 ldr r3,[r7,#4]
 662 001c 0022     	 movs r2,#0
 663 001e DA60     	 str r2,[r3,#12]
 505:../Dave/Generated/FREERTOS/queue.c **** 
 506:../Dave/Generated/FREERTOS/queue.c ****             traceCREATE_MUTEX( pxNewQueue );
 507:../Dave/Generated/FREERTOS/queue.c **** 
 508:../Dave/Generated/FREERTOS/queue.c ****             /* Start with the semaphore in the expected state. */
 509:../Dave/Generated/FREERTOS/queue.c ****             ( void ) xQueueGenericSend( pxNewQueue, NULL, ( TickType_t ) 0U, queueSEND_TO_BACK );
 664              	 .loc 1 509 0
 665 0020 7868     	 ldr r0,[r7,#4]
 666 0022 0021     	 movs r1,#0
 667 0024 0022     	 movs r2,#0
 668 0026 0023     	 movs r3,#0
 669 0028 FFF7FEFF 	 bl xQueueGenericSend
 670              	.L43:
 510:../Dave/Generated/FREERTOS/queue.c ****         }
 511:../Dave/Generated/FREERTOS/queue.c ****         else
 512:../Dave/Generated/FREERTOS/queue.c ****         {
 513:../Dave/Generated/FREERTOS/queue.c ****             traceCREATE_MUTEX_FAILED();
 514:../Dave/Generated/FREERTOS/queue.c ****         }
 515:../Dave/Generated/FREERTOS/queue.c ****     }
 671              	 .loc 1 515 0
 672 002c 0837     	 adds r7,r7,#8
 673              	.LCFI23:
 674              	 .cfi_def_cfa_offset 8
 675 002e BD46     	 mov sp,r7
 676              	.LCFI24:
 677              	 .cfi_def_cfa_register 13
 678              	 
 679 0030 80BD     	 pop {r7,pc}
 680              	 .cfi_endproc
 681              	.LFE141:
 683 0032 00BF     	 .section .text.xQueueCreateMutex,"ax",%progbits
 684              	 .align 2
 685              	 .global xQueueCreateMutex
 686              	 .thumb
 687              	 .thumb_func
 689              	xQueueCreateMutex:
 690              	.LFB142:
 516:../Dave/Generated/FREERTOS/queue.c **** 
 517:../Dave/Generated/FREERTOS/queue.c **** #endif /* configUSE_MUTEXES */
 518:../Dave/Generated/FREERTOS/queue.c **** /*-----------------------------------------------------------*/
 519:../Dave/Generated/FREERTOS/queue.c **** 
 520:../Dave/Generated/FREERTOS/queue.c **** #if ( ( configUSE_MUTEXES == 1 ) && ( configSUPPORT_DYNAMIC_ALLOCATION == 1 ) )
 521:../Dave/Generated/FREERTOS/queue.c **** 
 522:../Dave/Generated/FREERTOS/queue.c ****     QueueHandle_t xQueueCreateMutex( const uint8_t ucQueueType )
 523:../Dave/Generated/FREERTOS/queue.c ****     {
 691              	 .loc 1 523 0
 692              	 .cfi_startproc
 693              	 
 694              	 
 695 0000 80B5     	 push {r7,lr}
 696              	.LCFI25:
 697              	 .cfi_def_cfa_offset 8
 698              	 .cfi_offset 7,-8
 699              	 .cfi_offset 14,-4
 700 0002 86B0     	 sub sp,sp,#24
 701              	.LCFI26:
 702              	 .cfi_def_cfa_offset 32
 703 0004 00AF     	 add r7,sp,#0
 704              	.LCFI27:
 705              	 .cfi_def_cfa_register 7
 706 0006 0346     	 mov r3,r0
 707 0008 FB71     	 strb r3,[r7,#7]
 524:../Dave/Generated/FREERTOS/queue.c ****         QueueHandle_t xNewQueue;
 525:../Dave/Generated/FREERTOS/queue.c ****         const UBaseType_t uxMutexLength = ( UBaseType_t ) 1, uxMutexSize = ( UBaseType_t ) 0;
 708              	 .loc 1 525 0
 709 000a 0123     	 movs r3,#1
 710 000c 7B61     	 str r3,[r7,#20]
 711 000e 0023     	 movs r3,#0
 712 0010 3B61     	 str r3,[r7,#16]
 526:../Dave/Generated/FREERTOS/queue.c **** 
 527:../Dave/Generated/FREERTOS/queue.c ****         xNewQueue = xQueueGenericCreate( uxMutexLength, uxMutexSize, ucQueueType );
 713              	 .loc 1 527 0
 714 0012 FB79     	 ldrb r3,[r7,#7]
 715 0014 7869     	 ldr r0,[r7,#20]
 716 0016 3969     	 ldr r1,[r7,#16]
 717 0018 1A46     	 mov r2,r3
 718 001a FFF7FEFF 	 bl xQueueGenericCreate
 719 001e F860     	 str r0,[r7,#12]
 528:../Dave/Generated/FREERTOS/queue.c ****         prvInitialiseMutex( ( Queue_t * ) xNewQueue );
 720              	 .loc 1 528 0
 721 0020 F868     	 ldr r0,[r7,#12]
 722 0022 FFF7FEFF 	 bl prvInitialiseMutex
 529:../Dave/Generated/FREERTOS/queue.c **** 
 530:../Dave/Generated/FREERTOS/queue.c ****         return xNewQueue;
 723              	 .loc 1 530 0
 724 0026 FB68     	 ldr r3,[r7,#12]
 531:../Dave/Generated/FREERTOS/queue.c ****     }
 725              	 .loc 1 531 0
 726 0028 1846     	 mov r0,r3
 727 002a 1837     	 adds r7,r7,#24
 728              	.LCFI28:
 729              	 .cfi_def_cfa_offset 8
 730 002c BD46     	 mov sp,r7
 731              	.LCFI29:
 732              	 .cfi_def_cfa_register 13
 733              	 
 734 002e 80BD     	 pop {r7,pc}
 735              	 .cfi_endproc
 736              	.LFE142:
 738              	 .section .text.xQueueCreateMutexStatic,"ax",%progbits
 739              	 .align 2
 740              	 .global xQueueCreateMutexStatic
 741              	 .thumb
 742              	 .thumb_func
 744              	xQueueCreateMutexStatic:
 745              	.LFB143:
 532:../Dave/Generated/FREERTOS/queue.c **** 
 533:../Dave/Generated/FREERTOS/queue.c **** #endif /* configUSE_MUTEXES */
 534:../Dave/Generated/FREERTOS/queue.c **** /*-----------------------------------------------------------*/
 535:../Dave/Generated/FREERTOS/queue.c **** 
 536:../Dave/Generated/FREERTOS/queue.c **** #if ( ( configUSE_MUTEXES == 1 ) && ( configSUPPORT_STATIC_ALLOCATION == 1 ) )
 537:../Dave/Generated/FREERTOS/queue.c **** 
 538:../Dave/Generated/FREERTOS/queue.c ****     QueueHandle_t xQueueCreateMutexStatic( const uint8_t ucQueueType,
 539:../Dave/Generated/FREERTOS/queue.c ****                                            StaticQueue_t * pxStaticQueue )
 540:../Dave/Generated/FREERTOS/queue.c ****     {
 746              	 .loc 1 540 0
 747              	 .cfi_startproc
 748              	 
 749              	 
 750 0000 80B5     	 push {r7,lr}
 751              	.LCFI30:
 752              	 .cfi_def_cfa_offset 8
 753              	 .cfi_offset 7,-8
 754              	 .cfi_offset 14,-4
 755 0002 88B0     	 sub sp,sp,#32
 756              	.LCFI31:
 757              	 .cfi_def_cfa_offset 40
 758 0004 02AF     	 add r7,sp,#8
 759              	.LCFI32:
 760              	 .cfi_def_cfa 7,32
 761 0006 0346     	 mov r3,r0
 762 0008 3960     	 str r1,[r7]
 763 000a FB71     	 strb r3,[r7,#7]
 541:../Dave/Generated/FREERTOS/queue.c ****         QueueHandle_t xNewQueue;
 542:../Dave/Generated/FREERTOS/queue.c ****         const UBaseType_t uxMutexLength = ( UBaseType_t ) 1, uxMutexSize = ( UBaseType_t ) 0;
 764              	 .loc 1 542 0
 765 000c 0123     	 movs r3,#1
 766 000e 7B61     	 str r3,[r7,#20]
 767 0010 0023     	 movs r3,#0
 768 0012 3B61     	 str r3,[r7,#16]
 543:../Dave/Generated/FREERTOS/queue.c **** 
 544:../Dave/Generated/FREERTOS/queue.c ****         /* Prevent compiler warnings about unused parameters if
 545:../Dave/Generated/FREERTOS/queue.c ****          * configUSE_TRACE_FACILITY does not equal 1. */
 546:../Dave/Generated/FREERTOS/queue.c ****         ( void ) ucQueueType;
 547:../Dave/Generated/FREERTOS/queue.c **** 
 548:../Dave/Generated/FREERTOS/queue.c ****         xNewQueue = xQueueGenericCreateStatic( uxMutexLength, uxMutexSize, NULL, pxStaticQueue, ucQ
 769              	 .loc 1 548 0
 770 0014 FB79     	 ldrb r3,[r7,#7]
 771 0016 0093     	 str r3,[sp]
 772 0018 7869     	 ldr r0,[r7,#20]
 773 001a 3969     	 ldr r1,[r7,#16]
 774 001c 0022     	 movs r2,#0
 775 001e 3B68     	 ldr r3,[r7]
 776 0020 FFF7FEFF 	 bl xQueueGenericCreateStatic
 777 0024 F860     	 str r0,[r7,#12]
 549:../Dave/Generated/FREERTOS/queue.c ****         prvInitialiseMutex( ( Queue_t * ) xNewQueue );
 778              	 .loc 1 549 0
 779 0026 F868     	 ldr r0,[r7,#12]
 780 0028 FFF7FEFF 	 bl prvInitialiseMutex
 550:../Dave/Generated/FREERTOS/queue.c **** 
 551:../Dave/Generated/FREERTOS/queue.c ****         return xNewQueue;
 781              	 .loc 1 551 0
 782 002c FB68     	 ldr r3,[r7,#12]
 552:../Dave/Generated/FREERTOS/queue.c ****     }
 783              	 .loc 1 552 0
 784 002e 1846     	 mov r0,r3
 785 0030 1837     	 adds r7,r7,#24
 786              	.LCFI33:
 787              	 .cfi_def_cfa_offset 8
 788 0032 BD46     	 mov sp,r7
 789              	.LCFI34:
 790              	 .cfi_def_cfa_register 13
 791              	 
 792 0034 80BD     	 pop {r7,pc}
 793              	 .cfi_endproc
 794              	.LFE143:
 796 0036 00BF     	 .section .text.xQueueGetMutexHolder,"ax",%progbits
 797              	 .align 2
 798              	 .global xQueueGetMutexHolder
 799              	 .thumb
 800              	 .thumb_func
 802              	xQueueGetMutexHolder:
 803              	.LFB144:
 553:../Dave/Generated/FREERTOS/queue.c **** 
 554:../Dave/Generated/FREERTOS/queue.c **** #endif /* configUSE_MUTEXES */
 555:../Dave/Generated/FREERTOS/queue.c **** /*-----------------------------------------------------------*/
 556:../Dave/Generated/FREERTOS/queue.c **** 
 557:../Dave/Generated/FREERTOS/queue.c **** #if ( ( configUSE_MUTEXES == 1 ) && ( INCLUDE_xSemaphoreGetMutexHolder == 1 ) )
 558:../Dave/Generated/FREERTOS/queue.c **** 
 559:../Dave/Generated/FREERTOS/queue.c ****     TaskHandle_t xQueueGetMutexHolder( QueueHandle_t xSemaphore )
 560:../Dave/Generated/FREERTOS/queue.c ****     {
 804              	 .loc 1 560 0
 805              	 .cfi_startproc
 806              	 
 807              	 
 808 0000 80B5     	 push {r7,lr}
 809              	.LCFI35:
 810              	 .cfi_def_cfa_offset 8
 811              	 .cfi_offset 7,-8
 812              	 .cfi_offset 14,-4
 813 0002 84B0     	 sub sp,sp,#16
 814              	.LCFI36:
 815              	 .cfi_def_cfa_offset 24
 816 0004 00AF     	 add r7,sp,#0
 817              	.LCFI37:
 818              	 .cfi_def_cfa_register 7
 819 0006 7860     	 str r0,[r7,#4]
 561:../Dave/Generated/FREERTOS/queue.c ****         TaskHandle_t pxReturn;
 562:../Dave/Generated/FREERTOS/queue.c ****         Queue_t * const pxSemaphore = ( Queue_t * ) xSemaphore;
 820              	 .loc 1 562 0
 821 0008 7B68     	 ldr r3,[r7,#4]
 822 000a BB60     	 str r3,[r7,#8]
 563:../Dave/Generated/FREERTOS/queue.c **** 
 564:../Dave/Generated/FREERTOS/queue.c ****         /* This function is called by xSemaphoreGetMutexHolder(), and should not
 565:../Dave/Generated/FREERTOS/queue.c ****          * be called directly.  Note:  This is a good way of determining if the
 566:../Dave/Generated/FREERTOS/queue.c ****          * calling task is the mutex holder, but not a good way of determining the
 567:../Dave/Generated/FREERTOS/queue.c ****          * identity of the mutex holder, as the holder may change between the
 568:../Dave/Generated/FREERTOS/queue.c ****          * following critical section exiting and the function returning. */
 569:../Dave/Generated/FREERTOS/queue.c ****         taskENTER_CRITICAL();
 823              	 .loc 1 569 0
 824 000c FFF7FEFF 	 bl vPortEnterCritical
 570:../Dave/Generated/FREERTOS/queue.c ****         {
 571:../Dave/Generated/FREERTOS/queue.c ****             if( pxSemaphore->uxQueueType == queueQUEUE_IS_MUTEX )
 825              	 .loc 1 571 0
 826 0010 BB68     	 ldr r3,[r7,#8]
 827 0012 1B68     	 ldr r3,[r3]
 828 0014 002B     	 cmp r3,#0
 829 0016 03D1     	 bne .L50
 572:../Dave/Generated/FREERTOS/queue.c ****             {
 573:../Dave/Generated/FREERTOS/queue.c ****                 pxReturn = pxSemaphore->u.xSemaphore.xMutexHolder;
 830              	 .loc 1 573 0
 831 0018 BB68     	 ldr r3,[r7,#8]
 832 001a 9B68     	 ldr r3,[r3,#8]
 833 001c FB60     	 str r3,[r7,#12]
 834 001e 01E0     	 b .L51
 835              	.L50:
 574:../Dave/Generated/FREERTOS/queue.c ****             }
 575:../Dave/Generated/FREERTOS/queue.c ****             else
 576:../Dave/Generated/FREERTOS/queue.c ****             {
 577:../Dave/Generated/FREERTOS/queue.c ****                 pxReturn = NULL;
 836              	 .loc 1 577 0
 837 0020 0023     	 movs r3,#0
 838 0022 FB60     	 str r3,[r7,#12]
 839              	.L51:
 578:../Dave/Generated/FREERTOS/queue.c ****             }
 579:../Dave/Generated/FREERTOS/queue.c ****         }
 580:../Dave/Generated/FREERTOS/queue.c ****         taskEXIT_CRITICAL();
 840              	 .loc 1 580 0
 841 0024 FFF7FEFF 	 bl vPortExitCritical
 581:../Dave/Generated/FREERTOS/queue.c **** 
 582:../Dave/Generated/FREERTOS/queue.c ****         return pxReturn;
 842              	 .loc 1 582 0
 843 0028 FB68     	 ldr r3,[r7,#12]
 583:../Dave/Generated/FREERTOS/queue.c ****     } /*lint !e818 xSemaphore cannot be a pointer to const because it is a typedef. */
 844              	 .loc 1 583 0
 845 002a 1846     	 mov r0,r3
 846 002c 1037     	 adds r7,r7,#16
 847              	.LCFI38:
 848              	 .cfi_def_cfa_offset 8
 849 002e BD46     	 mov sp,r7
 850              	.LCFI39:
 851              	 .cfi_def_cfa_register 13
 852              	 
 853 0030 80BD     	 pop {r7,pc}
 854              	 .cfi_endproc
 855              	.LFE144:
 857 0032 00BF     	 .section .text.xQueueGetMutexHolderFromISR,"ax",%progbits
 858              	 .align 2
 859              	 .global xQueueGetMutexHolderFromISR
 860              	 .thumb
 861              	 .thumb_func
 863              	xQueueGetMutexHolderFromISR:
 864              	.LFB145:
 584:../Dave/Generated/FREERTOS/queue.c **** 
 585:../Dave/Generated/FREERTOS/queue.c **** #endif /* if ( ( configUSE_MUTEXES == 1 ) && ( INCLUDE_xSemaphoreGetMutexHolder == 1 ) ) */
 586:../Dave/Generated/FREERTOS/queue.c **** /*-----------------------------------------------------------*/
 587:../Dave/Generated/FREERTOS/queue.c **** 
 588:../Dave/Generated/FREERTOS/queue.c **** #if ( ( configUSE_MUTEXES == 1 ) && ( INCLUDE_xSemaphoreGetMutexHolder == 1 ) )
 589:../Dave/Generated/FREERTOS/queue.c **** 
 590:../Dave/Generated/FREERTOS/queue.c ****     TaskHandle_t xQueueGetMutexHolderFromISR( QueueHandle_t xSemaphore )
 591:../Dave/Generated/FREERTOS/queue.c ****     {
 865              	 .loc 1 591 0
 866              	 .cfi_startproc
 867              	 
 868              	 
 869              	 
 870 0000 80B4     	 push {r7}
 871              	.LCFI40:
 872              	 .cfi_def_cfa_offset 4
 873              	 .cfi_offset 7,-4
 874 0002 85B0     	 sub sp,sp,#20
 875              	.LCFI41:
 876              	 .cfi_def_cfa_offset 24
 877 0004 00AF     	 add r7,sp,#0
 878              	.LCFI42:
 879              	 .cfi_def_cfa_register 7
 880 0006 7860     	 str r0,[r7,#4]
 592:../Dave/Generated/FREERTOS/queue.c ****         TaskHandle_t pxReturn;
 593:../Dave/Generated/FREERTOS/queue.c **** 
 594:../Dave/Generated/FREERTOS/queue.c ****         configASSERT( xSemaphore );
 881              	 .loc 1 594 0
 882 0008 7B68     	 ldr r3,[r7,#4]
 883 000a 002B     	 cmp r3,#0
 884 000c 09D1     	 bne .L54
 885              	.LBB155:
 886              	.LBB156:
 887              	 .loc 2 197 0 discriminator 1
 888              	
 889 000e 4FF0FC03 	 mov r3,#252
 890 0012 83F31188 	 msr basepri,r3
 891 0016 BFF36F8F 	 isb 
 892 001a BFF34F8F 	 dsb 
 893              	
 894              	
 895              	 .thumb
 896 001e BB60     	 str r3,[r7,#8]
 897              	.L55:
 898              	.LBE156:
 899              	.LBE155:
 900              	 .loc 1 594 0 discriminator 1
 901 0020 FEE7     	 b .L55
 902              	.L54:
 595:../Dave/Generated/FREERTOS/queue.c **** 
 596:../Dave/Generated/FREERTOS/queue.c ****         /* Mutexes cannot be used in interrupt service routines, so the mutex
 597:../Dave/Generated/FREERTOS/queue.c ****          * holder should not change in an ISR, and therefore a critical section is
 598:../Dave/Generated/FREERTOS/queue.c ****          * not required here. */
 599:../Dave/Generated/FREERTOS/queue.c ****         if( ( ( Queue_t * ) xSemaphore )->uxQueueType == queueQUEUE_IS_MUTEX )
 903              	 .loc 1 599 0
 904 0022 7B68     	 ldr r3,[r7,#4]
 905 0024 1B68     	 ldr r3,[r3]
 906 0026 002B     	 cmp r3,#0
 907 0028 03D1     	 bne .L56
 600:../Dave/Generated/FREERTOS/queue.c ****         {
 601:../Dave/Generated/FREERTOS/queue.c ****             pxReturn = ( ( Queue_t * ) xSemaphore )->u.xSemaphore.xMutexHolder;
 908              	 .loc 1 601 0
 909 002a 7B68     	 ldr r3,[r7,#4]
 910 002c 9B68     	 ldr r3,[r3,#8]
 911 002e FB60     	 str r3,[r7,#12]
 912 0030 01E0     	 b .L57
 913              	.L56:
 602:../Dave/Generated/FREERTOS/queue.c ****         }
 603:../Dave/Generated/FREERTOS/queue.c ****         else
 604:../Dave/Generated/FREERTOS/queue.c ****         {
 605:../Dave/Generated/FREERTOS/queue.c ****             pxReturn = NULL;
 914              	 .loc 1 605 0
 915 0032 0023     	 movs r3,#0
 916 0034 FB60     	 str r3,[r7,#12]
 917              	.L57:
 606:../Dave/Generated/FREERTOS/queue.c ****         }
 607:../Dave/Generated/FREERTOS/queue.c **** 
 608:../Dave/Generated/FREERTOS/queue.c ****         return pxReturn;
 918              	 .loc 1 608 0
 919 0036 FB68     	 ldr r3,[r7,#12]
 609:../Dave/Generated/FREERTOS/queue.c ****     } /*lint !e818 xSemaphore cannot be a pointer to const because it is a typedef. */
 920              	 .loc 1 609 0
 921 0038 1846     	 mov r0,r3
 922 003a 1437     	 adds r7,r7,#20
 923              	.LCFI43:
 924              	 .cfi_def_cfa_offset 4
 925 003c BD46     	 mov sp,r7
 926              	.LCFI44:
 927              	 .cfi_def_cfa_register 13
 928              	 
 929 003e 5DF8047B 	 ldr r7,[sp],#4
 930              	.LCFI45:
 931              	 .cfi_restore 7
 932              	 .cfi_def_cfa_offset 0
 933 0042 7047     	 bx lr
 934              	 .cfi_endproc
 935              	.LFE145:
 937              	 .section .text.xQueueGiveMutexRecursive,"ax",%progbits
 938              	 .align 2
 939              	 .global xQueueGiveMutexRecursive
 940              	 .thumb
 941              	 .thumb_func
 943              	xQueueGiveMutexRecursive:
 944              	.LFB146:
 610:../Dave/Generated/FREERTOS/queue.c **** 
 611:../Dave/Generated/FREERTOS/queue.c **** #endif /* if ( ( configUSE_MUTEXES == 1 ) && ( INCLUDE_xSemaphoreGetMutexHolder == 1 ) ) */
 612:../Dave/Generated/FREERTOS/queue.c **** /*-----------------------------------------------------------*/
 613:../Dave/Generated/FREERTOS/queue.c **** 
 614:../Dave/Generated/FREERTOS/queue.c **** #if ( configUSE_RECURSIVE_MUTEXES == 1 )
 615:../Dave/Generated/FREERTOS/queue.c **** 
 616:../Dave/Generated/FREERTOS/queue.c ****     BaseType_t xQueueGiveMutexRecursive( QueueHandle_t xMutex )
 617:../Dave/Generated/FREERTOS/queue.c ****     {
 945              	 .loc 1 617 0
 946              	 .cfi_startproc
 947              	 
 948              	 
 949 0000 90B5     	 push {r4,r7,lr}
 950              	.LCFI46:
 951              	 .cfi_def_cfa_offset 12
 952              	 .cfi_offset 4,-12
 953              	 .cfi_offset 7,-8
 954              	 .cfi_offset 14,-4
 955 0002 87B0     	 sub sp,sp,#28
 956              	.LCFI47:
 957              	 .cfi_def_cfa_offset 40
 958 0004 00AF     	 add r7,sp,#0
 959              	.LCFI48:
 960              	 .cfi_def_cfa_register 7
 961 0006 7860     	 str r0,[r7,#4]
 618:../Dave/Generated/FREERTOS/queue.c ****         BaseType_t xReturn;
 619:../Dave/Generated/FREERTOS/queue.c ****         Queue_t * const pxMutex = ( Queue_t * ) xMutex;
 962              	 .loc 1 619 0
 963 0008 7B68     	 ldr r3,[r7,#4]
 964 000a 3B61     	 str r3,[r7,#16]
 620:../Dave/Generated/FREERTOS/queue.c **** 
 621:../Dave/Generated/FREERTOS/queue.c ****         configASSERT( pxMutex );
 965              	 .loc 1 621 0
 966 000c 3B69     	 ldr r3,[r7,#16]
 967 000e 002B     	 cmp r3,#0
 968 0010 09D1     	 bne .L60
 969              	.LBB157:
 970              	.LBB158:
 971              	 .loc 2 197 0 discriminator 1
 972              	
 973 0012 4FF0FC03 	 mov r3,#252
 974 0016 83F31188 	 msr basepri,r3
 975 001a BFF36F8F 	 isb 
 976 001e BFF34F8F 	 dsb 
 977              	
 978              	
 979              	 .thumb
 980 0022 FB60     	 str r3,[r7,#12]
 981              	.L61:
 982              	.LBE158:
 983              	.LBE157:
 984              	 .loc 1 621 0 discriminator 1
 985 0024 FEE7     	 b .L61
 986              	.L60:
 622:../Dave/Generated/FREERTOS/queue.c **** 
 623:../Dave/Generated/FREERTOS/queue.c ****         /* If this is the task that holds the mutex then xMutexHolder will not
 624:../Dave/Generated/FREERTOS/queue.c ****          * change outside of this task.  If this task does not hold the mutex then
 625:../Dave/Generated/FREERTOS/queue.c ****          * pxMutexHolder can never coincidentally equal the tasks handle, and as
 626:../Dave/Generated/FREERTOS/queue.c ****          * this is the only condition we are interested in it does not matter if
 627:../Dave/Generated/FREERTOS/queue.c ****          * pxMutexHolder is accessed simultaneously by another task.  Therefore no
 628:../Dave/Generated/FREERTOS/queue.c ****          * mutual exclusion is required to test the pxMutexHolder variable. */
 629:../Dave/Generated/FREERTOS/queue.c ****         if( pxMutex->u.xSemaphore.xMutexHolder == xTaskGetCurrentTaskHandle() )
 987              	 .loc 1 629 0
 988 0026 3B69     	 ldr r3,[r7,#16]
 989 0028 9C68     	 ldr r4,[r3,#8]
 990 002a FFF7FEFF 	 bl xTaskGetCurrentTaskHandle
 991 002e 0346     	 mov r3,r0
 992 0030 9C42     	 cmp r4,r3
 993 0032 11D1     	 bne .L62
 630:../Dave/Generated/FREERTOS/queue.c ****         {
 631:../Dave/Generated/FREERTOS/queue.c ****             traceGIVE_MUTEX_RECURSIVE( pxMutex );
 632:../Dave/Generated/FREERTOS/queue.c **** 
 633:../Dave/Generated/FREERTOS/queue.c ****             /* uxRecursiveCallCount cannot be zero if xMutexHolder is equal to
 634:../Dave/Generated/FREERTOS/queue.c ****              * the task handle, therefore no underflow check is required.  Also,
 635:../Dave/Generated/FREERTOS/queue.c ****              * uxRecursiveCallCount is only modified by the mutex holder, and as
 636:../Dave/Generated/FREERTOS/queue.c ****              * there can only be one, no mutual exclusion is required to modify the
 637:../Dave/Generated/FREERTOS/queue.c ****              * uxRecursiveCallCount member. */
 638:../Dave/Generated/FREERTOS/queue.c ****             ( pxMutex->u.xSemaphore.uxRecursiveCallCount )--;
 994              	 .loc 1 638 0
 995 0034 3B69     	 ldr r3,[r7,#16]
 996 0036 DB68     	 ldr r3,[r3,#12]
 997 0038 5A1E     	 subs r2,r3,#1
 998 003a 3B69     	 ldr r3,[r7,#16]
 999 003c DA60     	 str r2,[r3,#12]
 639:../Dave/Generated/FREERTOS/queue.c **** 
 640:../Dave/Generated/FREERTOS/queue.c ****             /* Has the recursive call count unwound to 0? */
 641:../Dave/Generated/FREERTOS/queue.c ****             if( pxMutex->u.xSemaphore.uxRecursiveCallCount == ( UBaseType_t ) 0 )
 1000              	 .loc 1 641 0
 1001 003e 3B69     	 ldr r3,[r7,#16]
 1002 0040 DB68     	 ldr r3,[r3,#12]
 1003 0042 002B     	 cmp r3,#0
 1004 0044 05D1     	 bne .L63
 642:../Dave/Generated/FREERTOS/queue.c ****             {
 643:../Dave/Generated/FREERTOS/queue.c ****                 /* Return the mutex.  This will automatically unblock any other
 644:../Dave/Generated/FREERTOS/queue.c ****                  * task that might be waiting to access the mutex. */
 645:../Dave/Generated/FREERTOS/queue.c ****                 ( void ) xQueueGenericSend( pxMutex, NULL, queueMUTEX_GIVE_BLOCK_TIME, queueSEND_TO
 1005              	 .loc 1 645 0
 1006 0046 3869     	 ldr r0,[r7,#16]
 1007 0048 0021     	 movs r1,#0
 1008 004a 0022     	 movs r2,#0
 1009 004c 0023     	 movs r3,#0
 1010 004e FFF7FEFF 	 bl xQueueGenericSend
 1011              	.L63:
 646:../Dave/Generated/FREERTOS/queue.c ****             }
 647:../Dave/Generated/FREERTOS/queue.c ****             else
 648:../Dave/Generated/FREERTOS/queue.c ****             {
 649:../Dave/Generated/FREERTOS/queue.c ****                 mtCOVERAGE_TEST_MARKER();
 650:../Dave/Generated/FREERTOS/queue.c ****             }
 651:../Dave/Generated/FREERTOS/queue.c **** 
 652:../Dave/Generated/FREERTOS/queue.c ****             xReturn = pdPASS;
 1012              	 .loc 1 652 0
 1013 0052 0123     	 movs r3,#1
 1014 0054 7B61     	 str r3,[r7,#20]
 1015 0056 01E0     	 b .L64
 1016              	.L62:
 653:../Dave/Generated/FREERTOS/queue.c ****         }
 654:../Dave/Generated/FREERTOS/queue.c ****         else
 655:../Dave/Generated/FREERTOS/queue.c ****         {
 656:../Dave/Generated/FREERTOS/queue.c ****             /* The mutex cannot be given because the calling task is not the
 657:../Dave/Generated/FREERTOS/queue.c ****              * holder. */
 658:../Dave/Generated/FREERTOS/queue.c ****             xReturn = pdFAIL;
 1017              	 .loc 1 658 0
 1018 0058 0023     	 movs r3,#0
 1019 005a 7B61     	 str r3,[r7,#20]
 1020              	.L64:
 659:../Dave/Generated/FREERTOS/queue.c **** 
 660:../Dave/Generated/FREERTOS/queue.c ****             traceGIVE_MUTEX_RECURSIVE_FAILED( pxMutex );
 661:../Dave/Generated/FREERTOS/queue.c ****         }
 662:../Dave/Generated/FREERTOS/queue.c **** 
 663:../Dave/Generated/FREERTOS/queue.c ****         return xReturn;
 1021              	 .loc 1 663 0
 1022 005c 7B69     	 ldr r3,[r7,#20]
 664:../Dave/Generated/FREERTOS/queue.c ****     }
 1023              	 .loc 1 664 0
 1024 005e 1846     	 mov r0,r3
 1025 0060 1C37     	 adds r7,r7,#28
 1026              	.LCFI49:
 1027              	 .cfi_def_cfa_offset 12
 1028 0062 BD46     	 mov sp,r7
 1029              	.LCFI50:
 1030              	 .cfi_def_cfa_register 13
 1031              	 
 1032 0064 90BD     	 pop {r4,r7,pc}
 1033              	 .cfi_endproc
 1034              	.LFE146:
 1036 0066 00BF     	 .section .text.xQueueTakeMutexRecursive,"ax",%progbits
 1037              	 .align 2
 1038              	 .global xQueueTakeMutexRecursive
 1039              	 .thumb
 1040              	 .thumb_func
 1042              	xQueueTakeMutexRecursive:
 1043              	.LFB147:
 665:../Dave/Generated/FREERTOS/queue.c **** 
 666:../Dave/Generated/FREERTOS/queue.c **** #endif /* configUSE_RECURSIVE_MUTEXES */
 667:../Dave/Generated/FREERTOS/queue.c **** /*-----------------------------------------------------------*/
 668:../Dave/Generated/FREERTOS/queue.c **** 
 669:../Dave/Generated/FREERTOS/queue.c **** #if ( configUSE_RECURSIVE_MUTEXES == 1 )
 670:../Dave/Generated/FREERTOS/queue.c **** 
 671:../Dave/Generated/FREERTOS/queue.c ****     BaseType_t xQueueTakeMutexRecursive( QueueHandle_t xMutex,
 672:../Dave/Generated/FREERTOS/queue.c ****                                          TickType_t xTicksToWait )
 673:../Dave/Generated/FREERTOS/queue.c ****     {
 1044              	 .loc 1 673 0
 1045              	 .cfi_startproc
 1046              	 
 1047              	 
 1048 0000 90B5     	 push {r4,r7,lr}
 1049              	.LCFI51:
 1050              	 .cfi_def_cfa_offset 12
 1051              	 .cfi_offset 4,-12
 1052              	 .cfi_offset 7,-8
 1053              	 .cfi_offset 14,-4
 1054 0002 87B0     	 sub sp,sp,#28
 1055              	.LCFI52:
 1056              	 .cfi_def_cfa_offset 40
 1057 0004 00AF     	 add r7,sp,#0
 1058              	.LCFI53:
 1059              	 .cfi_def_cfa_register 7
 1060 0006 7860     	 str r0,[r7,#4]
 1061 0008 3960     	 str r1,[r7]
 674:../Dave/Generated/FREERTOS/queue.c ****         BaseType_t xReturn;
 675:../Dave/Generated/FREERTOS/queue.c ****         Queue_t * const pxMutex = ( Queue_t * ) xMutex;
 1062              	 .loc 1 675 0
 1063 000a 7B68     	 ldr r3,[r7,#4]
 1064 000c 3B61     	 str r3,[r7,#16]
 676:../Dave/Generated/FREERTOS/queue.c **** 
 677:../Dave/Generated/FREERTOS/queue.c ****         configASSERT( pxMutex );
 1065              	 .loc 1 677 0
 1066 000e 3B69     	 ldr r3,[r7,#16]
 1067 0010 002B     	 cmp r3,#0
 1068 0012 09D1     	 bne .L67
 1069              	.LBB159:
 1070              	.LBB160:
 1071              	 .loc 2 197 0 discriminator 1
 1072              	
 1073 0014 4FF0FC03 	 mov r3,#252
 1074 0018 83F31188 	 msr basepri,r3
 1075 001c BFF36F8F 	 isb 
 1076 0020 BFF34F8F 	 dsb 
 1077              	
 1078              	
 1079              	 .thumb
 1080 0024 FB60     	 str r3,[r7,#12]
 1081              	.L68:
 1082              	.LBE160:
 1083              	.LBE159:
 1084              	 .loc 1 677 0 discriminator 1
 1085 0026 FEE7     	 b .L68
 1086              	.L67:
 678:../Dave/Generated/FREERTOS/queue.c **** 
 679:../Dave/Generated/FREERTOS/queue.c ****         /* Comments regarding mutual exclusion as per those within
 680:../Dave/Generated/FREERTOS/queue.c ****          * xQueueGiveMutexRecursive(). */
 681:../Dave/Generated/FREERTOS/queue.c **** 
 682:../Dave/Generated/FREERTOS/queue.c ****         traceTAKE_MUTEX_RECURSIVE( pxMutex );
 683:../Dave/Generated/FREERTOS/queue.c **** 
 684:../Dave/Generated/FREERTOS/queue.c ****         if( pxMutex->u.xSemaphore.xMutexHolder == xTaskGetCurrentTaskHandle() )
 1087              	 .loc 1 684 0
 1088 0028 3B69     	 ldr r3,[r7,#16]
 1089 002a 9C68     	 ldr r4,[r3,#8]
 1090 002c FFF7FEFF 	 bl xTaskGetCurrentTaskHandle
 1091 0030 0346     	 mov r3,r0
 1092 0032 9C42     	 cmp r4,r3
 1093 0034 07D1     	 bne .L69
 685:../Dave/Generated/FREERTOS/queue.c ****         {
 686:../Dave/Generated/FREERTOS/queue.c ****             ( pxMutex->u.xSemaphore.uxRecursiveCallCount )++;
 1094              	 .loc 1 686 0
 1095 0036 3B69     	 ldr r3,[r7,#16]
 1096 0038 DB68     	 ldr r3,[r3,#12]
 1097 003a 5A1C     	 adds r2,r3,#1
 1098 003c 3B69     	 ldr r3,[r7,#16]
 1099 003e DA60     	 str r2,[r3,#12]
 687:../Dave/Generated/FREERTOS/queue.c ****             xReturn = pdPASS;
 1100              	 .loc 1 687 0
 1101 0040 0123     	 movs r3,#1
 1102 0042 7B61     	 str r3,[r7,#20]
 1103 0044 0CE0     	 b .L70
 1104              	.L69:
 688:../Dave/Generated/FREERTOS/queue.c ****         }
 689:../Dave/Generated/FREERTOS/queue.c ****         else
 690:../Dave/Generated/FREERTOS/queue.c ****         {
 691:../Dave/Generated/FREERTOS/queue.c ****             xReturn = xQueueSemaphoreTake( pxMutex, xTicksToWait );
 1105              	 .loc 1 691 0
 1106 0046 3869     	 ldr r0,[r7,#16]
 1107 0048 3968     	 ldr r1,[r7]
 1108 004a FFF7FEFF 	 bl xQueueSemaphoreTake
 1109 004e 7861     	 str r0,[r7,#20]
 692:../Dave/Generated/FREERTOS/queue.c **** 
 693:../Dave/Generated/FREERTOS/queue.c ****             /* pdPASS will only be returned if the mutex was successfully
 694:../Dave/Generated/FREERTOS/queue.c ****              * obtained.  The calling task may have entered the Blocked state
 695:../Dave/Generated/FREERTOS/queue.c ****              * before reaching here. */
 696:../Dave/Generated/FREERTOS/queue.c ****             if( xReturn != pdFAIL )
 1110              	 .loc 1 696 0
 1111 0050 7B69     	 ldr r3,[r7,#20]
 1112 0052 002B     	 cmp r3,#0
 1113 0054 04D0     	 beq .L70
 697:../Dave/Generated/FREERTOS/queue.c ****             {
 698:../Dave/Generated/FREERTOS/queue.c ****                 ( pxMutex->u.xSemaphore.uxRecursiveCallCount )++;
 1114              	 .loc 1 698 0
 1115 0056 3B69     	 ldr r3,[r7,#16]
 1116 0058 DB68     	 ldr r3,[r3,#12]
 1117 005a 5A1C     	 adds r2,r3,#1
 1118 005c 3B69     	 ldr r3,[r7,#16]
 1119 005e DA60     	 str r2,[r3,#12]
 1120              	.L70:
 699:../Dave/Generated/FREERTOS/queue.c ****             }
 700:../Dave/Generated/FREERTOS/queue.c ****             else
 701:../Dave/Generated/FREERTOS/queue.c ****             {
 702:../Dave/Generated/FREERTOS/queue.c ****                 traceTAKE_MUTEX_RECURSIVE_FAILED( pxMutex );
 703:../Dave/Generated/FREERTOS/queue.c ****             }
 704:../Dave/Generated/FREERTOS/queue.c ****         }
 705:../Dave/Generated/FREERTOS/queue.c **** 
 706:../Dave/Generated/FREERTOS/queue.c ****         return xReturn;
 1121              	 .loc 1 706 0
 1122 0060 7B69     	 ldr r3,[r7,#20]
 707:../Dave/Generated/FREERTOS/queue.c ****     }
 1123              	 .loc 1 707 0
 1124 0062 1846     	 mov r0,r3
 1125 0064 1C37     	 adds r7,r7,#28
 1126              	.LCFI54:
 1127              	 .cfi_def_cfa_offset 12
 1128 0066 BD46     	 mov sp,r7
 1129              	.LCFI55:
 1130              	 .cfi_def_cfa_register 13
 1131              	 
 1132 0068 90BD     	 pop {r4,r7,pc}
 1133              	 .cfi_endproc
 1134              	.LFE147:
 1136 006a 00BF     	 .section .text.xQueueCreateCountingSemaphoreStatic,"ax",%progbits
 1137              	 .align 2
 1138              	 .global xQueueCreateCountingSemaphoreStatic
 1139              	 .thumb
 1140              	 .thumb_func
 1142              	xQueueCreateCountingSemaphoreStatic:
 1143              	.LFB148:
 708:../Dave/Generated/FREERTOS/queue.c **** 
 709:../Dave/Generated/FREERTOS/queue.c **** #endif /* configUSE_RECURSIVE_MUTEXES */
 710:../Dave/Generated/FREERTOS/queue.c **** /*-----------------------------------------------------------*/
 711:../Dave/Generated/FREERTOS/queue.c **** 
 712:../Dave/Generated/FREERTOS/queue.c **** #if ( ( configUSE_COUNTING_SEMAPHORES == 1 ) && ( configSUPPORT_STATIC_ALLOCATION == 1 ) )
 713:../Dave/Generated/FREERTOS/queue.c **** 
 714:../Dave/Generated/FREERTOS/queue.c ****     QueueHandle_t xQueueCreateCountingSemaphoreStatic( const UBaseType_t uxMaxCount,
 715:../Dave/Generated/FREERTOS/queue.c ****                                                        const UBaseType_t uxInitialCount,
 716:../Dave/Generated/FREERTOS/queue.c ****                                                        StaticQueue_t * pxStaticQueue )
 717:../Dave/Generated/FREERTOS/queue.c ****     {
 1144              	 .loc 1 717 0
 1145              	 .cfi_startproc
 1146              	 
 1147              	 
 1148 0000 80B5     	 push {r7,lr}
 1149              	.LCFI56:
 1150              	 .cfi_def_cfa_offset 8
 1151              	 .cfi_offset 7,-8
 1152              	 .cfi_offset 14,-4
 1153 0002 8AB0     	 sub sp,sp,#40
 1154              	.LCFI57:
 1155              	 .cfi_def_cfa_offset 48
 1156 0004 02AF     	 add r7,sp,#8
 1157              	.LCFI58:
 1158              	 .cfi_def_cfa 7,40
 1159 0006 F860     	 str r0,[r7,#12]
 1160 0008 B960     	 str r1,[r7,#8]
 1161 000a 7A60     	 str r2,[r7,#4]
 718:../Dave/Generated/FREERTOS/queue.c ****         QueueHandle_t xHandle;
 719:../Dave/Generated/FREERTOS/queue.c **** 
 720:../Dave/Generated/FREERTOS/queue.c ****         configASSERT( uxMaxCount != 0 );
 1162              	 .loc 1 720 0
 1163 000c FB68     	 ldr r3,[r7,#12]
 1164 000e 002B     	 cmp r3,#0
 1165 0010 09D1     	 bne .L73
 1166              	.LBB161:
 1167              	.LBB162:
 1168              	 .loc 2 197 0 discriminator 1
 1169              	
 1170 0012 4FF0FC03 	 mov r3,#252
 1171 0016 83F31188 	 msr basepri,r3
 1172 001a BFF36F8F 	 isb 
 1173 001e BFF34F8F 	 dsb 
 1174              	
 1175              	
 1176              	 .thumb
 1177 0022 BB61     	 str r3,[r7,#24]
 1178              	.L74:
 1179              	.LBE162:
 1180              	.LBE161:
 1181              	 .loc 1 720 0 discriminator 1
 1182 0024 FEE7     	 b .L74
 1183              	.L73:
 721:../Dave/Generated/FREERTOS/queue.c ****         configASSERT( uxInitialCount <= uxMaxCount );
 1184              	 .loc 1 721 0
 1185 0026 BA68     	 ldr r2,[r7,#8]
 1186 0028 FB68     	 ldr r3,[r7,#12]
 1187 002a 9A42     	 cmp r2,r3
 1188 002c 09D9     	 bls .L75
 1189              	.LBB163:
 1190              	.LBB164:
 1191              	 .loc 2 197 0 discriminator 1
 1192              	
 1193 002e 4FF0FC03 	 mov r3,#252
 1194 0032 83F31188 	 msr basepri,r3
 1195 0036 BFF36F8F 	 isb 
 1196 003a BFF34F8F 	 dsb 
 1197              	
 1198              	
 1199              	 .thumb
 1200 003e 7B61     	 str r3,[r7,#20]
 1201              	.L76:
 1202              	.LBE164:
 1203              	.LBE163:
 1204              	 .loc 1 721 0 discriminator 2
 1205 0040 FEE7     	 b .L76
 1206              	.L75:
 722:../Dave/Generated/FREERTOS/queue.c **** 
 723:../Dave/Generated/FREERTOS/queue.c ****         xHandle = xQueueGenericCreateStatic( uxMaxCount, queueSEMAPHORE_QUEUE_ITEM_LENGTH, NULL, px
 1207              	 .loc 1 723 0
 1208 0042 0223     	 movs r3,#2
 1209 0044 0093     	 str r3,[sp]
 1210 0046 F868     	 ldr r0,[r7,#12]
 1211 0048 0021     	 movs r1,#0
 1212 004a 0022     	 movs r2,#0
 1213 004c 7B68     	 ldr r3,[r7,#4]
 1214 004e FFF7FEFF 	 bl xQueueGenericCreateStatic
 1215 0052 F861     	 str r0,[r7,#28]
 724:../Dave/Generated/FREERTOS/queue.c **** 
 725:../Dave/Generated/FREERTOS/queue.c ****         if( xHandle != NULL )
 1216              	 .loc 1 725 0
 1217 0054 FB69     	 ldr r3,[r7,#28]
 1218 0056 002B     	 cmp r3,#0
 1219 0058 02D0     	 beq .L77
 726:../Dave/Generated/FREERTOS/queue.c ****         {
 727:../Dave/Generated/FREERTOS/queue.c ****             ( ( Queue_t * ) xHandle )->uxMessagesWaiting = uxInitialCount;
 1220              	 .loc 1 727 0
 1221 005a FB69     	 ldr r3,[r7,#28]
 1222 005c BA68     	 ldr r2,[r7,#8]
 1223 005e 9A63     	 str r2,[r3,#56]
 1224              	.L77:
 728:../Dave/Generated/FREERTOS/queue.c **** 
 729:../Dave/Generated/FREERTOS/queue.c ****             traceCREATE_COUNTING_SEMAPHORE();
 730:../Dave/Generated/FREERTOS/queue.c ****         }
 731:../Dave/Generated/FREERTOS/queue.c ****         else
 732:../Dave/Generated/FREERTOS/queue.c ****         {
 733:../Dave/Generated/FREERTOS/queue.c ****             traceCREATE_COUNTING_SEMAPHORE_FAILED();
 734:../Dave/Generated/FREERTOS/queue.c ****         }
 735:../Dave/Generated/FREERTOS/queue.c **** 
 736:../Dave/Generated/FREERTOS/queue.c ****         return xHandle;
 1225              	 .loc 1 736 0
 1226 0060 FB69     	 ldr r3,[r7,#28]
 737:../Dave/Generated/FREERTOS/queue.c ****     }
 1227              	 .loc 1 737 0
 1228 0062 1846     	 mov r0,r3
 1229 0064 2037     	 adds r7,r7,#32
 1230              	.LCFI59:
 1231              	 .cfi_def_cfa_offset 8
 1232 0066 BD46     	 mov sp,r7
 1233              	.LCFI60:
 1234              	 .cfi_def_cfa_register 13
 1235              	 
 1236 0068 80BD     	 pop {r7,pc}
 1237              	 .cfi_endproc
 1238              	.LFE148:
 1240 006a 00BF     	 .section .text.xQueueCreateCountingSemaphore,"ax",%progbits
 1241              	 .align 2
 1242              	 .global xQueueCreateCountingSemaphore
 1243              	 .thumb
 1244              	 .thumb_func
 1246              	xQueueCreateCountingSemaphore:
 1247              	.LFB149:
 738:../Dave/Generated/FREERTOS/queue.c **** 
 739:../Dave/Generated/FREERTOS/queue.c **** #endif /* ( ( configUSE_COUNTING_SEMAPHORES == 1 ) && ( configSUPPORT_DYNAMIC_ALLOCATION == 1 ) ) *
 740:../Dave/Generated/FREERTOS/queue.c **** /*-----------------------------------------------------------*/
 741:../Dave/Generated/FREERTOS/queue.c **** 
 742:../Dave/Generated/FREERTOS/queue.c **** #if ( ( configUSE_COUNTING_SEMAPHORES == 1 ) && ( configSUPPORT_DYNAMIC_ALLOCATION == 1 ) )
 743:../Dave/Generated/FREERTOS/queue.c **** 
 744:../Dave/Generated/FREERTOS/queue.c ****     QueueHandle_t xQueueCreateCountingSemaphore( const UBaseType_t uxMaxCount,
 745:../Dave/Generated/FREERTOS/queue.c ****                                                  const UBaseType_t uxInitialCount )
 746:../Dave/Generated/FREERTOS/queue.c ****     {
 1248              	 .loc 1 746 0
 1249              	 .cfi_startproc
 1250              	 
 1251              	 
 1252 0000 80B5     	 push {r7,lr}
 1253              	.LCFI61:
 1254              	 .cfi_def_cfa_offset 8
 1255              	 .cfi_offset 7,-8
 1256              	 .cfi_offset 14,-4
 1257 0002 86B0     	 sub sp,sp,#24
 1258              	.LCFI62:
 1259              	 .cfi_def_cfa_offset 32
 1260 0004 00AF     	 add r7,sp,#0
 1261              	.LCFI63:
 1262              	 .cfi_def_cfa_register 7
 1263 0006 7860     	 str r0,[r7,#4]
 1264 0008 3960     	 str r1,[r7]
 747:../Dave/Generated/FREERTOS/queue.c ****         QueueHandle_t xHandle;
 748:../Dave/Generated/FREERTOS/queue.c **** 
 749:../Dave/Generated/FREERTOS/queue.c ****         configASSERT( uxMaxCount != 0 );
 1265              	 .loc 1 749 0
 1266 000a 7B68     	 ldr r3,[r7,#4]
 1267 000c 002B     	 cmp r3,#0
 1268 000e 09D1     	 bne .L80
 1269              	.LBB165:
 1270              	.LBB166:
 1271              	 .loc 2 197 0 discriminator 1
 1272              	
 1273 0010 4FF0FC03 	 mov r3,#252
 1274 0014 83F31188 	 msr basepri,r3
 1275 0018 BFF36F8F 	 isb 
 1276 001c BFF34F8F 	 dsb 
 1277              	
 1278              	
 1279              	 .thumb
 1280 0020 3B61     	 str r3,[r7,#16]
 1281              	.L81:
 1282              	.LBE166:
 1283              	.LBE165:
 1284              	 .loc 1 749 0 discriminator 1
 1285 0022 FEE7     	 b .L81
 1286              	.L80:
 750:../Dave/Generated/FREERTOS/queue.c ****         configASSERT( uxInitialCount <= uxMaxCount );
 1287              	 .loc 1 750 0
 1288 0024 3A68     	 ldr r2,[r7]
 1289 0026 7B68     	 ldr r3,[r7,#4]
 1290 0028 9A42     	 cmp r2,r3
 1291 002a 09D9     	 bls .L82
 1292              	.LBB167:
 1293              	.LBB168:
 1294              	 .loc 2 197 0 discriminator 1
 1295              	
 1296 002c 4FF0FC03 	 mov r3,#252
 1297 0030 83F31188 	 msr basepri,r3
 1298 0034 BFF36F8F 	 isb 
 1299 0038 BFF34F8F 	 dsb 
 1300              	
 1301              	
 1302              	 .thumb
 1303 003c FB60     	 str r3,[r7,#12]
 1304              	.L83:
 1305              	.LBE168:
 1306              	.LBE167:
 1307              	 .loc 1 750 0 discriminator 2
 1308 003e FEE7     	 b .L83
 1309              	.L82:
 751:../Dave/Generated/FREERTOS/queue.c **** 
 752:../Dave/Generated/FREERTOS/queue.c ****         xHandle = xQueueGenericCreate( uxMaxCount, queueSEMAPHORE_QUEUE_ITEM_LENGTH, queueQUEUE_TYP
 1310              	 .loc 1 752 0
 1311 0040 7868     	 ldr r0,[r7,#4]
 1312 0042 0021     	 movs r1,#0
 1313 0044 0222     	 movs r2,#2
 1314 0046 FFF7FEFF 	 bl xQueueGenericCreate
 1315 004a 7861     	 str r0,[r7,#20]
 753:../Dave/Generated/FREERTOS/queue.c **** 
 754:../Dave/Generated/FREERTOS/queue.c ****         if( xHandle != NULL )
 1316              	 .loc 1 754 0
 1317 004c 7B69     	 ldr r3,[r7,#20]
 1318 004e 002B     	 cmp r3,#0
 1319 0050 02D0     	 beq .L84
 755:../Dave/Generated/FREERTOS/queue.c ****         {
 756:../Dave/Generated/FREERTOS/queue.c ****             ( ( Queue_t * ) xHandle )->uxMessagesWaiting = uxInitialCount;
 1320              	 .loc 1 756 0
 1321 0052 7B69     	 ldr r3,[r7,#20]
 1322 0054 3A68     	 ldr r2,[r7]
 1323 0056 9A63     	 str r2,[r3,#56]
 1324              	.L84:
 757:../Dave/Generated/FREERTOS/queue.c **** 
 758:../Dave/Generated/FREERTOS/queue.c ****             traceCREATE_COUNTING_SEMAPHORE();
 759:../Dave/Generated/FREERTOS/queue.c ****         }
 760:../Dave/Generated/FREERTOS/queue.c ****         else
 761:../Dave/Generated/FREERTOS/queue.c ****         {
 762:../Dave/Generated/FREERTOS/queue.c ****             traceCREATE_COUNTING_SEMAPHORE_FAILED();
 763:../Dave/Generated/FREERTOS/queue.c ****         }
 764:../Dave/Generated/FREERTOS/queue.c **** 
 765:../Dave/Generated/FREERTOS/queue.c ****         return xHandle;
 1325              	 .loc 1 765 0
 1326 0058 7B69     	 ldr r3,[r7,#20]
 766:../Dave/Generated/FREERTOS/queue.c ****     }
 1327              	 .loc 1 766 0
 1328 005a 1846     	 mov r0,r3
 1329 005c 1837     	 adds r7,r7,#24
 1330              	.LCFI64:
 1331              	 .cfi_def_cfa_offset 8
 1332 005e BD46     	 mov sp,r7
 1333              	.LCFI65:
 1334              	 .cfi_def_cfa_register 13
 1335              	 
 1336 0060 80BD     	 pop {r7,pc}
 1337              	 .cfi_endproc
 1338              	.LFE149:
 1340 0062 00BF     	 .section .text.xQueueGenericSend,"ax",%progbits
 1341              	 .align 2
 1342              	 .global xQueueGenericSend
 1343              	 .thumb
 1344              	 .thumb_func
 1346              	xQueueGenericSend:
 1347              	.LFB150:
 767:../Dave/Generated/FREERTOS/queue.c **** 
 768:../Dave/Generated/FREERTOS/queue.c **** #endif /* ( ( configUSE_COUNTING_SEMAPHORES == 1 ) && ( configSUPPORT_DYNAMIC_ALLOCATION == 1 ) ) *
 769:../Dave/Generated/FREERTOS/queue.c **** /*-----------------------------------------------------------*/
 770:../Dave/Generated/FREERTOS/queue.c **** 
 771:../Dave/Generated/FREERTOS/queue.c **** BaseType_t xQueueGenericSend( QueueHandle_t xQueue,
 772:../Dave/Generated/FREERTOS/queue.c ****                               const void * const pvItemToQueue,
 773:../Dave/Generated/FREERTOS/queue.c ****                               TickType_t xTicksToWait,
 774:../Dave/Generated/FREERTOS/queue.c ****                               const BaseType_t xCopyPosition )
 775:../Dave/Generated/FREERTOS/queue.c **** {
 1348              	 .loc 1 775 0
 1349              	 .cfi_startproc
 1350              	 
 1351              	 
 1352 0000 80B5     	 push {r7,lr}
 1353              	.LCFI66:
 1354              	 .cfi_def_cfa_offset 8
 1355              	 .cfi_offset 7,-8
 1356              	 .cfi_offset 14,-4
 1357 0002 8EB0     	 sub sp,sp,#56
 1358              	.LCFI67:
 1359              	 .cfi_def_cfa_offset 64
 1360 0004 00AF     	 add r7,sp,#0
 1361              	.LCFI68:
 1362              	 .cfi_def_cfa_register 7
 1363 0006 F860     	 str r0,[r7,#12]
 1364 0008 B960     	 str r1,[r7,#8]
 1365 000a 7A60     	 str r2,[r7,#4]
 1366 000c 3B60     	 str r3,[r7]
 776:../Dave/Generated/FREERTOS/queue.c ****     BaseType_t xEntryTimeSet = pdFALSE, xYieldRequired;
 1367              	 .loc 1 776 0
 1368 000e 0023     	 movs r3,#0
 1369 0010 7B63     	 str r3,[r7,#52]
 777:../Dave/Generated/FREERTOS/queue.c ****     TimeOut_t xTimeOut;
 778:../Dave/Generated/FREERTOS/queue.c ****     Queue_t * const pxQueue = xQueue;
 1370              	 .loc 1 778 0
 1371 0012 FB68     	 ldr r3,[r7,#12]
 1372 0014 3B63     	 str r3,[r7,#48]
 779:../Dave/Generated/FREERTOS/queue.c **** 
 780:../Dave/Generated/FREERTOS/queue.c ****     configASSERT( pxQueue );
 1373              	 .loc 1 780 0
 1374 0016 3B6B     	 ldr r3,[r7,#48]
 1375 0018 002B     	 cmp r3,#0
 1376 001a 09D1     	 bne .L87
 1377              	.LBB169:
 1378              	.LBB170:
 1379              	 .loc 2 197 0 discriminator 1
 1380              	
 1381 001c 4FF0FC03 	 mov r3,#252
 1382 0020 83F31188 	 msr basepri,r3
 1383 0024 BFF36F8F 	 isb 
 1384 0028 BFF34F8F 	 dsb 
 1385              	
 1386              	
 1387              	 .thumb
 1388 002c 7B62     	 str r3,[r7,#36]
 1389              	.L88:
 1390              	.LBE170:
 1391              	.LBE169:
 1392              	 .loc 1 780 0 discriminator 1
 1393 002e FEE7     	 b .L88
 1394              	.L87:
 781:../Dave/Generated/FREERTOS/queue.c ****     configASSERT( !( ( pvItemToQueue == NULL ) && ( pxQueue->uxItemSize != ( UBaseType_t ) 0U ) ) )
 1395              	 .loc 1 781 0
 1396 0030 BB68     	 ldr r3,[r7,#8]
 1397 0032 002B     	 cmp r3,#0
 1398 0034 03D1     	 bne .L89
 1399              	 .loc 1 781 0 is_stmt 0 discriminator 2
 1400 0036 3B6B     	 ldr r3,[r7,#48]
 1401 0038 1B6C     	 ldr r3,[r3,#64]
 1402 003a 002B     	 cmp r3,#0
 1403 003c 01D1     	 bne .L90
 1404              	.L89:
 1405              	 .loc 1 781 0 discriminator 3
 1406 003e 0123     	 movs r3,#1
 1407 0040 00E0     	 b .L91
 1408              	.L90:
 1409              	 .loc 1 781 0 discriminator 4
 1410 0042 0023     	 movs r3,#0
 1411              	.L91:
 1412              	 .loc 1 781 0 discriminator 6
 1413 0044 002B     	 cmp r3,#0
 1414 0046 09D1     	 bne .L92
 1415              	.LBB171:
 1416              	.LBB172:
 1417              	 .loc 2 197 0 is_stmt 1 discriminator 7
 1418              	
 1419 0048 4FF0FC03 	 mov r3,#252
 1420 004c 83F31188 	 msr basepri,r3
 1421 0050 BFF36F8F 	 isb 
 1422 0054 BFF34F8F 	 dsb 
 1423              	
 1424              	
 1425              	 .thumb
 1426 0058 3B62     	 str r3,[r7,#32]
 1427              	.L93:
 1428              	.LBE172:
 1429              	.LBE171:
 1430              	 .loc 1 781 0 discriminator 2
 1431 005a FEE7     	 b .L93
 1432              	.L92:
 782:../Dave/Generated/FREERTOS/queue.c ****     configASSERT( !( ( xCopyPosition == queueOVERWRITE ) && ( pxQueue->uxLength != 1 ) ) );
 1433              	 .loc 1 782 0
 1434 005c 3B68     	 ldr r3,[r7]
 1435 005e 022B     	 cmp r3,#2
 1436 0060 03D1     	 bne .L94
 1437              	 .loc 1 782 0 is_stmt 0 discriminator 2
 1438 0062 3B6B     	 ldr r3,[r7,#48]
 1439 0064 DB6B     	 ldr r3,[r3,#60]
 1440 0066 012B     	 cmp r3,#1
 1441 0068 01D1     	 bne .L95
 1442              	.L94:
 1443              	 .loc 1 782 0 discriminator 3
 1444 006a 0123     	 movs r3,#1
 1445 006c 00E0     	 b .L96
 1446              	.L95:
 1447              	 .loc 1 782 0 discriminator 4
 1448 006e 0023     	 movs r3,#0
 1449              	.L96:
 1450              	 .loc 1 782 0 discriminator 6
 1451 0070 002B     	 cmp r3,#0
 1452 0072 09D1     	 bne .L97
 1453              	.LBB173:
 1454              	.LBB174:
 1455              	 .loc 2 197 0 is_stmt 1 discriminator 7
 1456              	
 1457 0074 4FF0FC03 	 mov r3,#252
 1458 0078 83F31188 	 msr basepri,r3
 1459 007c BFF36F8F 	 isb 
 1460 0080 BFF34F8F 	 dsb 
 1461              	
 1462              	
 1463              	 .thumb
 1464 0084 FB61     	 str r3,[r7,#28]
 1465              	.L98:
 1466              	.LBE174:
 1467              	.LBE173:
 1468              	 .loc 1 782 0 discriminator 3
 1469 0086 FEE7     	 b .L98
 1470              	.L97:
 783:../Dave/Generated/FREERTOS/queue.c ****     #if ( ( INCLUDE_xTaskGetSchedulerState == 1 ) || ( configUSE_TIMERS == 1 ) )
 784:../Dave/Generated/FREERTOS/queue.c ****         {
 785:../Dave/Generated/FREERTOS/queue.c ****             configASSERT( !( ( xTaskGetSchedulerState() == taskSCHEDULER_SUSPENDED ) && ( xTicksToW
 1471              	 .loc 1 785 0
 1472 0088 FFF7FEFF 	 bl xTaskGetSchedulerState
 1473 008c 0346     	 mov r3,r0
 1474 008e 002B     	 cmp r3,#0
 1475 0090 02D1     	 bne .L99
 1476              	 .loc 1 785 0 is_stmt 0 discriminator 2
 1477 0092 7B68     	 ldr r3,[r7,#4]
 1478 0094 002B     	 cmp r3,#0
 1479 0096 01D1     	 bne .L100
 1480              	.L99:
 1481              	 .loc 1 785 0 discriminator 3
 1482 0098 0123     	 movs r3,#1
 1483 009a 00E0     	 b .L101
 1484              	.L100:
 1485              	 .loc 1 785 0 discriminator 4
 1486 009c 0023     	 movs r3,#0
 1487              	.L101:
 1488              	 .loc 1 785 0 discriminator 6
 1489 009e 002B     	 cmp r3,#0
 1490 00a0 09D1     	 bne .L102
 1491              	.LBB175:
 1492              	.LBB176:
 1493              	 .loc 2 197 0 is_stmt 1 discriminator 7
 1494              	
 1495 00a2 4FF0FC03 	 mov r3,#252
 1496 00a6 83F31188 	 msr basepri,r3
 1497 00aa BFF36F8F 	 isb 
 1498 00ae BFF34F8F 	 dsb 
 1499              	
 1500              	
 1501              	 .thumb
 1502 00b2 BB61     	 str r3,[r7,#24]
 1503              	.L103:
 1504              	.LBE176:
 1505              	.LBE175:
 1506              	 .loc 1 785 0 discriminator 4
 1507 00b4 FEE7     	 b .L103
 1508              	.L102:
 786:../Dave/Generated/FREERTOS/queue.c ****         }
 787:../Dave/Generated/FREERTOS/queue.c ****     #endif
 788:../Dave/Generated/FREERTOS/queue.c **** 
 789:../Dave/Generated/FREERTOS/queue.c ****     /*lint -save -e904 This function relaxes the coding standard somewhat to
 790:../Dave/Generated/FREERTOS/queue.c ****      * allow return statements within the function itself.  This is done in the
 791:../Dave/Generated/FREERTOS/queue.c ****      * interest of execution time efficiency. */
 792:../Dave/Generated/FREERTOS/queue.c ****     for( ; ; )
 793:../Dave/Generated/FREERTOS/queue.c ****     {
 794:../Dave/Generated/FREERTOS/queue.c ****         taskENTER_CRITICAL();
 1509              	 .loc 1 794 0
 1510 00b6 FFF7FEFF 	 bl vPortEnterCritical
 795:../Dave/Generated/FREERTOS/queue.c ****         {
 796:../Dave/Generated/FREERTOS/queue.c ****             /* Is there room on the queue now?  The running task must be the
 797:../Dave/Generated/FREERTOS/queue.c ****              * highest priority task wanting to access the queue.  If the head item
 798:../Dave/Generated/FREERTOS/queue.c ****              * in the queue is to be overwritten then it does not matter if the
 799:../Dave/Generated/FREERTOS/queue.c ****              * queue is full. */
 800:../Dave/Generated/FREERTOS/queue.c ****             if( ( pxQueue->uxMessagesWaiting < pxQueue->uxLength ) || ( xCopyPosition == queueOVERW
 1511              	 .loc 1 800 0
 1512 00ba 3B6B     	 ldr r3,[r7,#48]
 1513 00bc 9A6B     	 ldr r2,[r3,#56]
 1514 00be 3B6B     	 ldr r3,[r7,#48]
 1515 00c0 DB6B     	 ldr r3,[r3,#60]
 1516 00c2 9A42     	 cmp r2,r3
 1517 00c4 02D3     	 bcc .L104
 1518              	 .loc 1 800 0 is_stmt 0 discriminator 1
 1519 00c6 3B68     	 ldr r3,[r7]
 1520 00c8 022B     	 cmp r3,#2
 1521 00ca 47D1     	 bne .L105
 1522              	.L104:
 1523              	.LBB177:
 801:../Dave/Generated/FREERTOS/queue.c ****             {
 802:../Dave/Generated/FREERTOS/queue.c ****                 traceQUEUE_SEND( pxQueue );
 803:../Dave/Generated/FREERTOS/queue.c **** 
 804:../Dave/Generated/FREERTOS/queue.c ****                 #if ( configUSE_QUEUE_SETS == 1 )
 805:../Dave/Generated/FREERTOS/queue.c ****                     {
 806:../Dave/Generated/FREERTOS/queue.c ****                         const UBaseType_t uxPreviousMessagesWaiting = pxQueue->uxMessagesWaiting;
 1524              	 .loc 1 806 0 is_stmt 1
 1525 00cc 3B6B     	 ldr r3,[r7,#48]
 1526 00ce 9B6B     	 ldr r3,[r3,#56]
 1527 00d0 FB62     	 str r3,[r7,#44]
 807:../Dave/Generated/FREERTOS/queue.c **** 
 808:../Dave/Generated/FREERTOS/queue.c ****                         xYieldRequired = prvCopyDataToQueue( pxQueue, pvItemToQueue, xCopyPosition 
 1528              	 .loc 1 808 0
 1529 00d2 386B     	 ldr r0,[r7,#48]
 1530 00d4 B968     	 ldr r1,[r7,#8]
 1531 00d6 3A68     	 ldr r2,[r7]
 1532 00d8 FFF7FEFF 	 bl prvCopyDataToQueue
 1533 00dc B862     	 str r0,[r7,#40]
 809:../Dave/Generated/FREERTOS/queue.c **** 
 810:../Dave/Generated/FREERTOS/queue.c ****                         if( pxQueue->pxQueueSetContainer != NULL )
 1534              	 .loc 1 810 0
 1535 00de 3B6B     	 ldr r3,[r7,#48]
 1536 00e0 9B6C     	 ldr r3,[r3,#72]
 1537 00e2 002B     	 cmp r3,#0
 1538 00e4 16D0     	 beq .L106
 811:../Dave/Generated/FREERTOS/queue.c ****                         {
 812:../Dave/Generated/FREERTOS/queue.c ****                             if( ( xCopyPosition == queueOVERWRITE ) && ( uxPreviousMessagesWaiting 
 1539              	 .loc 1 812 0
 1540 00e6 3B68     	 ldr r3,[r7]
 1541 00e8 022B     	 cmp r3,#2
 1542 00ea 04D1     	 bne .L107
 1543              	 .loc 1 812 0 is_stmt 0 discriminator 1
 1544 00ec FB6A     	 ldr r3,[r7,#44]
 1545 00ee 002B     	 cmp r3,#0
 1546 00f0 01D0     	 beq .L107
 1547              	 .loc 1 812 0
 1548 00f2 00BF     	 nop
 1549 00f4 2EE0     	 b .L109
 1550              	.L107:
 813:../Dave/Generated/FREERTOS/queue.c ****                             {
 814:../Dave/Generated/FREERTOS/queue.c ****                                 /* Do not notify the queue set as an existing item
 815:../Dave/Generated/FREERTOS/queue.c ****                                  * was overwritten in the queue so the number of items
 816:../Dave/Generated/FREERTOS/queue.c ****                                  * in the queue has not changed. */
 817:../Dave/Generated/FREERTOS/queue.c ****                                 mtCOVERAGE_TEST_MARKER();
 818:../Dave/Generated/FREERTOS/queue.c ****                             }
 819:../Dave/Generated/FREERTOS/queue.c ****                             else if( prvNotifyQueueSetContainer( pxQueue ) != pdFALSE )
 1551              	 .loc 1 819 0 is_stmt 1
 1552 00f6 386B     	 ldr r0,[r7,#48]
 1553 00f8 FFF7FEFF 	 bl prvNotifyQueueSetContainer
 1554 00fc 0346     	 mov r3,r0
 1555 00fe 002B     	 cmp r3,#0
 1556 0100 28D0     	 beq .L109
 820:../Dave/Generated/FREERTOS/queue.c ****                             {
 821:../Dave/Generated/FREERTOS/queue.c ****                                 /* The queue is a member of a queue set, and posting
 822:../Dave/Generated/FREERTOS/queue.c ****                                  * to the queue set caused a higher priority task to
 823:../Dave/Generated/FREERTOS/queue.c ****                                  * unblock. A context switch is required. */
 824:../Dave/Generated/FREERTOS/queue.c ****                                 queueYIELD_IF_USING_PREEMPTION();
 1557              	 .loc 1 824 0
 1558 0102 4C4B     	 ldr r3,.L122
 1559 0104 4FF08052 	 mov r2,#268435456
 1560 0108 1A60     	 str r2,[r3]
 1561              	
 1562 010a BFF34F8F 	 dsb
 1563              	
 1564              	
 1565 010e BFF36F8F 	 isb
 1566              	
 1567              	 .thumb
 1568 0112 1FE0     	 b .L109
 1569              	.L106:
 825:../Dave/Generated/FREERTOS/queue.c ****                             }
 826:../Dave/Generated/FREERTOS/queue.c ****                             else
 827:../Dave/Generated/FREERTOS/queue.c ****                             {
 828:../Dave/Generated/FREERTOS/queue.c ****                                 mtCOVERAGE_TEST_MARKER();
 829:../Dave/Generated/FREERTOS/queue.c ****                             }
 830:../Dave/Generated/FREERTOS/queue.c ****                         }
 831:../Dave/Generated/FREERTOS/queue.c ****                         else
 832:../Dave/Generated/FREERTOS/queue.c ****                         {
 833:../Dave/Generated/FREERTOS/queue.c ****                             /* If there was a task waiting for data to arrive on the
 834:../Dave/Generated/FREERTOS/queue.c ****                              * queue then unblock it now. */
 835:../Dave/Generated/FREERTOS/queue.c ****                             if( listLIST_IS_EMPTY( &( pxQueue->xTasksWaitingToReceive ) ) == pdFALS
 1570              	 .loc 1 835 0
 1571 0114 3B6B     	 ldr r3,[r7,#48]
 1572 0116 5B6A     	 ldr r3,[r3,#36]
 1573 0118 002B     	 cmp r3,#0
 1574 011a 10D0     	 beq .L110
 836:../Dave/Generated/FREERTOS/queue.c ****                             {
 837:../Dave/Generated/FREERTOS/queue.c ****                                 if( xTaskRemoveFromEventList( &( pxQueue->xTasksWaitingToReceive ) 
 1575              	 .loc 1 837 0
 1576 011c 3B6B     	 ldr r3,[r7,#48]
 1577 011e 2433     	 adds r3,r3,#36
 1578 0120 1846     	 mov r0,r3
 1579 0122 FFF7FEFF 	 bl xTaskRemoveFromEventList
 1580 0126 0346     	 mov r3,r0
 1581 0128 002B     	 cmp r3,#0
 1582 012a 13D0     	 beq .L109
 838:../Dave/Generated/FREERTOS/queue.c ****                                 {
 839:../Dave/Generated/FREERTOS/queue.c ****                                     /* The unblocked task has a priority higher than
 840:../Dave/Generated/FREERTOS/queue.c ****                                      * our own so yield immediately.  Yes it is ok to
 841:../Dave/Generated/FREERTOS/queue.c ****                                      * do this from within the critical section - the
 842:../Dave/Generated/FREERTOS/queue.c ****                                      * kernel takes care of that. */
 843:../Dave/Generated/FREERTOS/queue.c ****                                     queueYIELD_IF_USING_PREEMPTION();
 1583              	 .loc 1 843 0
 1584 012c 414B     	 ldr r3,.L122
 1585 012e 4FF08052 	 mov r2,#268435456
 1586 0132 1A60     	 str r2,[r3]
 1587              	
 1588 0134 BFF34F8F 	 dsb
 1589              	
 1590              	
 1591 0138 BFF36F8F 	 isb
 1592              	
 1593              	 .thumb
 1594 013c 0AE0     	 b .L109
 1595              	.L110:
 844:../Dave/Generated/FREERTOS/queue.c ****                                 }
 845:../Dave/Generated/FREERTOS/queue.c ****                                 else
 846:../Dave/Generated/FREERTOS/queue.c ****                                 {
 847:../Dave/Generated/FREERTOS/queue.c ****                                     mtCOVERAGE_TEST_MARKER();
 848:../Dave/Generated/FREERTOS/queue.c ****                                 }
 849:../Dave/Generated/FREERTOS/queue.c ****                             }
 850:../Dave/Generated/FREERTOS/queue.c ****                             else if( xYieldRequired != pdFALSE )
 1596              	 .loc 1 850 0
 1597 013e BB6A     	 ldr r3,[r7,#40]
 1598 0140 002B     	 cmp r3,#0
 1599 0142 07D0     	 beq .L109
 851:../Dave/Generated/FREERTOS/queue.c ****                             {
 852:../Dave/Generated/FREERTOS/queue.c ****                                 /* This path is a special case that will only get
 853:../Dave/Generated/FREERTOS/queue.c ****                                  * executed if the task was holding multiple mutexes
 854:../Dave/Generated/FREERTOS/queue.c ****                                  * and the mutexes were given back in an order that is
 855:../Dave/Generated/FREERTOS/queue.c ****                                  * different to that in which they were taken. */
 856:../Dave/Generated/FREERTOS/queue.c ****                                 queueYIELD_IF_USING_PREEMPTION();
 1600              	 .loc 1 856 0
 1601 0144 3B4B     	 ldr r3,.L122
 1602 0146 4FF08052 	 mov r2,#268435456
 1603 014a 1A60     	 str r2,[r3]
 1604              	
 1605 014c BFF34F8F 	 dsb
 1606              	
 1607              	
 1608 0150 BFF36F8F 	 isb
 1609              	
 1610              	 .thumb
 1611              	.L109:
 1612              	.LBE177:
 857:../Dave/Generated/FREERTOS/queue.c ****                             }
 858:../Dave/Generated/FREERTOS/queue.c ****                             else
 859:../Dave/Generated/FREERTOS/queue.c ****                             {
 860:../Dave/Generated/FREERTOS/queue.c ****                                 mtCOVERAGE_TEST_MARKER();
 861:../Dave/Generated/FREERTOS/queue.c ****                             }
 862:../Dave/Generated/FREERTOS/queue.c ****                         }
 863:../Dave/Generated/FREERTOS/queue.c ****                     }
 864:../Dave/Generated/FREERTOS/queue.c ****                 #else /* configUSE_QUEUE_SETS */
 865:../Dave/Generated/FREERTOS/queue.c ****                     {
 866:../Dave/Generated/FREERTOS/queue.c ****                         xYieldRequired = prvCopyDataToQueue( pxQueue, pvItemToQueue, xCopyPosition 
 867:../Dave/Generated/FREERTOS/queue.c **** 
 868:../Dave/Generated/FREERTOS/queue.c ****                         /* If there was a task waiting for data to arrive on the
 869:../Dave/Generated/FREERTOS/queue.c ****                          * queue then unblock it now. */
 870:../Dave/Generated/FREERTOS/queue.c ****                         if( listLIST_IS_EMPTY( &( pxQueue->xTasksWaitingToReceive ) ) == pdFALSE )
 871:../Dave/Generated/FREERTOS/queue.c ****                         {
 872:../Dave/Generated/FREERTOS/queue.c ****                             if( xTaskRemoveFromEventList( &( pxQueue->xTasksWaitingToReceive ) ) !=
 873:../Dave/Generated/FREERTOS/queue.c ****                             {
 874:../Dave/Generated/FREERTOS/queue.c ****                                 /* The unblocked task has a priority higher than
 875:../Dave/Generated/FREERTOS/queue.c ****                                  * our own so yield immediately.  Yes it is ok to do
 876:../Dave/Generated/FREERTOS/queue.c ****                                  * this from within the critical section - the kernel
 877:../Dave/Generated/FREERTOS/queue.c ****                                  * takes care of that. */
 878:../Dave/Generated/FREERTOS/queue.c ****                                 queueYIELD_IF_USING_PREEMPTION();
 879:../Dave/Generated/FREERTOS/queue.c ****                             }
 880:../Dave/Generated/FREERTOS/queue.c ****                             else
 881:../Dave/Generated/FREERTOS/queue.c ****                             {
 882:../Dave/Generated/FREERTOS/queue.c ****                                 mtCOVERAGE_TEST_MARKER();
 883:../Dave/Generated/FREERTOS/queue.c ****                             }
 884:../Dave/Generated/FREERTOS/queue.c ****                         }
 885:../Dave/Generated/FREERTOS/queue.c ****                         else if( xYieldRequired != pdFALSE )
 886:../Dave/Generated/FREERTOS/queue.c ****                         {
 887:../Dave/Generated/FREERTOS/queue.c ****                             /* This path is a special case that will only get
 888:../Dave/Generated/FREERTOS/queue.c ****                              * executed if the task was holding multiple mutexes and
 889:../Dave/Generated/FREERTOS/queue.c ****                              * the mutexes were given back in an order that is
 890:../Dave/Generated/FREERTOS/queue.c ****                              * different to that in which they were taken. */
 891:../Dave/Generated/FREERTOS/queue.c ****                             queueYIELD_IF_USING_PREEMPTION();
 892:../Dave/Generated/FREERTOS/queue.c ****                         }
 893:../Dave/Generated/FREERTOS/queue.c ****                         else
 894:../Dave/Generated/FREERTOS/queue.c ****                         {
 895:../Dave/Generated/FREERTOS/queue.c ****                             mtCOVERAGE_TEST_MARKER();
 896:../Dave/Generated/FREERTOS/queue.c ****                         }
 897:../Dave/Generated/FREERTOS/queue.c ****                     }
 898:../Dave/Generated/FREERTOS/queue.c ****                 #endif /* configUSE_QUEUE_SETS */
 899:../Dave/Generated/FREERTOS/queue.c **** 
 900:../Dave/Generated/FREERTOS/queue.c ****                 taskEXIT_CRITICAL();
 1613              	 .loc 1 900 0
 1614 0154 FFF7FEFF 	 bl vPortExitCritical
 901:../Dave/Generated/FREERTOS/queue.c ****                 return pdPASS;
 1615              	 .loc 1 901 0
 1616 0158 0123     	 movs r3,#1
 1617 015a 67E0     	 b .L121
 1618              	.L105:
 902:../Dave/Generated/FREERTOS/queue.c ****             }
 903:../Dave/Generated/FREERTOS/queue.c ****             else
 904:../Dave/Generated/FREERTOS/queue.c ****             {
 905:../Dave/Generated/FREERTOS/queue.c ****                 if( xTicksToWait == ( TickType_t ) 0 )
 1619              	 .loc 1 905 0
 1620 015c 7B68     	 ldr r3,[r7,#4]
 1621 015e 002B     	 cmp r3,#0
 1622 0160 03D1     	 bne .L112
 906:../Dave/Generated/FREERTOS/queue.c ****                 {
 907:../Dave/Generated/FREERTOS/queue.c ****                     /* The queue was full and no block time is specified (or
 908:../Dave/Generated/FREERTOS/queue.c ****                      * the block time has expired) so leave now. */
 909:../Dave/Generated/FREERTOS/queue.c ****                     taskEXIT_CRITICAL();
 1623              	 .loc 1 909 0
 1624 0162 FFF7FEFF 	 bl vPortExitCritical
 910:../Dave/Generated/FREERTOS/queue.c **** 
 911:../Dave/Generated/FREERTOS/queue.c ****                     /* Return to the original privilege level before exiting
 912:../Dave/Generated/FREERTOS/queue.c ****                      * the function. */
 913:../Dave/Generated/FREERTOS/queue.c ****                     traceQUEUE_SEND_FAILED( pxQueue );
 914:../Dave/Generated/FREERTOS/queue.c ****                     return errQUEUE_FULL;
 1625              	 .loc 1 914 0
 1626 0166 0023     	 movs r3,#0
 1627 0168 60E0     	 b .L121
 1628              	.L112:
 915:../Dave/Generated/FREERTOS/queue.c ****                 }
 916:../Dave/Generated/FREERTOS/queue.c ****                 else if( xEntryTimeSet == pdFALSE )
 1629              	 .loc 1 916 0
 1630 016a 7B6B     	 ldr r3,[r7,#52]
 1631 016c 002B     	 cmp r3,#0
 1632 016e 06D1     	 bne .L113
 917:../Dave/Generated/FREERTOS/queue.c ****                 {
 918:../Dave/Generated/FREERTOS/queue.c ****                     /* The queue was full and a block time was specified so
 919:../Dave/Generated/FREERTOS/queue.c ****                      * configure the timeout structure. */
 920:../Dave/Generated/FREERTOS/queue.c ****                     vTaskInternalSetTimeOutState( &xTimeOut );
 1633              	 .loc 1 920 0
 1634 0170 07F11003 	 add r3,r7,#16
 1635 0174 1846     	 mov r0,r3
 1636 0176 FFF7FEFF 	 bl vTaskInternalSetTimeOutState
 921:../Dave/Generated/FREERTOS/queue.c ****                     xEntryTimeSet = pdTRUE;
 1637              	 .loc 1 921 0
 1638 017a 0123     	 movs r3,#1
 1639 017c 7B63     	 str r3,[r7,#52]
 1640              	.L113:
 922:../Dave/Generated/FREERTOS/queue.c ****                 }
 923:../Dave/Generated/FREERTOS/queue.c ****                 else
 924:../Dave/Generated/FREERTOS/queue.c ****                 {
 925:../Dave/Generated/FREERTOS/queue.c ****                     /* Entry time was already set. */
 926:../Dave/Generated/FREERTOS/queue.c ****                     mtCOVERAGE_TEST_MARKER();
 927:../Dave/Generated/FREERTOS/queue.c ****                 }
 928:../Dave/Generated/FREERTOS/queue.c ****             }
 929:../Dave/Generated/FREERTOS/queue.c ****         }
 930:../Dave/Generated/FREERTOS/queue.c ****         taskEXIT_CRITICAL();
 1641              	 .loc 1 930 0
 1642 017e FFF7FEFF 	 bl vPortExitCritical
 931:../Dave/Generated/FREERTOS/queue.c **** 
 932:../Dave/Generated/FREERTOS/queue.c ****         /* Interrupts and other tasks can send to and receive from the queue
 933:../Dave/Generated/FREERTOS/queue.c ****          * now the critical section has been exited. */
 934:../Dave/Generated/FREERTOS/queue.c **** 
 935:../Dave/Generated/FREERTOS/queue.c ****         vTaskSuspendAll();
 1643              	 .loc 1 935 0
 1644 0182 FFF7FEFF 	 bl vTaskSuspendAll
 936:../Dave/Generated/FREERTOS/queue.c ****         prvLockQueue( pxQueue );
 1645              	 .loc 1 936 0
 1646 0186 FFF7FEFF 	 bl vPortEnterCritical
 1647 018a 3B6B     	 ldr r3,[r7,#48]
 1648 018c 93F84430 	 ldrb r3,[r3,#68]
 1649 0190 DBB2     	 uxtb r3,r3
 1650 0192 5BB2     	 sxtb r3,r3
 1651 0194 B3F1FF3F 	 cmp r3,#-1
 1652 0198 03D1     	 bne .L114
 1653              	 .loc 1 936 0 is_stmt 0 discriminator 1
 1654 019a 3B6B     	 ldr r3,[r7,#48]
 1655 019c 0022     	 movs r2,#0
 1656 019e 83F84420 	 strb r2,[r3,#68]
 1657              	.L114:
 1658              	 .loc 1 936 0 discriminator 3
 1659 01a2 3B6B     	 ldr r3,[r7,#48]
 1660 01a4 93F84530 	 ldrb r3,[r3,#69]
 1661 01a8 DBB2     	 uxtb r3,r3
 1662 01aa 5BB2     	 sxtb r3,r3
 1663 01ac B3F1FF3F 	 cmp r3,#-1
 1664 01b0 03D1     	 bne .L115
 1665              	 .loc 1 936 0 discriminator 4
 1666 01b2 3B6B     	 ldr r3,[r7,#48]
 1667 01b4 0022     	 movs r2,#0
 1668 01b6 83F84520 	 strb r2,[r3,#69]
 1669              	.L115:
 1670              	 .loc 1 936 0 discriminator 6
 1671 01ba FFF7FEFF 	 bl vPortExitCritical
 937:../Dave/Generated/FREERTOS/queue.c **** 
 938:../Dave/Generated/FREERTOS/queue.c ****         /* Update the timeout state to see if it has expired yet. */
 939:../Dave/Generated/FREERTOS/queue.c ****         if( xTaskCheckForTimeOut( &xTimeOut, &xTicksToWait ) == pdFALSE )
 1672              	 .loc 1 939 0 is_stmt 1 discriminator 6
 1673 01be 07F11002 	 add r2,r7,#16
 1674 01c2 3B1D     	 adds r3,r7,#4
 1675 01c4 1046     	 mov r0,r2
 1676 01c6 1946     	 mov r1,r3
 1677 01c8 FFF7FEFF 	 bl xTaskCheckForTimeOut
 1678 01cc 0346     	 mov r3,r0
 1679 01ce 002B     	 cmp r3,#0
 1680 01d0 24D1     	 bne .L116
 940:../Dave/Generated/FREERTOS/queue.c ****         {
 941:../Dave/Generated/FREERTOS/queue.c ****             if( prvIsQueueFull( pxQueue ) != pdFALSE )
 1681              	 .loc 1 941 0
 1682 01d2 386B     	 ldr r0,[r7,#48]
 1683 01d4 FFF7FEFF 	 bl prvIsQueueFull
 1684 01d8 0346     	 mov r3,r0
 1685 01da 002B     	 cmp r3,#0
 1686 01dc 18D0     	 beq .L117
 942:../Dave/Generated/FREERTOS/queue.c ****             {
 943:../Dave/Generated/FREERTOS/queue.c ****                 traceBLOCKING_ON_QUEUE_SEND( pxQueue );
 944:../Dave/Generated/FREERTOS/queue.c ****                 vTaskPlaceOnEventList( &( pxQueue->xTasksWaitingToSend ), xTicksToWait );
 1687              	 .loc 1 944 0
 1688 01de 3B6B     	 ldr r3,[r7,#48]
 1689 01e0 03F11002 	 add r2,r3,#16
 1690 01e4 7B68     	 ldr r3,[r7,#4]
 1691 01e6 1046     	 mov r0,r2
 1692 01e8 1946     	 mov r1,r3
 1693 01ea FFF7FEFF 	 bl vTaskPlaceOnEventList
 945:../Dave/Generated/FREERTOS/queue.c **** 
 946:../Dave/Generated/FREERTOS/queue.c ****                 /* Unlocking the queue means queue events can effect the
 947:../Dave/Generated/FREERTOS/queue.c ****                  * event list.  It is possible that interrupts occurring now
 948:../Dave/Generated/FREERTOS/queue.c ****                  * remove this task from the event list again - but as the
 949:../Dave/Generated/FREERTOS/queue.c ****                  * scheduler is suspended the task will go onto the pending
 950:../Dave/Generated/FREERTOS/queue.c ****                  * ready last instead of the actual ready list. */
 951:../Dave/Generated/FREERTOS/queue.c ****                 prvUnlockQueue( pxQueue );
 1694              	 .loc 1 951 0
 1695 01ee 386B     	 ldr r0,[r7,#48]
 1696 01f0 FFF7FEFF 	 bl prvUnlockQueue
 952:../Dave/Generated/FREERTOS/queue.c **** 
 953:../Dave/Generated/FREERTOS/queue.c ****                 /* Resuming the scheduler will move tasks from the pending
 954:../Dave/Generated/FREERTOS/queue.c ****                  * ready list into the ready list - so it is feasible that this
 955:../Dave/Generated/FREERTOS/queue.c ****                  * task is already in a ready list before it yields - in which
 956:../Dave/Generated/FREERTOS/queue.c ****                  * case the yield will not cause a context switch unless there
 957:../Dave/Generated/FREERTOS/queue.c ****                  * is also a higher priority task in the pending ready list. */
 958:../Dave/Generated/FREERTOS/queue.c ****                 if( xTaskResumeAll() == pdFALSE )
 1697              	 .loc 1 958 0
 1698 01f4 FFF7FEFF 	 bl xTaskResumeAll
 1699 01f8 0346     	 mov r3,r0
 1700 01fa 002B     	 cmp r3,#0
 1701 01fc 15D1     	 bne .L120
 959:../Dave/Generated/FREERTOS/queue.c ****                 {
 960:../Dave/Generated/FREERTOS/queue.c ****                     portYIELD_WITHIN_API();
 1702              	 .loc 1 960 0
 1703 01fe 0D4B     	 ldr r3,.L122
 1704 0200 4FF08052 	 mov r2,#268435456
 1705 0204 1A60     	 str r2,[r3]
 1706              	
 1707 0206 BFF34F8F 	 dsb
 1708              	
 1709              	
 1710 020a BFF36F8F 	 isb
 1711              	
 1712              	 .thumb
 1713 020e 0CE0     	 b .L120
 1714              	.L117:
 961:../Dave/Generated/FREERTOS/queue.c ****                 }
 962:../Dave/Generated/FREERTOS/queue.c ****             }
 963:../Dave/Generated/FREERTOS/queue.c ****             else
 964:../Dave/Generated/FREERTOS/queue.c ****             {
 965:../Dave/Generated/FREERTOS/queue.c ****                 /* Try again. */
 966:../Dave/Generated/FREERTOS/queue.c ****                 prvUnlockQueue( pxQueue );
 1715              	 .loc 1 966 0
 1716 0210 386B     	 ldr r0,[r7,#48]
 1717 0212 FFF7FEFF 	 bl prvUnlockQueue
 967:../Dave/Generated/FREERTOS/queue.c ****                 ( void ) xTaskResumeAll();
 1718              	 .loc 1 967 0
 1719 0216 FFF7FEFF 	 bl xTaskResumeAll
 1720 021a 4CE7     	 b .L102
 1721              	.L116:
 968:../Dave/Generated/FREERTOS/queue.c ****             }
 969:../Dave/Generated/FREERTOS/queue.c ****         }
 970:../Dave/Generated/FREERTOS/queue.c ****         else
 971:../Dave/Generated/FREERTOS/queue.c ****         {
 972:../Dave/Generated/FREERTOS/queue.c ****             /* The timeout has expired. */
 973:../Dave/Generated/FREERTOS/queue.c ****             prvUnlockQueue( pxQueue );
 1722              	 .loc 1 973 0
 1723 021c 386B     	 ldr r0,[r7,#48]
 1724 021e FFF7FEFF 	 bl prvUnlockQueue
 974:../Dave/Generated/FREERTOS/queue.c ****             ( void ) xTaskResumeAll();
 1725              	 .loc 1 974 0
 1726 0222 FFF7FEFF 	 bl xTaskResumeAll
 975:../Dave/Generated/FREERTOS/queue.c **** 
 976:../Dave/Generated/FREERTOS/queue.c ****             traceQUEUE_SEND_FAILED( pxQueue );
 977:../Dave/Generated/FREERTOS/queue.c ****             return errQUEUE_FULL;
 1727              	 .loc 1 977 0
 1728 0226 0023     	 movs r3,#0
 1729 0228 00E0     	 b .L121
 1730              	.L120:
 978:../Dave/Generated/FREERTOS/queue.c ****         }
 979:../Dave/Generated/FREERTOS/queue.c ****     } /*lint -restore */
 1731              	 .loc 1 979 0 discriminator 7
 1732 022a 44E7     	 b .L102
 1733              	.L121:
 980:../Dave/Generated/FREERTOS/queue.c **** }
 1734              	 .loc 1 980 0 discriminator 8
 1735 022c 1846     	 mov r0,r3
 1736 022e 3837     	 adds r7,r7,#56
 1737              	.LCFI69:
 1738              	 .cfi_def_cfa_offset 8
 1739 0230 BD46     	 mov sp,r7
 1740              	.LCFI70:
 1741              	 .cfi_def_cfa_register 13
 1742              	 
 1743 0232 80BD     	 pop {r7,pc}
 1744              	.L123:
 1745              	 .align 2
 1746              	.L122:
 1747 0234 04ED00E0 	 .word -536810236
 1748              	 .cfi_endproc
 1749              	.LFE150:
 1751              	 .section .text.xQueueGenericSendFromISR,"ax",%progbits
 1752              	 .align 2
 1753              	 .global xQueueGenericSendFromISR
 1754              	 .thumb
 1755              	 .thumb_func
 1757              	xQueueGenericSendFromISR:
 1758              	.LFB151:
 981:../Dave/Generated/FREERTOS/queue.c **** /*-----------------------------------------------------------*/
 982:../Dave/Generated/FREERTOS/queue.c **** 
 983:../Dave/Generated/FREERTOS/queue.c **** BaseType_t xQueueGenericSendFromISR( QueueHandle_t xQueue,
 984:../Dave/Generated/FREERTOS/queue.c ****                                      const void * const pvItemToQueue,
 985:../Dave/Generated/FREERTOS/queue.c ****                                      BaseType_t * const pxHigherPriorityTaskWoken,
 986:../Dave/Generated/FREERTOS/queue.c ****                                      const BaseType_t xCopyPosition )
 987:../Dave/Generated/FREERTOS/queue.c **** {
 1759              	 .loc 1 987 0
 1760              	 .cfi_startproc
 1761              	 
 1762              	 
 1763 0000 80B5     	 push {r7,lr}
 1764              	.LCFI71:
 1765              	 .cfi_def_cfa_offset 8
 1766              	 .cfi_offset 7,-8
 1767              	 .cfi_offset 14,-4
 1768 0002 90B0     	 sub sp,sp,#64
 1769              	.LCFI72:
 1770              	 .cfi_def_cfa_offset 72
 1771 0004 00AF     	 add r7,sp,#0
 1772              	.LCFI73:
 1773              	 .cfi_def_cfa_register 7
 1774 0006 F860     	 str r0,[r7,#12]
 1775 0008 B960     	 str r1,[r7,#8]
 1776 000a 7A60     	 str r2,[r7,#4]
 1777 000c 3B60     	 str r3,[r7]
 988:../Dave/Generated/FREERTOS/queue.c ****     BaseType_t xReturn;
 989:../Dave/Generated/FREERTOS/queue.c ****     UBaseType_t uxSavedInterruptStatus;
 990:../Dave/Generated/FREERTOS/queue.c ****     Queue_t * const pxQueue = xQueue;
 1778              	 .loc 1 990 0
 1779 000e FB68     	 ldr r3,[r7,#12]
 1780 0010 BB63     	 str r3,[r7,#56]
 991:../Dave/Generated/FREERTOS/queue.c **** 
 992:../Dave/Generated/FREERTOS/queue.c ****     configASSERT( pxQueue );
 1781              	 .loc 1 992 0
 1782 0012 BB6B     	 ldr r3,[r7,#56]
 1783 0014 002B     	 cmp r3,#0
 1784 0016 09D1     	 bne .L125
 1785              	.LBB178:
 1786              	.LBB179:
 1787              	 .loc 2 197 0 discriminator 1
 1788              	
 1789 0018 4FF0FC03 	 mov r3,#252
 1790 001c 83F31188 	 msr basepri,r3
 1791 0020 BFF36F8F 	 isb 
 1792 0024 BFF34F8F 	 dsb 
 1793              	
 1794              	
 1795              	 .thumb
 1796 0028 BB62     	 str r3,[r7,#40]
 1797              	.L126:
 1798              	.LBE179:
 1799              	.LBE178:
 1800              	 .loc 1 992 0 discriminator 1
 1801 002a FEE7     	 b .L126
 1802              	.L125:
 993:../Dave/Generated/FREERTOS/queue.c ****     configASSERT( !( ( pvItemToQueue == NULL ) && ( pxQueue->uxItemSize != ( UBaseType_t ) 0U ) ) )
 1803              	 .loc 1 993 0
 1804 002c BB68     	 ldr r3,[r7,#8]
 1805 002e 002B     	 cmp r3,#0
 1806 0030 03D1     	 bne .L127
 1807              	 .loc 1 993 0 is_stmt 0 discriminator 2
 1808 0032 BB6B     	 ldr r3,[r7,#56]
 1809 0034 1B6C     	 ldr r3,[r3,#64]
 1810 0036 002B     	 cmp r3,#0
 1811 0038 01D1     	 bne .L128
 1812              	.L127:
 1813              	 .loc 1 993 0 discriminator 3
 1814 003a 0123     	 movs r3,#1
 1815 003c 00E0     	 b .L129
 1816              	.L128:
 1817              	 .loc 1 993 0 discriminator 4
 1818 003e 0023     	 movs r3,#0
 1819              	.L129:
 1820              	 .loc 1 993 0 discriminator 6
 1821 0040 002B     	 cmp r3,#0
 1822 0042 09D1     	 bne .L130
 1823              	.LBB180:
 1824              	.LBB181:
 1825              	 .loc 2 197 0 is_stmt 1 discriminator 7
 1826              	
 1827 0044 4FF0FC03 	 mov r3,#252
 1828 0048 83F31188 	 msr basepri,r3
 1829 004c BFF36F8F 	 isb 
 1830 0050 BFF34F8F 	 dsb 
 1831              	
 1832              	
 1833              	 .thumb
 1834 0054 7B62     	 str r3,[r7,#36]
 1835              	.L131:
 1836              	.LBE181:
 1837              	.LBE180:
 1838              	 .loc 1 993 0 discriminator 2
 1839 0056 FEE7     	 b .L131
 1840              	.L130:
 994:../Dave/Generated/FREERTOS/queue.c ****     configASSERT( !( ( xCopyPosition == queueOVERWRITE ) && ( pxQueue->uxLength != 1 ) ) );
 1841              	 .loc 1 994 0
 1842 0058 3B68     	 ldr r3,[r7]
 1843 005a 022B     	 cmp r3,#2
 1844 005c 03D1     	 bne .L132
 1845              	 .loc 1 994 0 is_stmt 0 discriminator 2
 1846 005e BB6B     	 ldr r3,[r7,#56]
 1847 0060 DB6B     	 ldr r3,[r3,#60]
 1848 0062 012B     	 cmp r3,#1
 1849 0064 01D1     	 bne .L133
 1850              	.L132:
 1851              	 .loc 1 994 0 discriminator 3
 1852 0066 0123     	 movs r3,#1
 1853 0068 00E0     	 b .L134
 1854              	.L133:
 1855              	 .loc 1 994 0 discriminator 4
 1856 006a 0023     	 movs r3,#0
 1857              	.L134:
 1858              	 .loc 1 994 0 discriminator 6
 1859 006c 002B     	 cmp r3,#0
 1860 006e 09D1     	 bne .L135
 1861              	.LBB182:
 1862              	.LBB183:
 1863              	 .loc 2 197 0 is_stmt 1 discriminator 7
 1864              	
 1865 0070 4FF0FC03 	 mov r3,#252
 1866 0074 83F31188 	 msr basepri,r3
 1867 0078 BFF36F8F 	 isb 
 1868 007c BFF34F8F 	 dsb 
 1869              	
 1870              	
 1871              	 .thumb
 1872 0080 3B62     	 str r3,[r7,#32]
 1873              	.L136:
 1874              	.LBE183:
 1875              	.LBE182:
 1876              	 .loc 1 994 0 discriminator 3
 1877 0082 FEE7     	 b .L136
 1878              	.L135:
 995:../Dave/Generated/FREERTOS/queue.c **** 
 996:../Dave/Generated/FREERTOS/queue.c ****     /* RTOS ports that support interrupt nesting have the concept of a maximum
 997:../Dave/Generated/FREERTOS/queue.c ****      * system call (or maximum API call) interrupt priority.  Interrupts that are
 998:../Dave/Generated/FREERTOS/queue.c ****      * above the maximum system call priority are kept permanently enabled, even
 999:../Dave/Generated/FREERTOS/queue.c ****      * when the RTOS kernel is in a critical section, but cannot make any calls to
1000:../Dave/Generated/FREERTOS/queue.c ****      * FreeRTOS API functions.  If configASSERT() is defined in FreeRTOSConfig.h
1001:../Dave/Generated/FREERTOS/queue.c ****      * then portASSERT_IF_INTERRUPT_PRIORITY_INVALID() will result in an assertion
1002:../Dave/Generated/FREERTOS/queue.c ****      * failure if a FreeRTOS API function is called from an interrupt that has been
1003:../Dave/Generated/FREERTOS/queue.c ****      * assigned a priority above the configured maximum system call priority.
1004:../Dave/Generated/FREERTOS/queue.c ****      * Only FreeRTOS functions that end in FromISR can be called from interrupts
1005:../Dave/Generated/FREERTOS/queue.c ****      * that have been assigned a priority at or (logically) below the maximum
1006:../Dave/Generated/FREERTOS/queue.c ****      * system call interrupt priority.  FreeRTOS maintains a separate interrupt
1007:../Dave/Generated/FREERTOS/queue.c ****      * safe API to ensure interrupt entry is as fast and as simple as possible.
1008:../Dave/Generated/FREERTOS/queue.c ****      * More information (albeit Cortex-M specific) is provided on the following
1009:../Dave/Generated/FREERTOS/queue.c ****      * link: https://www.FreeRTOS.org/RTOS-Cortex-M3-M4.html */
1010:../Dave/Generated/FREERTOS/queue.c ****     portASSERT_IF_INTERRUPT_PRIORITY_INVALID();
 1879              	 .loc 1 1010 0
 1880 0084 FFF7FEFF 	 bl vPortValidateInterruptPriority
 1881              	.LBB184:
 1882              	.LBB185:
 198:C:/Infineon/Tools/DAVE IDE/4.5.0.202105191637/eclipse/workspace/xmc4800-CE/Dave/Generated/FREERTOS/portable/GCC\portmacro.h ****         (
 199:C:/Infineon/Tools/DAVE IDE/4.5.0.202105191637/eclipse/workspace/xmc4800-CE/Dave/Generated/FREERTOS/portable/GCC\portmacro.h ****             "	mov %0, %1												\n"\
 200:C:/Infineon/Tools/DAVE IDE/4.5.0.202105191637/eclipse/workspace/xmc4800-CE/Dave/Generated/FREERTOS/portable/GCC\portmacro.h ****             "	msr basepri, %0											\n"\
 201:C:/Infineon/Tools/DAVE IDE/4.5.0.202105191637/eclipse/workspace/xmc4800-CE/Dave/Generated/FREERTOS/portable/GCC\portmacro.h ****             "	isb														\n"\
 202:C:/Infineon/Tools/DAVE IDE/4.5.0.202105191637/eclipse/workspace/xmc4800-CE/Dave/Generated/FREERTOS/portable/GCC\portmacro.h ****             "	dsb														\n"\
 203:C:/Infineon/Tools/DAVE IDE/4.5.0.202105191637/eclipse/workspace/xmc4800-CE/Dave/Generated/FREERTOS/portable/GCC\portmacro.h ****             : "=r" ( ulNewBASEPRI ) : "i" ( configMAX_SYSCALL_INTERRUPT_PRIORITY ) : "memory"
 204:C:/Infineon/Tools/DAVE IDE/4.5.0.202105191637/eclipse/workspace/xmc4800-CE/Dave/Generated/FREERTOS/portable/GCC\portmacro.h ****         );
 205:C:/Infineon/Tools/DAVE IDE/4.5.0.202105191637/eclipse/workspace/xmc4800-CE/Dave/Generated/FREERTOS/portable/GCC\portmacro.h ****     }
 206:C:/Infineon/Tools/DAVE IDE/4.5.0.202105191637/eclipse/workspace/xmc4800-CE/Dave/Generated/FREERTOS/portable/GCC\portmacro.h **** 
 207:C:/Infineon/Tools/DAVE IDE/4.5.0.202105191637/eclipse/workspace/xmc4800-CE/Dave/Generated/FREERTOS/portable/GCC\portmacro.h **** /*-----------------------------------------------------------*/
 208:C:/Infineon/Tools/DAVE IDE/4.5.0.202105191637/eclipse/workspace/xmc4800-CE/Dave/Generated/FREERTOS/portable/GCC\portmacro.h **** 
 209:C:/Infineon/Tools/DAVE IDE/4.5.0.202105191637/eclipse/workspace/xmc4800-CE/Dave/Generated/FREERTOS/portable/GCC\portmacro.h ****     portFORCE_INLINE static uint32_t ulPortRaiseBASEPRI( void )
 210:C:/Infineon/Tools/DAVE IDE/4.5.0.202105191637/eclipse/workspace/xmc4800-CE/Dave/Generated/FREERTOS/portable/GCC\portmacro.h ****     {
 211:C:/Infineon/Tools/DAVE IDE/4.5.0.202105191637/eclipse/workspace/xmc4800-CE/Dave/Generated/FREERTOS/portable/GCC\portmacro.h ****         uint32_t ulOriginalBASEPRI, ulNewBASEPRI;
 212:C:/Infineon/Tools/DAVE IDE/4.5.0.202105191637/eclipse/workspace/xmc4800-CE/Dave/Generated/FREERTOS/portable/GCC\portmacro.h **** 
 213:C:/Infineon/Tools/DAVE IDE/4.5.0.202105191637/eclipse/workspace/xmc4800-CE/Dave/Generated/FREERTOS/portable/GCC\portmacro.h ****         __asm volatile
 1883              	 .loc 2 213 0
 1884              	
 1885 0088 EFF31182 	 mrs r2,basepri
 1886 008c 4FF0FC03 	 mov r3,#252
 1887 0090 83F31188 	 msr basepri,r3
 1888 0094 BFF36F8F 	 isb 
 1889 0098 BFF34F8F 	 dsb 
 1890              	
 1891              	
 1892              	 .thumb
 1893 009c FA61     	 str r2,[r7,#28]
 1894 009e BB61     	 str r3,[r7,#24]
 214:C:/Infineon/Tools/DAVE IDE/4.5.0.202105191637/eclipse/workspace/xmc4800-CE/Dave/Generated/FREERTOS/portable/GCC\portmacro.h ****         (
 215:C:/Infineon/Tools/DAVE IDE/4.5.0.202105191637/eclipse/workspace/xmc4800-CE/Dave/Generated/FREERTOS/portable/GCC\portmacro.h ****             "	mrs %0, basepri											\n"\
 216:C:/Infineon/Tools/DAVE IDE/4.5.0.202105191637/eclipse/workspace/xmc4800-CE/Dave/Generated/FREERTOS/portable/GCC\portmacro.h ****             "	mov %1, %2												\n"\
 217:C:/Infineon/Tools/DAVE IDE/4.5.0.202105191637/eclipse/workspace/xmc4800-CE/Dave/Generated/FREERTOS/portable/GCC\portmacro.h ****             "	msr basepri, %1											\n"\
 218:C:/Infineon/Tools/DAVE IDE/4.5.0.202105191637/eclipse/workspace/xmc4800-CE/Dave/Generated/FREERTOS/portable/GCC\portmacro.h ****             "	isb														\n"\
 219:C:/Infineon/Tools/DAVE IDE/4.5.0.202105191637/eclipse/workspace/xmc4800-CE/Dave/Generated/FREERTOS/portable/GCC\portmacro.h ****             "	dsb														\n"\
 220:C:/Infineon/Tools/DAVE IDE/4.5.0.202105191637/eclipse/workspace/xmc4800-CE/Dave/Generated/FREERTOS/portable/GCC\portmacro.h ****             : "=r" ( ulOriginalBASEPRI ), "=r" ( ulNewBASEPRI ) : "i" ( configMAX_SYSCALL_INTERRUPT
 221:C:/Infineon/Tools/DAVE IDE/4.5.0.202105191637/eclipse/workspace/xmc4800-CE/Dave/Generated/FREERTOS/portable/GCC\portmacro.h ****         );
 222:C:/Infineon/Tools/DAVE IDE/4.5.0.202105191637/eclipse/workspace/xmc4800-CE/Dave/Generated/FREERTOS/portable/GCC\portmacro.h **** 
 223:C:/Infineon/Tools/DAVE IDE/4.5.0.202105191637/eclipse/workspace/xmc4800-CE/Dave/Generated/FREERTOS/portable/GCC\portmacro.h ****         /* This return will not be reached but is necessary to prevent compiler
 224:C:/Infineon/Tools/DAVE IDE/4.5.0.202105191637/eclipse/workspace/xmc4800-CE/Dave/Generated/FREERTOS/portable/GCC\portmacro.h ****          * warnings. */
 225:C:/Infineon/Tools/DAVE IDE/4.5.0.202105191637/eclipse/workspace/xmc4800-CE/Dave/Generated/FREERTOS/portable/GCC\portmacro.h ****         return ulOriginalBASEPRI;
 1895              	 .loc 2 225 0
 1896 00a0 FB69     	 ldr r3,[r7,#28]
 1897              	.LBE185:
 1898              	.LBE184:
1011:../Dave/Generated/FREERTOS/queue.c **** 
1012:../Dave/Generated/FREERTOS/queue.c ****     /* Similar to xQueueGenericSend, except without blocking if there is no room
1013:../Dave/Generated/FREERTOS/queue.c ****      * in the queue.  Also don't directly wake a task that was blocked on a queue
1014:../Dave/Generated/FREERTOS/queue.c ****      * read, instead return a flag to say whether a context switch is required or
1015:../Dave/Generated/FREERTOS/queue.c ****      * not (i.e. has a task with a higher priority than us been woken by this
1016:../Dave/Generated/FREERTOS/queue.c ****      * post). */
1017:../Dave/Generated/FREERTOS/queue.c ****     uxSavedInterruptStatus = portSET_INTERRUPT_MASK_FROM_ISR();
 1899              	 .loc 1 1017 0
 1900 00a2 7B63     	 str r3,[r7,#52]
1018:../Dave/Generated/FREERTOS/queue.c ****     {
1019:../Dave/Generated/FREERTOS/queue.c ****         if( ( pxQueue->uxMessagesWaiting < pxQueue->uxLength ) || ( xCopyPosition == queueOVERWRITE
 1901              	 .loc 1 1019 0
 1902 00a4 BB6B     	 ldr r3,[r7,#56]
 1903 00a6 9A6B     	 ldr r2,[r3,#56]
 1904 00a8 BB6B     	 ldr r3,[r7,#56]
 1905 00aa DB6B     	 ldr r3,[r3,#60]
 1906 00ac 9A42     	 cmp r2,r3
 1907 00ae 02D3     	 bcc .L138
 1908              	 .loc 1 1019 0 is_stmt 0 discriminator 1
 1909 00b0 3B68     	 ldr r3,[r7]
 1910 00b2 022B     	 cmp r3,#2
 1911 00b4 56D1     	 bne .L139
 1912              	.L138:
 1913              	.LBB186:
1020:../Dave/Generated/FREERTOS/queue.c ****         {
1021:../Dave/Generated/FREERTOS/queue.c ****             const int8_t cTxLock = pxQueue->cTxLock;
 1914              	 .loc 1 1021 0 is_stmt 1
 1915 00b6 BB6B     	 ldr r3,[r7,#56]
 1916 00b8 93F84530 	 ldrb r3,[r3,#69]
 1917 00bc 87F83330 	 strb r3,[r7,#51]
1022:../Dave/Generated/FREERTOS/queue.c ****             const UBaseType_t uxPreviousMessagesWaiting = pxQueue->uxMessagesWaiting;
 1918              	 .loc 1 1022 0
 1919 00c0 BB6B     	 ldr r3,[r7,#56]
 1920 00c2 9B6B     	 ldr r3,[r3,#56]
 1921 00c4 FB62     	 str r3,[r7,#44]
1023:../Dave/Generated/FREERTOS/queue.c **** 
1024:../Dave/Generated/FREERTOS/queue.c ****             traceQUEUE_SEND_FROM_ISR( pxQueue );
1025:../Dave/Generated/FREERTOS/queue.c **** 
1026:../Dave/Generated/FREERTOS/queue.c ****             /* Semaphores use xQueueGiveFromISR(), so pxQueue will not be a
1027:../Dave/Generated/FREERTOS/queue.c ****              *  semaphore or mutex.  That means prvCopyDataToQueue() cannot result
1028:../Dave/Generated/FREERTOS/queue.c ****              *  in a task disinheriting a priority and prvCopyDataToQueue() can be
1029:../Dave/Generated/FREERTOS/queue.c ****              *  called here even though the disinherit function does not check if
1030:../Dave/Generated/FREERTOS/queue.c ****              *  the scheduler is suspended before accessing the ready lists. */
1031:../Dave/Generated/FREERTOS/queue.c ****             ( void ) prvCopyDataToQueue( pxQueue, pvItemToQueue, xCopyPosition );
 1922              	 .loc 1 1031 0
 1923 00c6 B86B     	 ldr r0,[r7,#56]
 1924 00c8 B968     	 ldr r1,[r7,#8]
 1925 00ca 3A68     	 ldr r2,[r7]
 1926 00cc FFF7FEFF 	 bl prvCopyDataToQueue
1032:../Dave/Generated/FREERTOS/queue.c **** 
1033:../Dave/Generated/FREERTOS/queue.c ****             /* The event list is not altered if the queue is locked.  This will
1034:../Dave/Generated/FREERTOS/queue.c ****              * be done when the queue is unlocked later. */
1035:../Dave/Generated/FREERTOS/queue.c ****             if( cTxLock == queueUNLOCKED )
 1927              	 .loc 1 1035 0
 1928 00d0 97F93330 	 ldrsb r3,[r7,#51]
 1929 00d4 B3F1FF3F 	 cmp r3,#-1
 1930 00d8 2BD1     	 bne .L140
1036:../Dave/Generated/FREERTOS/queue.c ****             {
1037:../Dave/Generated/FREERTOS/queue.c ****                 #if ( configUSE_QUEUE_SETS == 1 )
1038:../Dave/Generated/FREERTOS/queue.c ****                     {
1039:../Dave/Generated/FREERTOS/queue.c ****                         if( pxQueue->pxQueueSetContainer != NULL )
 1931              	 .loc 1 1039 0
 1932 00da BB6B     	 ldr r3,[r7,#56]
 1933 00dc 9B6C     	 ldr r3,[r3,#72]
 1934 00de 002B     	 cmp r3,#0
 1935 00e0 14D0     	 beq .L141
1040:../Dave/Generated/FREERTOS/queue.c ****                         {
1041:../Dave/Generated/FREERTOS/queue.c ****                             if( ( xCopyPosition == queueOVERWRITE ) && ( uxPreviousMessagesWaiting 
 1936              	 .loc 1 1041 0
 1937 00e2 3B68     	 ldr r3,[r7]
 1938 00e4 022B     	 cmp r3,#2
 1939 00e6 04D1     	 bne .L142
 1940              	 .loc 1 1041 0 is_stmt 0 discriminator 1
 1941 00e8 FB6A     	 ldr r3,[r7,#44]
 1942 00ea 002B     	 cmp r3,#0
 1943 00ec 01D0     	 beq .L142
 1944              	 .loc 1 1041 0
 1945 00ee 00BF     	 nop
 1946 00f0 35E0     	 b .L144
 1947              	.L142:
1042:../Dave/Generated/FREERTOS/queue.c ****                             {
1043:../Dave/Generated/FREERTOS/queue.c ****                                 /* Do not notify the queue set as an existing item
1044:../Dave/Generated/FREERTOS/queue.c ****                                  * was overwritten in the queue so the number of items
1045:../Dave/Generated/FREERTOS/queue.c ****                                  * in the queue has not changed. */
1046:../Dave/Generated/FREERTOS/queue.c ****                                 mtCOVERAGE_TEST_MARKER();
1047:../Dave/Generated/FREERTOS/queue.c ****                             }
1048:../Dave/Generated/FREERTOS/queue.c ****                             else if( prvNotifyQueueSetContainer( pxQueue ) != pdFALSE )
 1948              	 .loc 1 1048 0 is_stmt 1
 1949 00f2 B86B     	 ldr r0,[r7,#56]
 1950 00f4 FFF7FEFF 	 bl prvNotifyQueueSetContainer
 1951 00f8 0346     	 mov r3,r0
 1952 00fa 002B     	 cmp r3,#0
 1953 00fc 2FD0     	 beq .L144
1049:../Dave/Generated/FREERTOS/queue.c ****                             {
1050:../Dave/Generated/FREERTOS/queue.c ****                                 /* The queue is a member of a queue set, and posting
1051:../Dave/Generated/FREERTOS/queue.c ****                                  * to the queue set caused a higher priority task to
1052:../Dave/Generated/FREERTOS/queue.c ****                                  * unblock.  A context switch is required. */
1053:../Dave/Generated/FREERTOS/queue.c ****                                 if( pxHigherPriorityTaskWoken != NULL )
 1954              	 .loc 1 1053 0
 1955 00fe 7B68     	 ldr r3,[r7,#4]
 1956 0100 002B     	 cmp r3,#0
 1957 0102 2CD0     	 beq .L144
1054:../Dave/Generated/FREERTOS/queue.c ****                                 {
1055:../Dave/Generated/FREERTOS/queue.c ****                                     *pxHigherPriorityTaskWoken = pdTRUE;
 1958              	 .loc 1 1055 0
 1959 0104 7B68     	 ldr r3,[r7,#4]
 1960 0106 0122     	 movs r2,#1
 1961 0108 1A60     	 str r2,[r3]
 1962 010a 28E0     	 b .L144
 1963              	.L141:
1056:../Dave/Generated/FREERTOS/queue.c ****                                 }
1057:../Dave/Generated/FREERTOS/queue.c ****                                 else
1058:../Dave/Generated/FREERTOS/queue.c ****                                 {
1059:../Dave/Generated/FREERTOS/queue.c ****                                     mtCOVERAGE_TEST_MARKER();
1060:../Dave/Generated/FREERTOS/queue.c ****                                 }
1061:../Dave/Generated/FREERTOS/queue.c ****                             }
1062:../Dave/Generated/FREERTOS/queue.c ****                             else
1063:../Dave/Generated/FREERTOS/queue.c ****                             {
1064:../Dave/Generated/FREERTOS/queue.c ****                                 mtCOVERAGE_TEST_MARKER();
1065:../Dave/Generated/FREERTOS/queue.c ****                             }
1066:../Dave/Generated/FREERTOS/queue.c ****                         }
1067:../Dave/Generated/FREERTOS/queue.c ****                         else
1068:../Dave/Generated/FREERTOS/queue.c ****                         {
1069:../Dave/Generated/FREERTOS/queue.c ****                             if( listLIST_IS_EMPTY( &( pxQueue->xTasksWaitingToReceive ) ) == pdFALS
 1964              	 .loc 1 1069 0
 1965 010c BB6B     	 ldr r3,[r7,#56]
 1966 010e 5B6A     	 ldr r3,[r3,#36]
 1967 0110 002B     	 cmp r3,#0
 1968 0112 24D0     	 beq .L144
1070:../Dave/Generated/FREERTOS/queue.c ****                             {
1071:../Dave/Generated/FREERTOS/queue.c ****                                 if( xTaskRemoveFromEventList( &( pxQueue->xTasksWaitingToReceive ) 
 1969              	 .loc 1 1071 0
 1970 0114 BB6B     	 ldr r3,[r7,#56]
 1971 0116 2433     	 adds r3,r3,#36
 1972 0118 1846     	 mov r0,r3
 1973 011a FFF7FEFF 	 bl xTaskRemoveFromEventList
 1974 011e 0346     	 mov r3,r0
 1975 0120 002B     	 cmp r3,#0
 1976 0122 1CD0     	 beq .L144
1072:../Dave/Generated/FREERTOS/queue.c ****                                 {
1073:../Dave/Generated/FREERTOS/queue.c ****                                     /* The task waiting has a higher priority so
1074:../Dave/Generated/FREERTOS/queue.c ****                                      *  record that a context switch is required. */
1075:../Dave/Generated/FREERTOS/queue.c ****                                     if( pxHigherPriorityTaskWoken != NULL )
 1977              	 .loc 1 1075 0
 1978 0124 7B68     	 ldr r3,[r7,#4]
 1979 0126 002B     	 cmp r3,#0
 1980 0128 19D0     	 beq .L144
1076:../Dave/Generated/FREERTOS/queue.c ****                                     {
1077:../Dave/Generated/FREERTOS/queue.c ****                                         *pxHigherPriorityTaskWoken = pdTRUE;
 1981              	 .loc 1 1077 0
 1982 012a 7B68     	 ldr r3,[r7,#4]
 1983 012c 0122     	 movs r2,#1
 1984 012e 1A60     	 str r2,[r3]
 1985 0130 15E0     	 b .L144
 1986              	.L140:
1078:../Dave/Generated/FREERTOS/queue.c ****                                     }
1079:../Dave/Generated/FREERTOS/queue.c ****                                     else
1080:../Dave/Generated/FREERTOS/queue.c ****                                     {
1081:../Dave/Generated/FREERTOS/queue.c ****                                         mtCOVERAGE_TEST_MARKER();
1082:../Dave/Generated/FREERTOS/queue.c ****                                     }
1083:../Dave/Generated/FREERTOS/queue.c ****                                 }
1084:../Dave/Generated/FREERTOS/queue.c ****                                 else
1085:../Dave/Generated/FREERTOS/queue.c ****                                 {
1086:../Dave/Generated/FREERTOS/queue.c ****                                     mtCOVERAGE_TEST_MARKER();
1087:../Dave/Generated/FREERTOS/queue.c ****                                 }
1088:../Dave/Generated/FREERTOS/queue.c ****                             }
1089:../Dave/Generated/FREERTOS/queue.c ****                             else
1090:../Dave/Generated/FREERTOS/queue.c ****                             {
1091:../Dave/Generated/FREERTOS/queue.c ****                                 mtCOVERAGE_TEST_MARKER();
1092:../Dave/Generated/FREERTOS/queue.c ****                             }
1093:../Dave/Generated/FREERTOS/queue.c ****                         }
1094:../Dave/Generated/FREERTOS/queue.c ****                     }
1095:../Dave/Generated/FREERTOS/queue.c ****                 #else /* configUSE_QUEUE_SETS */
1096:../Dave/Generated/FREERTOS/queue.c ****                     {
1097:../Dave/Generated/FREERTOS/queue.c ****                         if( listLIST_IS_EMPTY( &( pxQueue->xTasksWaitingToReceive ) ) == pdFALSE )
1098:../Dave/Generated/FREERTOS/queue.c ****                         {
1099:../Dave/Generated/FREERTOS/queue.c ****                             if( xTaskRemoveFromEventList( &( pxQueue->xTasksWaitingToReceive ) ) !=
1100:../Dave/Generated/FREERTOS/queue.c ****                             {
1101:../Dave/Generated/FREERTOS/queue.c ****                                 /* The task waiting has a higher priority so record that a
1102:../Dave/Generated/FREERTOS/queue.c ****                                  * context switch is required. */
1103:../Dave/Generated/FREERTOS/queue.c ****                                 if( pxHigherPriorityTaskWoken != NULL )
1104:../Dave/Generated/FREERTOS/queue.c ****                                 {
1105:../Dave/Generated/FREERTOS/queue.c ****                                     *pxHigherPriorityTaskWoken = pdTRUE;
1106:../Dave/Generated/FREERTOS/queue.c ****                                 }
1107:../Dave/Generated/FREERTOS/queue.c ****                                 else
1108:../Dave/Generated/FREERTOS/queue.c ****                                 {
1109:../Dave/Generated/FREERTOS/queue.c ****                                     mtCOVERAGE_TEST_MARKER();
1110:../Dave/Generated/FREERTOS/queue.c ****                                 }
1111:../Dave/Generated/FREERTOS/queue.c ****                             }
1112:../Dave/Generated/FREERTOS/queue.c ****                             else
1113:../Dave/Generated/FREERTOS/queue.c ****                             {
1114:../Dave/Generated/FREERTOS/queue.c ****                                 mtCOVERAGE_TEST_MARKER();
1115:../Dave/Generated/FREERTOS/queue.c ****                             }
1116:../Dave/Generated/FREERTOS/queue.c ****                         }
1117:../Dave/Generated/FREERTOS/queue.c ****                         else
1118:../Dave/Generated/FREERTOS/queue.c ****                         {
1119:../Dave/Generated/FREERTOS/queue.c ****                             mtCOVERAGE_TEST_MARKER();
1120:../Dave/Generated/FREERTOS/queue.c ****                         }
1121:../Dave/Generated/FREERTOS/queue.c **** 
1122:../Dave/Generated/FREERTOS/queue.c ****                         /* Not used in this path. */
1123:../Dave/Generated/FREERTOS/queue.c ****                         ( void ) uxPreviousMessagesWaiting;
1124:../Dave/Generated/FREERTOS/queue.c ****                     }
1125:../Dave/Generated/FREERTOS/queue.c ****                 #endif /* configUSE_QUEUE_SETS */
1126:../Dave/Generated/FREERTOS/queue.c ****             }
1127:../Dave/Generated/FREERTOS/queue.c ****             else
1128:../Dave/Generated/FREERTOS/queue.c ****             {
1129:../Dave/Generated/FREERTOS/queue.c ****                 /* Increment the lock count so the task that unlocks the queue
1130:../Dave/Generated/FREERTOS/queue.c ****                  * knows that data was posted while it was locked. */
1131:../Dave/Generated/FREERTOS/queue.c ****                 configASSERT( cTxLock != queueINT8_MAX );
 1987              	 .loc 1 1131 0
 1988 0132 97F93330 	 ldrsb r3,[r7,#51]
 1989 0136 7F2B     	 cmp r3,#127
 1990 0138 09D1     	 bne .L145
 1991              	.LBB187:
 1992              	.LBB188:
 197:C:/Infineon/Tools/DAVE IDE/4.5.0.202105191637/eclipse/workspace/xmc4800-CE/Dave/Generated/FREERTOS/portable/GCC\portmacro.h ****         (
 1993              	 .loc 2 197 0 discriminator 1
 1994              	
 1995 013a 4FF0FC03 	 mov r3,#252
 1996 013e 83F31188 	 msr basepri,r3
 1997 0142 BFF36F8F 	 isb 
 1998 0146 BFF34F8F 	 dsb 
 1999              	
 2000              	
 2001              	 .thumb
 2002 014a 7B61     	 str r3,[r7,#20]
 2003              	.L146:
 2004              	.LBE188:
 2005              	.LBE187:
 2006              	 .loc 1 1131 0 discriminator 9
 2007 014c FEE7     	 b .L146
 2008              	.L145:
1132:../Dave/Generated/FREERTOS/queue.c **** 
1133:../Dave/Generated/FREERTOS/queue.c ****                 pxQueue->cTxLock = ( int8_t ) ( cTxLock + 1 );
 2009              	 .loc 1 1133 0
 2010 014e 97F83330 	 ldrb r3,[r7,#51]
 2011 0152 0133     	 adds r3,r3,#1
 2012 0154 DBB2     	 uxtb r3,r3
 2013 0156 DAB2     	 uxtb r2,r3
 2014 0158 BB6B     	 ldr r3,[r7,#56]
 2015 015a 83F84520 	 strb r2,[r3,#69]
 2016              	.L144:
1134:../Dave/Generated/FREERTOS/queue.c ****             }
1135:../Dave/Generated/FREERTOS/queue.c **** 
1136:../Dave/Generated/FREERTOS/queue.c ****             xReturn = pdPASS;
 2017              	 .loc 1 1136 0
 2018 015e 0123     	 movs r3,#1
 2019 0160 FB63     	 str r3,[r7,#60]
 2020              	.LBE186:
1020:../Dave/Generated/FREERTOS/queue.c ****             const int8_t cTxLock = pxQueue->cTxLock;
 2021              	 .loc 1 1020 0
 2022 0162 01E0     	 b .L147
 2023              	.L139:
1137:../Dave/Generated/FREERTOS/queue.c ****         }
1138:../Dave/Generated/FREERTOS/queue.c ****         else
1139:../Dave/Generated/FREERTOS/queue.c ****         {
1140:../Dave/Generated/FREERTOS/queue.c ****             traceQUEUE_SEND_FROM_ISR_FAILED( pxQueue );
1141:../Dave/Generated/FREERTOS/queue.c ****             xReturn = errQUEUE_FULL;
 2024              	 .loc 1 1141 0
 2025 0164 0023     	 movs r3,#0
 2026 0166 FB63     	 str r3,[r7,#60]
 2027              	.L147:
 2028 0168 7B6B     	 ldr r3,[r7,#52]
 2029 016a 3B61     	 str r3,[r7,#16]
 2030              	.LBB189:
 2031              	.LBB190:
 226:C:/Infineon/Tools/DAVE IDE/4.5.0.202105191637/eclipse/workspace/xmc4800-CE/Dave/Generated/FREERTOS/portable/GCC\portmacro.h ****     }
 227:C:/Infineon/Tools/DAVE IDE/4.5.0.202105191637/eclipse/workspace/xmc4800-CE/Dave/Generated/FREERTOS/portable/GCC\portmacro.h **** /*-----------------------------------------------------------*/
 228:C:/Infineon/Tools/DAVE IDE/4.5.0.202105191637/eclipse/workspace/xmc4800-CE/Dave/Generated/FREERTOS/portable/GCC\portmacro.h **** 
 229:C:/Infineon/Tools/DAVE IDE/4.5.0.202105191637/eclipse/workspace/xmc4800-CE/Dave/Generated/FREERTOS/portable/GCC\portmacro.h ****     portFORCE_INLINE static void vPortSetBASEPRI( uint32_t ulNewMaskValue )
 230:C:/Infineon/Tools/DAVE IDE/4.5.0.202105191637/eclipse/workspace/xmc4800-CE/Dave/Generated/FREERTOS/portable/GCC\portmacro.h ****     {
 231:C:/Infineon/Tools/DAVE IDE/4.5.0.202105191637/eclipse/workspace/xmc4800-CE/Dave/Generated/FREERTOS/portable/GCC\portmacro.h ****         __asm volatile
 2032              	 .loc 2 231 0
 2033 016c 3B69     	 ldr r3,[r7,#16]
 2034              	
 2035 016e 83F31188 	 msr basepri,r3
 2036              	
 2037              	 .thumb
 2038              	.LBE190:
 2039              	.LBE189:
1142:../Dave/Generated/FREERTOS/queue.c ****         }
1143:../Dave/Generated/FREERTOS/queue.c ****     }
1144:../Dave/Generated/FREERTOS/queue.c ****     portCLEAR_INTERRUPT_MASK_FROM_ISR( uxSavedInterruptStatus );
1145:../Dave/Generated/FREERTOS/queue.c **** 
1146:../Dave/Generated/FREERTOS/queue.c ****     return xReturn;
 2040              	 .loc 1 1146 0
 2041 0172 FB6B     	 ldr r3,[r7,#60]
1147:../Dave/Generated/FREERTOS/queue.c **** }
 2042              	 .loc 1 1147 0
 2043 0174 1846     	 mov r0,r3
 2044 0176 4037     	 adds r7,r7,#64
 2045              	.LCFI74:
 2046              	 .cfi_def_cfa_offset 8
 2047 0178 BD46     	 mov sp,r7
 2048              	.LCFI75:
 2049              	 .cfi_def_cfa_register 13
 2050              	 
 2051 017a 80BD     	 pop {r7,pc}
 2052              	 .cfi_endproc
 2053              	.LFE151:
 2055              	 .section .text.xQueueGiveFromISR,"ax",%progbits
 2056              	 .align 2
 2057              	 .global xQueueGiveFromISR
 2058              	 .thumb
 2059              	 .thumb_func
 2061              	xQueueGiveFromISR:
 2062              	.LFB152:
1148:../Dave/Generated/FREERTOS/queue.c **** /*-----------------------------------------------------------*/
1149:../Dave/Generated/FREERTOS/queue.c **** 
1150:../Dave/Generated/FREERTOS/queue.c **** BaseType_t xQueueGiveFromISR( QueueHandle_t xQueue,
1151:../Dave/Generated/FREERTOS/queue.c ****                               BaseType_t * const pxHigherPriorityTaskWoken )
1152:../Dave/Generated/FREERTOS/queue.c **** {
 2063              	 .loc 1 1152 0
 2064              	 .cfi_startproc
 2065              	 
 2066              	 
 2067 0000 80B5     	 push {r7,lr}
 2068              	.LCFI76:
 2069              	 .cfi_def_cfa_offset 8
 2070              	 .cfi_offset 7,-8
 2071              	 .cfi_offset 14,-4
 2072 0002 8EB0     	 sub sp,sp,#56
 2073              	.LCFI77:
 2074              	 .cfi_def_cfa_offset 64
 2075 0004 00AF     	 add r7,sp,#0
 2076              	.LCFI78:
 2077              	 .cfi_def_cfa_register 7
 2078 0006 7860     	 str r0,[r7,#4]
 2079 0008 3960     	 str r1,[r7]
1153:../Dave/Generated/FREERTOS/queue.c ****     BaseType_t xReturn;
1154:../Dave/Generated/FREERTOS/queue.c ****     UBaseType_t uxSavedInterruptStatus;
1155:../Dave/Generated/FREERTOS/queue.c ****     Queue_t * const pxQueue = xQueue;
 2080              	 .loc 1 1155 0
 2081 000a 7B68     	 ldr r3,[r7,#4]
 2082 000c 3B63     	 str r3,[r7,#48]
1156:../Dave/Generated/FREERTOS/queue.c **** 
1157:../Dave/Generated/FREERTOS/queue.c ****     /* Similar to xQueueGenericSendFromISR() but used with semaphores where the
1158:../Dave/Generated/FREERTOS/queue.c ****      * item size is 0.  Don't directly wake a task that was blocked on a queue
1159:../Dave/Generated/FREERTOS/queue.c ****      * read, instead return a flag to say whether a context switch is required or
1160:../Dave/Generated/FREERTOS/queue.c ****      * not (i.e. has a task with a higher priority than us been woken by this
1161:../Dave/Generated/FREERTOS/queue.c ****      * post). */
1162:../Dave/Generated/FREERTOS/queue.c **** 
1163:../Dave/Generated/FREERTOS/queue.c ****     configASSERT( pxQueue );
 2083              	 .loc 1 1163 0
 2084 000e 3B6B     	 ldr r3,[r7,#48]
 2085 0010 002B     	 cmp r3,#0
 2086 0012 09D1     	 bne .L150
 2087              	.LBB191:
 2088              	.LBB192:
 197:C:/Infineon/Tools/DAVE IDE/4.5.0.202105191637/eclipse/workspace/xmc4800-CE/Dave/Generated/FREERTOS/portable/GCC\portmacro.h ****         (
 2089              	 .loc 2 197 0 discriminator 1
 2090              	
 2091 0014 4FF0FC03 	 mov r3,#252
 2092 0018 83F31188 	 msr basepri,r3
 2093 001c BFF36F8F 	 isb 
 2094 0020 BFF34F8F 	 dsb 
 2095              	
 2096              	
 2097              	 .thumb
 2098 0024 3B62     	 str r3,[r7,#32]
 2099              	.L151:
 2100              	.LBE192:
 2101              	.LBE191:
 2102              	 .loc 1 1163 0 discriminator 1
 2103 0026 FEE7     	 b .L151
 2104              	.L150:
1164:../Dave/Generated/FREERTOS/queue.c **** 
1165:../Dave/Generated/FREERTOS/queue.c ****     /* xQueueGenericSendFromISR() should be used instead of xQueueGiveFromISR()
1166:../Dave/Generated/FREERTOS/queue.c ****      * if the item size is not 0. */
1167:../Dave/Generated/FREERTOS/queue.c ****     configASSERT( pxQueue->uxItemSize == 0 );
 2105              	 .loc 1 1167 0
 2106 0028 3B6B     	 ldr r3,[r7,#48]
 2107 002a 1B6C     	 ldr r3,[r3,#64]
 2108 002c 002B     	 cmp r3,#0
 2109 002e 09D0     	 beq .L152
 2110              	.LBB193:
 2111              	.LBB194:
 197:C:/Infineon/Tools/DAVE IDE/4.5.0.202105191637/eclipse/workspace/xmc4800-CE/Dave/Generated/FREERTOS/portable/GCC\portmacro.h ****         (
 2112              	 .loc 2 197 0 discriminator 1
 2113              	
 2114 0030 4FF0FC03 	 mov r3,#252
 2115 0034 83F31188 	 msr basepri,r3
 2116 0038 BFF36F8F 	 isb 
 2117 003c BFF34F8F 	 dsb 
 2118              	
 2119              	
 2120              	 .thumb
 2121 0040 FB61     	 str r3,[r7,#28]
 2122              	.L153:
 2123              	.LBE194:
 2124              	.LBE193:
 2125              	 .loc 1 1167 0 discriminator 2
 2126 0042 FEE7     	 b .L153
 2127              	.L152:
1168:../Dave/Generated/FREERTOS/queue.c **** 
1169:../Dave/Generated/FREERTOS/queue.c ****     /* Normally a mutex would not be given from an interrupt, especially if
1170:../Dave/Generated/FREERTOS/queue.c ****      * there is a mutex holder, as priority inheritance makes no sense for an
1171:../Dave/Generated/FREERTOS/queue.c ****      * interrupts, only tasks. */
1172:../Dave/Generated/FREERTOS/queue.c ****     configASSERT( !( ( pxQueue->uxQueueType == queueQUEUE_IS_MUTEX ) && ( pxQueue->u.xSemaphore.xMu
 2128              	 .loc 1 1172 0
 2129 0044 3B6B     	 ldr r3,[r7,#48]
 2130 0046 1B68     	 ldr r3,[r3]
 2131 0048 002B     	 cmp r3,#0
 2132 004a 03D1     	 bne .L154
 2133              	 .loc 1 1172 0 is_stmt 0 discriminator 2
 2134 004c 3B6B     	 ldr r3,[r7,#48]
 2135 004e 9B68     	 ldr r3,[r3,#8]
 2136 0050 002B     	 cmp r3,#0
 2137 0052 01D1     	 bne .L155
 2138              	.L154:
 2139              	 .loc 1 1172 0 discriminator 3
 2140 0054 0123     	 movs r3,#1
 2141 0056 00E0     	 b .L156
 2142              	.L155:
 2143              	 .loc 1 1172 0 discriminator 4
 2144 0058 0023     	 movs r3,#0
 2145              	.L156:
 2146              	 .loc 1 1172 0 discriminator 6
 2147 005a 002B     	 cmp r3,#0
 2148 005c 09D1     	 bne .L157
 2149              	.LBB195:
 2150              	.LBB196:
 197:C:/Infineon/Tools/DAVE IDE/4.5.0.202105191637/eclipse/workspace/xmc4800-CE/Dave/Generated/FREERTOS/portable/GCC\portmacro.h ****         (
 2151              	 .loc 2 197 0 is_stmt 1 discriminator 7
 2152              	
 2153 005e 4FF0FC03 	 mov r3,#252
 2154 0062 83F31188 	 msr basepri,r3
 2155 0066 BFF36F8F 	 isb 
 2156 006a BFF34F8F 	 dsb 
 2157              	
 2158              	
 2159              	 .thumb
 2160 006e BB61     	 str r3,[r7,#24]
 2161              	.L158:
 2162              	.LBE196:
 2163              	.LBE195:
 2164              	 .loc 1 1172 0 discriminator 3
 2165 0070 FEE7     	 b .L158
 2166              	.L157:
1173:../Dave/Generated/FREERTOS/queue.c **** 
1174:../Dave/Generated/FREERTOS/queue.c ****     /* RTOS ports that support interrupt nesting have the concept of a maximum
1175:../Dave/Generated/FREERTOS/queue.c ****      * system call (or maximum API call) interrupt priority.  Interrupts that are
1176:../Dave/Generated/FREERTOS/queue.c ****      * above the maximum system call priority are kept permanently enabled, even
1177:../Dave/Generated/FREERTOS/queue.c ****      * when the RTOS kernel is in a critical section, but cannot make any calls to
1178:../Dave/Generated/FREERTOS/queue.c ****      * FreeRTOS API functions.  If configASSERT() is defined in FreeRTOSConfig.h
1179:../Dave/Generated/FREERTOS/queue.c ****      * then portASSERT_IF_INTERRUPT_PRIORITY_INVALID() will result in an assertion
1180:../Dave/Generated/FREERTOS/queue.c ****      * failure if a FreeRTOS API function is called from an interrupt that has been
1181:../Dave/Generated/FREERTOS/queue.c ****      * assigned a priority above the configured maximum system call priority.
1182:../Dave/Generated/FREERTOS/queue.c ****      * Only FreeRTOS functions that end in FromISR can be called from interrupts
1183:../Dave/Generated/FREERTOS/queue.c ****      * that have been assigned a priority at or (logically) below the maximum
1184:../Dave/Generated/FREERTOS/queue.c ****      * system call interrupt priority.  FreeRTOS maintains a separate interrupt
1185:../Dave/Generated/FREERTOS/queue.c ****      * safe API to ensure interrupt entry is as fast and as simple as possible.
1186:../Dave/Generated/FREERTOS/queue.c ****      * More information (albeit Cortex-M specific) is provided on the following
1187:../Dave/Generated/FREERTOS/queue.c ****      * link: https://www.FreeRTOS.org/RTOS-Cortex-M3-M4.html */
1188:../Dave/Generated/FREERTOS/queue.c ****     portASSERT_IF_INTERRUPT_PRIORITY_INVALID();
 2167              	 .loc 1 1188 0
 2168 0072 FFF7FEFF 	 bl vPortValidateInterruptPriority
 2169              	.LBB197:
 2170              	.LBB198:
 213:C:/Infineon/Tools/DAVE IDE/4.5.0.202105191637/eclipse/workspace/xmc4800-CE/Dave/Generated/FREERTOS/portable/GCC\portmacro.h ****         (
 2171              	 .loc 2 213 0
 2172              	
 2173 0076 EFF31182 	 mrs r2,basepri
 2174 007a 4FF0FC03 	 mov r3,#252
 2175 007e 83F31188 	 msr basepri,r3
 2176 0082 BFF36F8F 	 isb 
 2177 0086 BFF34F8F 	 dsb 
 2178              	
 2179              	
 2180              	 .thumb
 2181 008a 7A61     	 str r2,[r7,#20]
 2182 008c 3B61     	 str r3,[r7,#16]
 225:C:/Infineon/Tools/DAVE IDE/4.5.0.202105191637/eclipse/workspace/xmc4800-CE/Dave/Generated/FREERTOS/portable/GCC\portmacro.h ****     }
 2183              	 .loc 2 225 0
 2184 008e 7B69     	 ldr r3,[r7,#20]
 2185              	.LBE198:
 2186              	.LBE197:
1189:../Dave/Generated/FREERTOS/queue.c **** 
1190:../Dave/Generated/FREERTOS/queue.c ****     uxSavedInterruptStatus = portSET_INTERRUPT_MASK_FROM_ISR();
 2187              	 .loc 1 1190 0
 2188 0090 FB62     	 str r3,[r7,#44]
 2189              	.LBB199:
1191:../Dave/Generated/FREERTOS/queue.c ****     {
1192:../Dave/Generated/FREERTOS/queue.c ****         const UBaseType_t uxMessagesWaiting = pxQueue->uxMessagesWaiting;
 2190              	 .loc 1 1192 0
 2191 0092 3B6B     	 ldr r3,[r7,#48]
 2192 0094 9B6B     	 ldr r3,[r3,#56]
 2193 0096 BB62     	 str r3,[r7,#40]
1193:../Dave/Generated/FREERTOS/queue.c **** 
1194:../Dave/Generated/FREERTOS/queue.c ****         /* When the queue is used to implement a semaphore no data is ever
1195:../Dave/Generated/FREERTOS/queue.c ****          * moved through the queue but it is still valid to see if the queue 'has
1196:../Dave/Generated/FREERTOS/queue.c ****          * space'. */
1197:../Dave/Generated/FREERTOS/queue.c ****         if( uxMessagesWaiting < pxQueue->uxLength )
 2194              	 .loc 1 1197 0
 2195 0098 3B6B     	 ldr r3,[r7,#48]
 2196 009a DA6B     	 ldr r2,[r3,#60]
 2197 009c BB6A     	 ldr r3,[r7,#40]
 2198 009e 9A42     	 cmp r2,r3
 2199 00a0 4AD9     	 bls .L160
 2200              	.LBB200:
1198:../Dave/Generated/FREERTOS/queue.c ****         {
1199:../Dave/Generated/FREERTOS/queue.c ****             const int8_t cTxLock = pxQueue->cTxLock;
 2201              	 .loc 1 1199 0
 2202 00a2 3B6B     	 ldr r3,[r7,#48]
 2203 00a4 93F84530 	 ldrb r3,[r3,#69]
 2204 00a8 87F82730 	 strb r3,[r7,#39]
1200:../Dave/Generated/FREERTOS/queue.c **** 
1201:../Dave/Generated/FREERTOS/queue.c ****             traceQUEUE_SEND_FROM_ISR( pxQueue );
1202:../Dave/Generated/FREERTOS/queue.c **** 
1203:../Dave/Generated/FREERTOS/queue.c ****             /* A task can only have an inherited priority if it is a mutex
1204:../Dave/Generated/FREERTOS/queue.c ****              * holder - and if there is a mutex holder then the mutex cannot be
1205:../Dave/Generated/FREERTOS/queue.c ****              * given from an ISR.  As this is the ISR version of the function it
1206:../Dave/Generated/FREERTOS/queue.c ****              * can be assumed there is no mutex holder and no need to determine if
1207:../Dave/Generated/FREERTOS/queue.c ****              * priority disinheritance is needed.  Simply increase the count of
1208:../Dave/Generated/FREERTOS/queue.c ****              * messages (semaphores) available. */
1209:../Dave/Generated/FREERTOS/queue.c ****             pxQueue->uxMessagesWaiting = uxMessagesWaiting + ( UBaseType_t ) 1;
 2205              	 .loc 1 1209 0
 2206 00ac BB6A     	 ldr r3,[r7,#40]
 2207 00ae 5A1C     	 adds r2,r3,#1
 2208 00b0 3B6B     	 ldr r3,[r7,#48]
 2209 00b2 9A63     	 str r2,[r3,#56]
1210:../Dave/Generated/FREERTOS/queue.c **** 
1211:../Dave/Generated/FREERTOS/queue.c ****             /* The event list is not altered if the queue is locked.  This will
1212:../Dave/Generated/FREERTOS/queue.c ****              * be done when the queue is unlocked later. */
1213:../Dave/Generated/FREERTOS/queue.c ****             if( cTxLock == queueUNLOCKED )
 2210              	 .loc 1 1213 0
 2211 00b4 97F92730 	 ldrsb r3,[r7,#39]
 2212 00b8 B3F1FF3F 	 cmp r3,#-1
 2213 00bc 23D1     	 bne .L161
1214:../Dave/Generated/FREERTOS/queue.c ****             {
1215:../Dave/Generated/FREERTOS/queue.c ****                 #if ( configUSE_QUEUE_SETS == 1 )
1216:../Dave/Generated/FREERTOS/queue.c ****                     {
1217:../Dave/Generated/FREERTOS/queue.c ****                         if( pxQueue->pxQueueSetContainer != NULL )
 2214              	 .loc 1 1217 0
 2215 00be 3B6B     	 ldr r3,[r7,#48]
 2216 00c0 9B6C     	 ldr r3,[r3,#72]
 2217 00c2 002B     	 cmp r3,#0
 2218 00c4 0CD0     	 beq .L162
1218:../Dave/Generated/FREERTOS/queue.c ****                         {
1219:../Dave/Generated/FREERTOS/queue.c ****                             if( prvNotifyQueueSetContainer( pxQueue ) != pdFALSE )
 2219              	 .loc 1 1219 0
 2220 00c6 386B     	 ldr r0,[r7,#48]
 2221 00c8 FFF7FEFF 	 bl prvNotifyQueueSetContainer
 2222 00cc 0346     	 mov r3,r0
 2223 00ce 002B     	 cmp r3,#0
 2224 00d0 2FD0     	 beq .L163
1220:../Dave/Generated/FREERTOS/queue.c ****                             {
1221:../Dave/Generated/FREERTOS/queue.c ****                                 /* The semaphore is a member of a queue set, and
1222:../Dave/Generated/FREERTOS/queue.c ****                                  * posting to the queue set caused a higher priority
1223:../Dave/Generated/FREERTOS/queue.c ****                                  * task to unblock.  A context switch is required. */
1224:../Dave/Generated/FREERTOS/queue.c ****                                 if( pxHigherPriorityTaskWoken != NULL )
 2225              	 .loc 1 1224 0
 2226 00d2 3B68     	 ldr r3,[r7]
 2227 00d4 002B     	 cmp r3,#0
 2228 00d6 2CD0     	 beq .L163
1225:../Dave/Generated/FREERTOS/queue.c ****                                 {
1226:../Dave/Generated/FREERTOS/queue.c ****                                     *pxHigherPriorityTaskWoken = pdTRUE;
 2229              	 .loc 1 1226 0
 2230 00d8 3B68     	 ldr r3,[r7]
 2231 00da 0122     	 movs r2,#1
 2232 00dc 1A60     	 str r2,[r3]
 2233 00de 28E0     	 b .L163
 2234              	.L162:
1227:../Dave/Generated/FREERTOS/queue.c ****                                 }
1228:../Dave/Generated/FREERTOS/queue.c ****                                 else
1229:../Dave/Generated/FREERTOS/queue.c ****                                 {
1230:../Dave/Generated/FREERTOS/queue.c ****                                     mtCOVERAGE_TEST_MARKER();
1231:../Dave/Generated/FREERTOS/queue.c ****                                 }
1232:../Dave/Generated/FREERTOS/queue.c ****                             }
1233:../Dave/Generated/FREERTOS/queue.c ****                             else
1234:../Dave/Generated/FREERTOS/queue.c ****                             {
1235:../Dave/Generated/FREERTOS/queue.c ****                                 mtCOVERAGE_TEST_MARKER();
1236:../Dave/Generated/FREERTOS/queue.c ****                             }
1237:../Dave/Generated/FREERTOS/queue.c ****                         }
1238:../Dave/Generated/FREERTOS/queue.c ****                         else
1239:../Dave/Generated/FREERTOS/queue.c ****                         {
1240:../Dave/Generated/FREERTOS/queue.c ****                             if( listLIST_IS_EMPTY( &( pxQueue->xTasksWaitingToReceive ) ) == pdFALS
 2235              	 .loc 1 1240 0
 2236 00e0 3B6B     	 ldr r3,[r7,#48]
 2237 00e2 5B6A     	 ldr r3,[r3,#36]
 2238 00e4 002B     	 cmp r3,#0
 2239 00e6 24D0     	 beq .L163
1241:../Dave/Generated/FREERTOS/queue.c ****                             {
1242:../Dave/Generated/FREERTOS/queue.c ****                                 if( xTaskRemoveFromEventList( &( pxQueue->xTasksWaitingToReceive ) 
 2240              	 .loc 1 1242 0
 2241 00e8 3B6B     	 ldr r3,[r7,#48]
 2242 00ea 2433     	 adds r3,r3,#36
 2243 00ec 1846     	 mov r0,r3
 2244 00ee FFF7FEFF 	 bl xTaskRemoveFromEventList
 2245 00f2 0346     	 mov r3,r0
 2246 00f4 002B     	 cmp r3,#0
 2247 00f6 1CD0     	 beq .L163
1243:../Dave/Generated/FREERTOS/queue.c ****                                 {
1244:../Dave/Generated/FREERTOS/queue.c ****                                     /* The task waiting has a higher priority so
1245:../Dave/Generated/FREERTOS/queue.c ****                                      *  record that a context switch is required. */
1246:../Dave/Generated/FREERTOS/queue.c ****                                     if( pxHigherPriorityTaskWoken != NULL )
 2248              	 .loc 1 1246 0
 2249 00f8 3B68     	 ldr r3,[r7]
 2250 00fa 002B     	 cmp r3,#0
 2251 00fc 19D0     	 beq .L163
1247:../Dave/Generated/FREERTOS/queue.c ****                                     {
1248:../Dave/Generated/FREERTOS/queue.c ****                                         *pxHigherPriorityTaskWoken = pdTRUE;
 2252              	 .loc 1 1248 0
 2253 00fe 3B68     	 ldr r3,[r7]
 2254 0100 0122     	 movs r2,#1
 2255 0102 1A60     	 str r2,[r3]
 2256 0104 15E0     	 b .L163
 2257              	.L161:
1249:../Dave/Generated/FREERTOS/queue.c ****                                     }
1250:../Dave/Generated/FREERTOS/queue.c ****                                     else
1251:../Dave/Generated/FREERTOS/queue.c ****                                     {
1252:../Dave/Generated/FREERTOS/queue.c ****                                         mtCOVERAGE_TEST_MARKER();
1253:../Dave/Generated/FREERTOS/queue.c ****                                     }
1254:../Dave/Generated/FREERTOS/queue.c ****                                 }
1255:../Dave/Generated/FREERTOS/queue.c ****                                 else
1256:../Dave/Generated/FREERTOS/queue.c ****                                 {
1257:../Dave/Generated/FREERTOS/queue.c ****                                     mtCOVERAGE_TEST_MARKER();
1258:../Dave/Generated/FREERTOS/queue.c ****                                 }
1259:../Dave/Generated/FREERTOS/queue.c ****                             }
1260:../Dave/Generated/FREERTOS/queue.c ****                             else
1261:../Dave/Generated/FREERTOS/queue.c ****                             {
1262:../Dave/Generated/FREERTOS/queue.c ****                                 mtCOVERAGE_TEST_MARKER();
1263:../Dave/Generated/FREERTOS/queue.c ****                             }
1264:../Dave/Generated/FREERTOS/queue.c ****                         }
1265:../Dave/Generated/FREERTOS/queue.c ****                     }
1266:../Dave/Generated/FREERTOS/queue.c ****                 #else /* configUSE_QUEUE_SETS */
1267:../Dave/Generated/FREERTOS/queue.c ****                     {
1268:../Dave/Generated/FREERTOS/queue.c ****                         if( listLIST_IS_EMPTY( &( pxQueue->xTasksWaitingToReceive ) ) == pdFALSE )
1269:../Dave/Generated/FREERTOS/queue.c ****                         {
1270:../Dave/Generated/FREERTOS/queue.c ****                             if( xTaskRemoveFromEventList( &( pxQueue->xTasksWaitingToReceive ) ) !=
1271:../Dave/Generated/FREERTOS/queue.c ****                             {
1272:../Dave/Generated/FREERTOS/queue.c ****                                 /* The task waiting has a higher priority so record that a
1273:../Dave/Generated/FREERTOS/queue.c ****                                  * context switch is required. */
1274:../Dave/Generated/FREERTOS/queue.c ****                                 if( pxHigherPriorityTaskWoken != NULL )
1275:../Dave/Generated/FREERTOS/queue.c ****                                 {
1276:../Dave/Generated/FREERTOS/queue.c ****                                     *pxHigherPriorityTaskWoken = pdTRUE;
1277:../Dave/Generated/FREERTOS/queue.c ****                                 }
1278:../Dave/Generated/FREERTOS/queue.c ****                                 else
1279:../Dave/Generated/FREERTOS/queue.c ****                                 {
1280:../Dave/Generated/FREERTOS/queue.c ****                                     mtCOVERAGE_TEST_MARKER();
1281:../Dave/Generated/FREERTOS/queue.c ****                                 }
1282:../Dave/Generated/FREERTOS/queue.c ****                             }
1283:../Dave/Generated/FREERTOS/queue.c ****                             else
1284:../Dave/Generated/FREERTOS/queue.c ****                             {
1285:../Dave/Generated/FREERTOS/queue.c ****                                 mtCOVERAGE_TEST_MARKER();
1286:../Dave/Generated/FREERTOS/queue.c ****                             }
1287:../Dave/Generated/FREERTOS/queue.c ****                         }
1288:../Dave/Generated/FREERTOS/queue.c ****                         else
1289:../Dave/Generated/FREERTOS/queue.c ****                         {
1290:../Dave/Generated/FREERTOS/queue.c ****                             mtCOVERAGE_TEST_MARKER();
1291:../Dave/Generated/FREERTOS/queue.c ****                         }
1292:../Dave/Generated/FREERTOS/queue.c ****                     }
1293:../Dave/Generated/FREERTOS/queue.c ****                 #endif /* configUSE_QUEUE_SETS */
1294:../Dave/Generated/FREERTOS/queue.c ****             }
1295:../Dave/Generated/FREERTOS/queue.c ****             else
1296:../Dave/Generated/FREERTOS/queue.c ****             {
1297:../Dave/Generated/FREERTOS/queue.c ****                 /* Increment the lock count so the task that unlocks the queue
1298:../Dave/Generated/FREERTOS/queue.c ****                  * knows that data was posted while it was locked. */
1299:../Dave/Generated/FREERTOS/queue.c ****                 configASSERT( cTxLock != queueINT8_MAX );
 2258              	 .loc 1 1299 0
 2259 0106 97F92730 	 ldrsb r3,[r7,#39]
 2260 010a 7F2B     	 cmp r3,#127
 2261 010c 09D1     	 bne .L164
 2262              	.LBB201:
 2263              	.LBB202:
 197:C:/Infineon/Tools/DAVE IDE/4.5.0.202105191637/eclipse/workspace/xmc4800-CE/Dave/Generated/FREERTOS/portable/GCC\portmacro.h ****         (
 2264              	 .loc 2 197 0 discriminator 1
 2265              	
 2266 010e 4FF0FC03 	 mov r3,#252
 2267 0112 83F31188 	 msr basepri,r3
 2268 0116 BFF36F8F 	 isb 
 2269 011a BFF34F8F 	 dsb 
 2270              	
 2271              	
 2272              	 .thumb
 2273 011e FB60     	 str r3,[r7,#12]
 2274              	.L165:
 2275              	.LBE202:
 2276              	.LBE201:
 2277              	 .loc 1 1299 0 discriminator 8
 2278 0120 FEE7     	 b .L165
 2279              	.L164:
1300:../Dave/Generated/FREERTOS/queue.c **** 
1301:../Dave/Generated/FREERTOS/queue.c ****                 pxQueue->cTxLock = ( int8_t ) ( cTxLock + 1 );
 2280              	 .loc 1 1301 0
 2281 0122 97F82730 	 ldrb r3,[r7,#39]
 2282 0126 0133     	 adds r3,r3,#1
 2283 0128 DBB2     	 uxtb r3,r3
 2284 012a DAB2     	 uxtb r2,r3
 2285 012c 3B6B     	 ldr r3,[r7,#48]
 2286 012e 83F84520 	 strb r2,[r3,#69]
 2287              	.L163:
1302:../Dave/Generated/FREERTOS/queue.c ****             }
1303:../Dave/Generated/FREERTOS/queue.c **** 
1304:../Dave/Generated/FREERTOS/queue.c ****             xReturn = pdPASS;
 2288              	 .loc 1 1304 0
 2289 0132 0123     	 movs r3,#1
 2290 0134 7B63     	 str r3,[r7,#52]
 2291              	.LBE200:
 2292 0136 01E0     	 b .L166
 2293              	.L160:
1305:../Dave/Generated/FREERTOS/queue.c ****         }
1306:../Dave/Generated/FREERTOS/queue.c ****         else
1307:../Dave/Generated/FREERTOS/queue.c ****         {
1308:../Dave/Generated/FREERTOS/queue.c ****             traceQUEUE_SEND_FROM_ISR_FAILED( pxQueue );
1309:../Dave/Generated/FREERTOS/queue.c ****             xReturn = errQUEUE_FULL;
 2294              	 .loc 1 1309 0
 2295 0138 0023     	 movs r3,#0
 2296 013a 7B63     	 str r3,[r7,#52]
 2297              	.L166:
 2298 013c FB6A     	 ldr r3,[r7,#44]
 2299 013e BB60     	 str r3,[r7,#8]
 2300              	.LBE199:
 2301              	.LBB203:
 2302              	.LBB204:
 2303              	 .loc 2 231 0
 2304 0140 BB68     	 ldr r3,[r7,#8]
 2305              	
 2306 0142 83F31188 	 msr basepri,r3
 2307              	
 2308              	 .thumb
 2309              	.LBE204:
 2310              	.LBE203:
1310:../Dave/Generated/FREERTOS/queue.c ****         }
1311:../Dave/Generated/FREERTOS/queue.c ****     }
1312:../Dave/Generated/FREERTOS/queue.c ****     portCLEAR_INTERRUPT_MASK_FROM_ISR( uxSavedInterruptStatus );
1313:../Dave/Generated/FREERTOS/queue.c **** 
1314:../Dave/Generated/FREERTOS/queue.c ****     return xReturn;
 2311              	 .loc 1 1314 0
 2312 0146 7B6B     	 ldr r3,[r7,#52]
1315:../Dave/Generated/FREERTOS/queue.c **** }
 2313              	 .loc 1 1315 0
 2314 0148 1846     	 mov r0,r3
 2315 014a 3837     	 adds r7,r7,#56
 2316              	.LCFI79:
 2317              	 .cfi_def_cfa_offset 8
 2318 014c BD46     	 mov sp,r7
 2319              	.LCFI80:
 2320              	 .cfi_def_cfa_register 13
 2321              	 
 2322 014e 80BD     	 pop {r7,pc}
 2323              	 .cfi_endproc
 2324              	.LFE152:
 2326              	 .section .text.xQueueReceive,"ax",%progbits
 2327              	 .align 2
 2328              	 .global xQueueReceive
 2329              	 .thumb
 2330              	 .thumb_func
 2332              	xQueueReceive:
 2333              	.LFB153:
1316:../Dave/Generated/FREERTOS/queue.c **** /*-----------------------------------------------------------*/
1317:../Dave/Generated/FREERTOS/queue.c **** 
1318:../Dave/Generated/FREERTOS/queue.c **** BaseType_t xQueueReceive( QueueHandle_t xQueue,
1319:../Dave/Generated/FREERTOS/queue.c ****                           void * const pvBuffer,
1320:../Dave/Generated/FREERTOS/queue.c ****                           TickType_t xTicksToWait )
1321:../Dave/Generated/FREERTOS/queue.c **** {
 2334              	 .loc 1 1321 0
 2335              	 .cfi_startproc
 2336              	 
 2337              	 
 2338 0000 80B5     	 push {r7,lr}
 2339              	.LCFI81:
 2340              	 .cfi_def_cfa_offset 8
 2341              	 .cfi_offset 7,-8
 2342              	 .cfi_offset 14,-4
 2343 0002 8CB0     	 sub sp,sp,#48
 2344              	.LCFI82:
 2345              	 .cfi_def_cfa_offset 56
 2346 0004 00AF     	 add r7,sp,#0
 2347              	.LCFI83:
 2348              	 .cfi_def_cfa_register 7
 2349 0006 F860     	 str r0,[r7,#12]
 2350 0008 B960     	 str r1,[r7,#8]
 2351 000a 7A60     	 str r2,[r7,#4]
1322:../Dave/Generated/FREERTOS/queue.c ****     BaseType_t xEntryTimeSet = pdFALSE;
 2352              	 .loc 1 1322 0
 2353 000c 0023     	 movs r3,#0
 2354 000e FB62     	 str r3,[r7,#44]
1323:../Dave/Generated/FREERTOS/queue.c ****     TimeOut_t xTimeOut;
1324:../Dave/Generated/FREERTOS/queue.c ****     Queue_t * const pxQueue = xQueue;
 2355              	 .loc 1 1324 0
 2356 0010 FB68     	 ldr r3,[r7,#12]
 2357 0012 BB62     	 str r3,[r7,#40]
1325:../Dave/Generated/FREERTOS/queue.c **** 
1326:../Dave/Generated/FREERTOS/queue.c ****     /* Check the pointer is not NULL. */
1327:../Dave/Generated/FREERTOS/queue.c ****     configASSERT( ( pxQueue ) );
 2358              	 .loc 1 1327 0
 2359 0014 BB6A     	 ldr r3,[r7,#40]
 2360 0016 002B     	 cmp r3,#0
 2361 0018 09D1     	 bne .L169
 2362              	.LBB205:
 2363              	.LBB206:
 197:C:/Infineon/Tools/DAVE IDE/4.5.0.202105191637/eclipse/workspace/xmc4800-CE/Dave/Generated/FREERTOS/portable/GCC\portmacro.h ****         (
 2364              	 .loc 2 197 0 discriminator 1
 2365              	
 2366 001a 4FF0FC03 	 mov r3,#252
 2367 001e 83F31188 	 msr basepri,r3
 2368 0022 BFF36F8F 	 isb 
 2369 0026 BFF34F8F 	 dsb 
 2370              	
 2371              	
 2372              	 .thumb
 2373 002a 3B62     	 str r3,[r7,#32]
 2374              	.L170:
 2375              	.LBE206:
 2376              	.LBE205:
 2377              	 .loc 1 1327 0 discriminator 1
 2378 002c FEE7     	 b .L170
 2379              	.L169:
1328:../Dave/Generated/FREERTOS/queue.c **** 
1329:../Dave/Generated/FREERTOS/queue.c ****     /* The buffer into which data is received can only be NULL if the data size
1330:../Dave/Generated/FREERTOS/queue.c ****      * is zero (so no data is copied into the buffer). */
1331:../Dave/Generated/FREERTOS/queue.c ****     configASSERT( !( ( ( pvBuffer ) == NULL ) && ( ( pxQueue )->uxItemSize != ( UBaseType_t ) 0U ) 
 2380              	 .loc 1 1331 0
 2381 002e BB68     	 ldr r3,[r7,#8]
 2382 0030 002B     	 cmp r3,#0
 2383 0032 03D1     	 bne .L171
 2384              	 .loc 1 1331 0 is_stmt 0 discriminator 2
 2385 0034 BB6A     	 ldr r3,[r7,#40]
 2386 0036 1B6C     	 ldr r3,[r3,#64]
 2387 0038 002B     	 cmp r3,#0
 2388 003a 01D1     	 bne .L172
 2389              	.L171:
 2390              	 .loc 1 1331 0 discriminator 3
 2391 003c 0123     	 movs r3,#1
 2392 003e 00E0     	 b .L173
 2393              	.L172:
 2394              	 .loc 1 1331 0 discriminator 4
 2395 0040 0023     	 movs r3,#0
 2396              	.L173:
 2397              	 .loc 1 1331 0 discriminator 6
 2398 0042 002B     	 cmp r3,#0
 2399 0044 09D1     	 bne .L174
 2400              	.LBB207:
 2401              	.LBB208:
 197:C:/Infineon/Tools/DAVE IDE/4.5.0.202105191637/eclipse/workspace/xmc4800-CE/Dave/Generated/FREERTOS/portable/GCC\portmacro.h ****         (
 2402              	 .loc 2 197 0 is_stmt 1 discriminator 7
 2403              	
 2404 0046 4FF0FC03 	 mov r3,#252
 2405 004a 83F31188 	 msr basepri,r3
 2406 004e BFF36F8F 	 isb 
 2407 0052 BFF34F8F 	 dsb 
 2408              	
 2409              	
 2410              	 .thumb
 2411 0056 FB61     	 str r3,[r7,#28]
 2412              	.L175:
 2413              	.LBE208:
 2414              	.LBE207:
 2415              	 .loc 1 1331 0 discriminator 2
 2416 0058 FEE7     	 b .L175
 2417              	.L174:
1332:../Dave/Generated/FREERTOS/queue.c **** 
1333:../Dave/Generated/FREERTOS/queue.c ****     /* Cannot block if the scheduler is suspended. */
1334:../Dave/Generated/FREERTOS/queue.c ****     #if ( ( INCLUDE_xTaskGetSchedulerState == 1 ) || ( configUSE_TIMERS == 1 ) )
1335:../Dave/Generated/FREERTOS/queue.c ****         {
1336:../Dave/Generated/FREERTOS/queue.c ****             configASSERT( !( ( xTaskGetSchedulerState() == taskSCHEDULER_SUSPENDED ) && ( xTicksToW
 2418              	 .loc 1 1336 0
 2419 005a FFF7FEFF 	 bl xTaskGetSchedulerState
 2420 005e 0346     	 mov r3,r0
 2421 0060 002B     	 cmp r3,#0
 2422 0062 02D1     	 bne .L176
 2423              	 .loc 1 1336 0 is_stmt 0 discriminator 2
 2424 0064 7B68     	 ldr r3,[r7,#4]
 2425 0066 002B     	 cmp r3,#0
 2426 0068 01D1     	 bne .L177
 2427              	.L176:
 2428              	 .loc 1 1336 0 discriminator 3
 2429 006a 0123     	 movs r3,#1
 2430 006c 00E0     	 b .L178
 2431              	.L177:
 2432              	 .loc 1 1336 0 discriminator 4
 2433 006e 0023     	 movs r3,#0
 2434              	.L178:
 2435              	 .loc 1 1336 0 discriminator 6
 2436 0070 002B     	 cmp r3,#0
 2437 0072 09D1     	 bne .L179
 2438              	.LBB209:
 2439              	.LBB210:
 197:C:/Infineon/Tools/DAVE IDE/4.5.0.202105191637/eclipse/workspace/xmc4800-CE/Dave/Generated/FREERTOS/portable/GCC\portmacro.h ****         (
 2440              	 .loc 2 197 0 is_stmt 1 discriminator 7
 2441              	
 2442 0074 4FF0FC03 	 mov r3,#252
 2443 0078 83F31188 	 msr basepri,r3
 2444 007c BFF36F8F 	 isb 
 2445 0080 BFF34F8F 	 dsb 
 2446              	
 2447              	
 2448              	 .thumb
 2449 0084 BB61     	 str r3,[r7,#24]
 2450              	.L180:
 2451              	.LBE210:
 2452              	.LBE209:
 2453              	 .loc 1 1336 0 discriminator 3
 2454 0086 FEE7     	 b .L180
 2455              	.L179:
1337:../Dave/Generated/FREERTOS/queue.c ****         }
1338:../Dave/Generated/FREERTOS/queue.c ****     #endif
1339:../Dave/Generated/FREERTOS/queue.c **** 
1340:../Dave/Generated/FREERTOS/queue.c ****     /*lint -save -e904  This function relaxes the coding standard somewhat to
1341:../Dave/Generated/FREERTOS/queue.c ****      * allow return statements within the function itself.  This is done in the
1342:../Dave/Generated/FREERTOS/queue.c ****      * interest of execution time efficiency. */
1343:../Dave/Generated/FREERTOS/queue.c ****     for( ; ; )
1344:../Dave/Generated/FREERTOS/queue.c ****     {
1345:../Dave/Generated/FREERTOS/queue.c ****         taskENTER_CRITICAL();
 2456              	 .loc 1 1345 0
 2457 0088 FFF7FEFF 	 bl vPortEnterCritical
 2458              	.LBB211:
1346:../Dave/Generated/FREERTOS/queue.c ****         {
1347:../Dave/Generated/FREERTOS/queue.c ****             const UBaseType_t uxMessagesWaiting = pxQueue->uxMessagesWaiting;
 2459              	 .loc 1 1347 0
 2460 008c BB6A     	 ldr r3,[r7,#40]
 2461 008e 9B6B     	 ldr r3,[r3,#56]
 2462 0090 7B62     	 str r3,[r7,#36]
1348:../Dave/Generated/FREERTOS/queue.c **** 
1349:../Dave/Generated/FREERTOS/queue.c ****             /* Is there data in the queue now?  To be running the calling task
1350:../Dave/Generated/FREERTOS/queue.c ****              * must be the highest priority task wanting to access the queue. */
1351:../Dave/Generated/FREERTOS/queue.c ****             if( uxMessagesWaiting > ( UBaseType_t ) 0 )
 2463              	 .loc 1 1351 0
 2464 0092 7B6A     	 ldr r3,[r7,#36]
 2465 0094 002B     	 cmp r3,#0
 2466 0096 1FD0     	 beq .L181
1352:../Dave/Generated/FREERTOS/queue.c ****             {
1353:../Dave/Generated/FREERTOS/queue.c ****                 /* Data available, remove one item. */
1354:../Dave/Generated/FREERTOS/queue.c ****                 prvCopyDataFromQueue( pxQueue, pvBuffer );
 2467              	 .loc 1 1354 0
 2468 0098 B86A     	 ldr r0,[r7,#40]
 2469 009a B968     	 ldr r1,[r7,#8]
 2470 009c FFF7FEFF 	 bl prvCopyDataFromQueue
1355:../Dave/Generated/FREERTOS/queue.c ****                 traceQUEUE_RECEIVE( pxQueue );
1356:../Dave/Generated/FREERTOS/queue.c ****                 pxQueue->uxMessagesWaiting = uxMessagesWaiting - ( UBaseType_t ) 1;
 2471              	 .loc 1 1356 0
 2472 00a0 7B6A     	 ldr r3,[r7,#36]
 2473 00a2 5A1E     	 subs r2,r3,#1
 2474 00a4 BB6A     	 ldr r3,[r7,#40]
 2475 00a6 9A63     	 str r2,[r3,#56]
1357:../Dave/Generated/FREERTOS/queue.c **** 
1358:../Dave/Generated/FREERTOS/queue.c ****                 /* There is now space in the queue, were any tasks waiting to
1359:../Dave/Generated/FREERTOS/queue.c ****                  * post to the queue?  If so, unblock the highest priority waiting
1360:../Dave/Generated/FREERTOS/queue.c ****                  * task. */
1361:../Dave/Generated/FREERTOS/queue.c ****                 if( listLIST_IS_EMPTY( &( pxQueue->xTasksWaitingToSend ) ) == pdFALSE )
 2476              	 .loc 1 1361 0
 2477 00a8 BB6A     	 ldr r3,[r7,#40]
 2478 00aa 1B69     	 ldr r3,[r3,#16]
 2479 00ac 002B     	 cmp r3,#0
 2480 00ae 0FD0     	 beq .L182
1362:../Dave/Generated/FREERTOS/queue.c ****                 {
1363:../Dave/Generated/FREERTOS/queue.c ****                     if( xTaskRemoveFromEventList( &( pxQueue->xTasksWaitingToSend ) ) != pdFALSE )
 2481              	 .loc 1 1363 0
 2482 00b0 BB6A     	 ldr r3,[r7,#40]
 2483 00b2 1033     	 adds r3,r3,#16
 2484 00b4 1846     	 mov r0,r3
 2485 00b6 FFF7FEFF 	 bl xTaskRemoveFromEventList
 2486 00ba 0346     	 mov r3,r0
 2487 00bc 002B     	 cmp r3,#0
 2488 00be 07D0     	 beq .L182
1364:../Dave/Generated/FREERTOS/queue.c ****                     {
1365:../Dave/Generated/FREERTOS/queue.c ****                         queueYIELD_IF_USING_PREEMPTION();
 2489              	 .loc 1 1365 0
 2490 00c0 3E4B     	 ldr r3,.L193
 2491 00c2 4FF08052 	 mov r2,#268435456
 2492 00c6 1A60     	 str r2,[r3]
 2493              	
 2494 00c8 BFF34F8F 	 dsb
 2495              	
 2496              	
 2497 00cc BFF36F8F 	 isb
 2498              	
 2499              	 .thumb
 2500              	.L182:
1366:../Dave/Generated/FREERTOS/queue.c ****                     }
1367:../Dave/Generated/FREERTOS/queue.c ****                     else
1368:../Dave/Generated/FREERTOS/queue.c ****                     {
1369:../Dave/Generated/FREERTOS/queue.c ****                         mtCOVERAGE_TEST_MARKER();
1370:../Dave/Generated/FREERTOS/queue.c ****                     }
1371:../Dave/Generated/FREERTOS/queue.c ****                 }
1372:../Dave/Generated/FREERTOS/queue.c ****                 else
1373:../Dave/Generated/FREERTOS/queue.c ****                 {
1374:../Dave/Generated/FREERTOS/queue.c ****                     mtCOVERAGE_TEST_MARKER();
1375:../Dave/Generated/FREERTOS/queue.c ****                 }
1376:../Dave/Generated/FREERTOS/queue.c **** 
1377:../Dave/Generated/FREERTOS/queue.c ****                 taskEXIT_CRITICAL();
 2501              	 .loc 1 1377 0
 2502 00d0 FFF7FEFF 	 bl vPortExitCritical
1378:../Dave/Generated/FREERTOS/queue.c ****                 return pdPASS;
 2503              	 .loc 1 1378 0
 2504 00d4 0123     	 movs r3,#1
 2505 00d6 6DE0     	 b .L192
 2506              	.L181:
1379:../Dave/Generated/FREERTOS/queue.c ****             }
1380:../Dave/Generated/FREERTOS/queue.c ****             else
1381:../Dave/Generated/FREERTOS/queue.c ****             {
1382:../Dave/Generated/FREERTOS/queue.c ****                 if( xTicksToWait == ( TickType_t ) 0 )
 2507              	 .loc 1 1382 0
 2508 00d8 7B68     	 ldr r3,[r7,#4]
 2509 00da 002B     	 cmp r3,#0
 2510 00dc 03D1     	 bne .L184
1383:../Dave/Generated/FREERTOS/queue.c ****                 {
1384:../Dave/Generated/FREERTOS/queue.c ****                     /* The queue was empty and no block time is specified (or
1385:../Dave/Generated/FREERTOS/queue.c ****                      * the block time has expired) so leave now. */
1386:../Dave/Generated/FREERTOS/queue.c ****                     taskEXIT_CRITICAL();
 2511              	 .loc 1 1386 0
 2512 00de FFF7FEFF 	 bl vPortExitCritical
1387:../Dave/Generated/FREERTOS/queue.c ****                     traceQUEUE_RECEIVE_FAILED( pxQueue );
1388:../Dave/Generated/FREERTOS/queue.c ****                     return errQUEUE_EMPTY;
 2513              	 .loc 1 1388 0
 2514 00e2 0023     	 movs r3,#0
 2515 00e4 66E0     	 b .L192
 2516              	.L184:
1389:../Dave/Generated/FREERTOS/queue.c ****                 }
1390:../Dave/Generated/FREERTOS/queue.c ****                 else if( xEntryTimeSet == pdFALSE )
 2517              	 .loc 1 1390 0
 2518 00e6 FB6A     	 ldr r3,[r7,#44]
 2519 00e8 002B     	 cmp r3,#0
 2520 00ea 06D1     	 bne .L185
1391:../Dave/Generated/FREERTOS/queue.c ****                 {
1392:../Dave/Generated/FREERTOS/queue.c ****                     /* The queue was empty and a block time was specified so
1393:../Dave/Generated/FREERTOS/queue.c ****                      * configure the timeout structure. */
1394:../Dave/Generated/FREERTOS/queue.c ****                     vTaskInternalSetTimeOutState( &xTimeOut );
 2521              	 .loc 1 1394 0
 2522 00ec 07F11003 	 add r3,r7,#16
 2523 00f0 1846     	 mov r0,r3
 2524 00f2 FFF7FEFF 	 bl vTaskInternalSetTimeOutState
1395:../Dave/Generated/FREERTOS/queue.c ****                     xEntryTimeSet = pdTRUE;
 2525              	 .loc 1 1395 0
 2526 00f6 0123     	 movs r3,#1
 2527 00f8 FB62     	 str r3,[r7,#44]
 2528              	.L185:
 2529              	.LBE211:
1396:../Dave/Generated/FREERTOS/queue.c ****                 }
1397:../Dave/Generated/FREERTOS/queue.c ****                 else
1398:../Dave/Generated/FREERTOS/queue.c ****                 {
1399:../Dave/Generated/FREERTOS/queue.c ****                     /* Entry time was already set. */
1400:../Dave/Generated/FREERTOS/queue.c ****                     mtCOVERAGE_TEST_MARKER();
1401:../Dave/Generated/FREERTOS/queue.c ****                 }
1402:../Dave/Generated/FREERTOS/queue.c ****             }
1403:../Dave/Generated/FREERTOS/queue.c ****         }
1404:../Dave/Generated/FREERTOS/queue.c ****         taskEXIT_CRITICAL();
 2530              	 .loc 1 1404 0
 2531 00fa FFF7FEFF 	 bl vPortExitCritical
1405:../Dave/Generated/FREERTOS/queue.c **** 
1406:../Dave/Generated/FREERTOS/queue.c ****         /* Interrupts and other tasks can send to and receive from the queue
1407:../Dave/Generated/FREERTOS/queue.c ****          * now the critical section has been exited. */
1408:../Dave/Generated/FREERTOS/queue.c **** 
1409:../Dave/Generated/FREERTOS/queue.c ****         vTaskSuspendAll();
 2532              	 .loc 1 1409 0
 2533 00fe FFF7FEFF 	 bl vTaskSuspendAll
1410:../Dave/Generated/FREERTOS/queue.c ****         prvLockQueue( pxQueue );
 2534              	 .loc 1 1410 0
 2535 0102 FFF7FEFF 	 bl vPortEnterCritical
 2536 0106 BB6A     	 ldr r3,[r7,#40]
 2537 0108 93F84430 	 ldrb r3,[r3,#68]
 2538 010c DBB2     	 uxtb r3,r3
 2539 010e 5BB2     	 sxtb r3,r3
 2540 0110 B3F1FF3F 	 cmp r3,#-1
 2541 0114 03D1     	 bne .L186
 2542              	 .loc 1 1410 0 is_stmt 0 discriminator 1
 2543 0116 BB6A     	 ldr r3,[r7,#40]
 2544 0118 0022     	 movs r2,#0
 2545 011a 83F84420 	 strb r2,[r3,#68]
 2546              	.L186:
 2547              	 .loc 1 1410 0 discriminator 3
 2548 011e BB6A     	 ldr r3,[r7,#40]
 2549 0120 93F84530 	 ldrb r3,[r3,#69]
 2550 0124 DBB2     	 uxtb r3,r3
 2551 0126 5BB2     	 sxtb r3,r3
 2552 0128 B3F1FF3F 	 cmp r3,#-1
 2553 012c 03D1     	 bne .L187
 2554              	 .loc 1 1410 0 discriminator 4
 2555 012e BB6A     	 ldr r3,[r7,#40]
 2556 0130 0022     	 movs r2,#0
 2557 0132 83F84520 	 strb r2,[r3,#69]
 2558              	.L187:
 2559              	 .loc 1 1410 0 discriminator 6
 2560 0136 FFF7FEFF 	 bl vPortExitCritical
1411:../Dave/Generated/FREERTOS/queue.c **** 
1412:../Dave/Generated/FREERTOS/queue.c ****         /* Update the timeout state to see if it has expired yet. */
1413:../Dave/Generated/FREERTOS/queue.c ****         if( xTaskCheckForTimeOut( &xTimeOut, &xTicksToWait ) == pdFALSE )
 2561              	 .loc 1 1413 0 is_stmt 1 discriminator 6
 2562 013a 07F11002 	 add r2,r7,#16
 2563 013e 3B1D     	 adds r3,r7,#4
 2564 0140 1046     	 mov r0,r2
 2565 0142 1946     	 mov r1,r3
 2566 0144 FFF7FEFF 	 bl xTaskCheckForTimeOut
 2567 0148 0346     	 mov r3,r0
 2568 014a 002B     	 cmp r3,#0
 2569 014c 24D1     	 bne .L188
1414:../Dave/Generated/FREERTOS/queue.c ****         {
1415:../Dave/Generated/FREERTOS/queue.c ****             /* The timeout has not expired.  If the queue is still empty place
1416:../Dave/Generated/FREERTOS/queue.c ****              * the task on the list of tasks waiting to receive from the queue. */
1417:../Dave/Generated/FREERTOS/queue.c ****             if( prvIsQueueEmpty( pxQueue ) != pdFALSE )
 2570              	 .loc 1 1417 0
 2571 014e B86A     	 ldr r0,[r7,#40]
 2572 0150 FFF7FEFF 	 bl prvIsQueueEmpty
 2573 0154 0346     	 mov r3,r0
 2574 0156 002B     	 cmp r3,#0
 2575 0158 18D0     	 beq .L189
1418:../Dave/Generated/FREERTOS/queue.c ****             {
1419:../Dave/Generated/FREERTOS/queue.c ****                 traceBLOCKING_ON_QUEUE_RECEIVE( pxQueue );
1420:../Dave/Generated/FREERTOS/queue.c ****                 vTaskPlaceOnEventList( &( pxQueue->xTasksWaitingToReceive ), xTicksToWait );
 2576              	 .loc 1 1420 0
 2577 015a BB6A     	 ldr r3,[r7,#40]
 2578 015c 03F12402 	 add r2,r3,#36
 2579 0160 7B68     	 ldr r3,[r7,#4]
 2580 0162 1046     	 mov r0,r2
 2581 0164 1946     	 mov r1,r3
 2582 0166 FFF7FEFF 	 bl vTaskPlaceOnEventList
1421:../Dave/Generated/FREERTOS/queue.c ****                 prvUnlockQueue( pxQueue );
 2583              	 .loc 1 1421 0
 2584 016a B86A     	 ldr r0,[r7,#40]
 2585 016c FFF7FEFF 	 bl prvUnlockQueue
1422:../Dave/Generated/FREERTOS/queue.c **** 
1423:../Dave/Generated/FREERTOS/queue.c ****                 if( xTaskResumeAll() == pdFALSE )
 2586              	 .loc 1 1423 0
 2587 0170 FFF7FEFF 	 bl xTaskResumeAll
 2588 0174 0346     	 mov r3,r0
 2589 0176 002B     	 cmp r3,#0
 2590 0178 1BD1     	 bne .L191
1424:../Dave/Generated/FREERTOS/queue.c ****                 {
1425:../Dave/Generated/FREERTOS/queue.c ****                     portYIELD_WITHIN_API();
 2591              	 .loc 1 1425 0
 2592 017a 104B     	 ldr r3,.L193
 2593 017c 4FF08052 	 mov r2,#268435456
 2594 0180 1A60     	 str r2,[r3]
 2595              	
 2596 0182 BFF34F8F 	 dsb
 2597              	
 2598              	
 2599 0186 BFF36F8F 	 isb
 2600              	
 2601              	 .thumb
 2602 018a 12E0     	 b .L191
 2603              	.L189:
1426:../Dave/Generated/FREERTOS/queue.c ****                 }
1427:../Dave/Generated/FREERTOS/queue.c ****                 else
1428:../Dave/Generated/FREERTOS/queue.c ****                 {
1429:../Dave/Generated/FREERTOS/queue.c ****                     mtCOVERAGE_TEST_MARKER();
1430:../Dave/Generated/FREERTOS/queue.c ****                 }
1431:../Dave/Generated/FREERTOS/queue.c ****             }
1432:../Dave/Generated/FREERTOS/queue.c ****             else
1433:../Dave/Generated/FREERTOS/queue.c ****             {
1434:../Dave/Generated/FREERTOS/queue.c ****                 /* The queue contains data again.  Loop back to try and read the
1435:../Dave/Generated/FREERTOS/queue.c ****                  * data. */
1436:../Dave/Generated/FREERTOS/queue.c ****                 prvUnlockQueue( pxQueue );
 2604              	 .loc 1 1436 0
 2605 018c B86A     	 ldr r0,[r7,#40]
 2606 018e FFF7FEFF 	 bl prvUnlockQueue
1437:../Dave/Generated/FREERTOS/queue.c ****                 ( void ) xTaskResumeAll();
 2607              	 .loc 1 1437 0
 2608 0192 FFF7FEFF 	 bl xTaskResumeAll
 2609 0196 77E7     	 b .L179
 2610              	.L188:
1438:../Dave/Generated/FREERTOS/queue.c ****             }
1439:../Dave/Generated/FREERTOS/queue.c ****         }
1440:../Dave/Generated/FREERTOS/queue.c ****         else
1441:../Dave/Generated/FREERTOS/queue.c ****         {
1442:../Dave/Generated/FREERTOS/queue.c ****             /* Timed out.  If there is no data in the queue exit, otherwise loop
1443:../Dave/Generated/FREERTOS/queue.c ****              * back and attempt to read the data. */
1444:../Dave/Generated/FREERTOS/queue.c ****             prvUnlockQueue( pxQueue );
 2611              	 .loc 1 1444 0
 2612 0198 B86A     	 ldr r0,[r7,#40]
 2613 019a FFF7FEFF 	 bl prvUnlockQueue
1445:../Dave/Generated/FREERTOS/queue.c ****             ( void ) xTaskResumeAll();
 2614              	 .loc 1 1445 0
 2615 019e FFF7FEFF 	 bl xTaskResumeAll
1446:../Dave/Generated/FREERTOS/queue.c **** 
1447:../Dave/Generated/FREERTOS/queue.c ****             if( prvIsQueueEmpty( pxQueue ) != pdFALSE )
 2616              	 .loc 1 1447 0
 2617 01a2 B86A     	 ldr r0,[r7,#40]
 2618 01a4 FFF7FEFF 	 bl prvIsQueueEmpty
 2619 01a8 0346     	 mov r3,r0
 2620 01aa 002B     	 cmp r3,#0
 2621 01ac 01D0     	 beq .L191
1448:../Dave/Generated/FREERTOS/queue.c ****             {
1449:../Dave/Generated/FREERTOS/queue.c ****                 traceQUEUE_RECEIVE_FAILED( pxQueue );
1450:../Dave/Generated/FREERTOS/queue.c ****                 return errQUEUE_EMPTY;
 2622              	 .loc 1 1450 0
 2623 01ae 0023     	 movs r3,#0
 2624 01b0 00E0     	 b .L192
 2625              	.L191:
1451:../Dave/Generated/FREERTOS/queue.c ****             }
1452:../Dave/Generated/FREERTOS/queue.c ****             else
1453:../Dave/Generated/FREERTOS/queue.c ****             {
1454:../Dave/Generated/FREERTOS/queue.c ****                 mtCOVERAGE_TEST_MARKER();
1455:../Dave/Generated/FREERTOS/queue.c ****             }
1456:../Dave/Generated/FREERTOS/queue.c ****         }
1457:../Dave/Generated/FREERTOS/queue.c ****     } /*lint -restore */
 2626              	 .loc 1 1457 0 discriminator 5
 2627 01b2 69E7     	 b .L179
 2628              	.L192:
1458:../Dave/Generated/FREERTOS/queue.c **** }
 2629              	 .loc 1 1458 0 discriminator 6
 2630 01b4 1846     	 mov r0,r3
 2631 01b6 3037     	 adds r7,r7,#48
 2632              	.LCFI84:
 2633              	 .cfi_def_cfa_offset 8
 2634 01b8 BD46     	 mov sp,r7
 2635              	.LCFI85:
 2636              	 .cfi_def_cfa_register 13
 2637              	 
 2638 01ba 80BD     	 pop {r7,pc}
 2639              	.L194:
 2640              	 .align 2
 2641              	.L193:
 2642 01bc 04ED00E0 	 .word -536810236
 2643              	 .cfi_endproc
 2644              	.LFE153:
 2646              	 .section .text.xQueueSemaphoreTake,"ax",%progbits
 2647              	 .align 2
 2648              	 .global xQueueSemaphoreTake
 2649              	 .thumb
 2650              	 .thumb_func
 2652              	xQueueSemaphoreTake:
 2653              	.LFB154:
1459:../Dave/Generated/FREERTOS/queue.c **** /*-----------------------------------------------------------*/
1460:../Dave/Generated/FREERTOS/queue.c **** 
1461:../Dave/Generated/FREERTOS/queue.c **** BaseType_t xQueueSemaphoreTake( QueueHandle_t xQueue,
1462:../Dave/Generated/FREERTOS/queue.c ****                                 TickType_t xTicksToWait )
1463:../Dave/Generated/FREERTOS/queue.c **** {
 2654              	 .loc 1 1463 0
 2655              	 .cfi_startproc
 2656              	 
 2657              	 
 2658 0000 80B5     	 push {r7,lr}
 2659              	.LCFI86:
 2660              	 .cfi_def_cfa_offset 8
 2661              	 .cfi_offset 7,-8
 2662              	 .cfi_offset 14,-4
 2663 0002 8EB0     	 sub sp,sp,#56
 2664              	.LCFI87:
 2665              	 .cfi_def_cfa_offset 64
 2666 0004 00AF     	 add r7,sp,#0
 2667              	.LCFI88:
 2668              	 .cfi_def_cfa_register 7
 2669 0006 7860     	 str r0,[r7,#4]
 2670 0008 3960     	 str r1,[r7]
1464:../Dave/Generated/FREERTOS/queue.c ****     BaseType_t xEntryTimeSet = pdFALSE;
 2671              	 .loc 1 1464 0
 2672 000a 0023     	 movs r3,#0
 2673 000c 7B63     	 str r3,[r7,#52]
1465:../Dave/Generated/FREERTOS/queue.c ****     TimeOut_t xTimeOut;
1466:../Dave/Generated/FREERTOS/queue.c ****     Queue_t * const pxQueue = xQueue;
 2674              	 .loc 1 1466 0
 2675 000e 7B68     	 ldr r3,[r7,#4]
 2676 0010 FB62     	 str r3,[r7,#44]
1467:../Dave/Generated/FREERTOS/queue.c **** 
1468:../Dave/Generated/FREERTOS/queue.c ****     #if ( configUSE_MUTEXES == 1 )
1469:../Dave/Generated/FREERTOS/queue.c ****         BaseType_t xInheritanceOccurred = pdFALSE;
 2677              	 .loc 1 1469 0
 2678 0012 0023     	 movs r3,#0
 2679 0014 3B63     	 str r3,[r7,#48]
1470:../Dave/Generated/FREERTOS/queue.c ****     #endif
1471:../Dave/Generated/FREERTOS/queue.c **** 
1472:../Dave/Generated/FREERTOS/queue.c ****     /* Check the queue pointer is not NULL. */
1473:../Dave/Generated/FREERTOS/queue.c ****     configASSERT( ( pxQueue ) );
 2680              	 .loc 1 1473 0
 2681 0016 FB6A     	 ldr r3,[r7,#44]
 2682 0018 002B     	 cmp r3,#0
 2683 001a 09D1     	 bne .L196
 2684              	.LBB212:
 2685              	.LBB213:
 197:C:/Infineon/Tools/DAVE IDE/4.5.0.202105191637/eclipse/workspace/xmc4800-CE/Dave/Generated/FREERTOS/portable/GCC\portmacro.h ****         (
 2686              	 .loc 2 197 0 discriminator 1
 2687              	
 2688 001c 4FF0FC03 	 mov r3,#252
 2689 0020 83F31188 	 msr basepri,r3
 2690 0024 BFF36F8F 	 isb 
 2691 0028 BFF34F8F 	 dsb 
 2692              	
 2693              	
 2694              	 .thumb
 2695 002c 3B62     	 str r3,[r7,#32]
 2696              	.L197:
 2697              	.LBE213:
 2698              	.LBE212:
 2699              	 .loc 1 1473 0 discriminator 1
 2700 002e FEE7     	 b .L197
 2701              	.L196:
1474:../Dave/Generated/FREERTOS/queue.c **** 
1475:../Dave/Generated/FREERTOS/queue.c ****     /* Check this really is a semaphore, in which case the item size will be
1476:../Dave/Generated/FREERTOS/queue.c ****      * 0. */
1477:../Dave/Generated/FREERTOS/queue.c ****     configASSERT( pxQueue->uxItemSize == 0 );
 2702              	 .loc 1 1477 0
 2703 0030 FB6A     	 ldr r3,[r7,#44]
 2704 0032 1B6C     	 ldr r3,[r3,#64]
 2705 0034 002B     	 cmp r3,#0
 2706 0036 09D0     	 beq .L198
 2707              	.LBB214:
 2708              	.LBB215:
 197:C:/Infineon/Tools/DAVE IDE/4.5.0.202105191637/eclipse/workspace/xmc4800-CE/Dave/Generated/FREERTOS/portable/GCC\portmacro.h ****         (
 2709              	 .loc 2 197 0 discriminator 1
 2710              	
 2711 0038 4FF0FC03 	 mov r3,#252
 2712 003c 83F31188 	 msr basepri,r3
 2713 0040 BFF36F8F 	 isb 
 2714 0044 BFF34F8F 	 dsb 
 2715              	
 2716              	
 2717              	 .thumb
 2718 0048 FB61     	 str r3,[r7,#28]
 2719              	.L199:
 2720              	.LBE215:
 2721              	.LBE214:
 2722              	 .loc 1 1477 0 discriminator 2
 2723 004a FEE7     	 b .L199
 2724              	.L198:
1478:../Dave/Generated/FREERTOS/queue.c **** 
1479:../Dave/Generated/FREERTOS/queue.c ****     /* Cannot block if the scheduler is suspended. */
1480:../Dave/Generated/FREERTOS/queue.c ****     #if ( ( INCLUDE_xTaskGetSchedulerState == 1 ) || ( configUSE_TIMERS == 1 ) )
1481:../Dave/Generated/FREERTOS/queue.c ****         {
1482:../Dave/Generated/FREERTOS/queue.c ****             configASSERT( !( ( xTaskGetSchedulerState() == taskSCHEDULER_SUSPENDED ) && ( xTicksToW
 2725              	 .loc 1 1482 0
 2726 004c FFF7FEFF 	 bl xTaskGetSchedulerState
 2727 0050 0346     	 mov r3,r0
 2728 0052 002B     	 cmp r3,#0
 2729 0054 02D1     	 bne .L200
 2730              	 .loc 1 1482 0 is_stmt 0 discriminator 2
 2731 0056 3B68     	 ldr r3,[r7]
 2732 0058 002B     	 cmp r3,#0
 2733 005a 01D1     	 bne .L201
 2734              	.L200:
 2735              	 .loc 1 1482 0 discriminator 3
 2736 005c 0123     	 movs r3,#1
 2737 005e 00E0     	 b .L202
 2738              	.L201:
 2739              	 .loc 1 1482 0 discriminator 4
 2740 0060 0023     	 movs r3,#0
 2741              	.L202:
 2742              	 .loc 1 1482 0 discriminator 6
 2743 0062 002B     	 cmp r3,#0
 2744 0064 09D1     	 bne .L203
 2745              	.LBB216:
 2746              	.LBB217:
 197:C:/Infineon/Tools/DAVE IDE/4.5.0.202105191637/eclipse/workspace/xmc4800-CE/Dave/Generated/FREERTOS/portable/GCC\portmacro.h ****         (
 2747              	 .loc 2 197 0 is_stmt 1 discriminator 7
 2748              	
 2749 0066 4FF0FC03 	 mov r3,#252
 2750 006a 83F31188 	 msr basepri,r3
 2751 006e BFF36F8F 	 isb 
 2752 0072 BFF34F8F 	 dsb 
 2753              	
 2754              	
 2755              	 .thumb
 2756 0076 BB61     	 str r3,[r7,#24]
 2757              	.L204:
 2758              	.LBE217:
 2759              	.LBE216:
 2760              	 .loc 1 1482 0 discriminator 3
 2761 0078 FEE7     	 b .L204
 2762              	.L203:
1483:../Dave/Generated/FREERTOS/queue.c ****         }
1484:../Dave/Generated/FREERTOS/queue.c ****     #endif
1485:../Dave/Generated/FREERTOS/queue.c **** 
1486:../Dave/Generated/FREERTOS/queue.c ****     /*lint -save -e904 This function relaxes the coding standard somewhat to allow return
1487:../Dave/Generated/FREERTOS/queue.c ****      * statements within the function itself.  This is done in the interest
1488:../Dave/Generated/FREERTOS/queue.c ****      * of execution time efficiency. */
1489:../Dave/Generated/FREERTOS/queue.c ****     for( ; ; )
1490:../Dave/Generated/FREERTOS/queue.c ****     {
1491:../Dave/Generated/FREERTOS/queue.c ****         taskENTER_CRITICAL();
 2763              	 .loc 1 1491 0
 2764 007a FFF7FEFF 	 bl vPortEnterCritical
 2765              	.LBB218:
1492:../Dave/Generated/FREERTOS/queue.c ****         {
1493:../Dave/Generated/FREERTOS/queue.c ****             /* Semaphores are queues with an item size of 0, and where the
1494:../Dave/Generated/FREERTOS/queue.c ****              * number of messages in the queue is the semaphore's count value. */
1495:../Dave/Generated/FREERTOS/queue.c ****             const UBaseType_t uxSemaphoreCount = pxQueue->uxMessagesWaiting;
 2766              	 .loc 1 1495 0
 2767 007e FB6A     	 ldr r3,[r7,#44]
 2768 0080 9B6B     	 ldr r3,[r3,#56]
 2769 0082 BB62     	 str r3,[r7,#40]
1496:../Dave/Generated/FREERTOS/queue.c **** 
1497:../Dave/Generated/FREERTOS/queue.c ****             /* Is there data in the queue now?  To be running the calling task
1498:../Dave/Generated/FREERTOS/queue.c ****              * must be the highest priority task wanting to access the queue. */
1499:../Dave/Generated/FREERTOS/queue.c ****             if( uxSemaphoreCount > ( UBaseType_t ) 0 )
 2770              	 .loc 1 1499 0
 2771 0084 BB6A     	 ldr r3,[r7,#40]
 2772 0086 002B     	 cmp r3,#0
 2773 0088 24D0     	 beq .L205
1500:../Dave/Generated/FREERTOS/queue.c ****             {
1501:../Dave/Generated/FREERTOS/queue.c ****                 traceQUEUE_RECEIVE( pxQueue );
1502:../Dave/Generated/FREERTOS/queue.c **** 
1503:../Dave/Generated/FREERTOS/queue.c ****                 /* Semaphores are queues with a data size of zero and where the
1504:../Dave/Generated/FREERTOS/queue.c ****                  * messages waiting is the semaphore's count.  Reduce the count. */
1505:../Dave/Generated/FREERTOS/queue.c ****                 pxQueue->uxMessagesWaiting = uxSemaphoreCount - ( UBaseType_t ) 1;
 2774              	 .loc 1 1505 0
 2775 008a BB6A     	 ldr r3,[r7,#40]
 2776 008c 5A1E     	 subs r2,r3,#1
 2777 008e FB6A     	 ldr r3,[r7,#44]
 2778 0090 9A63     	 str r2,[r3,#56]
1506:../Dave/Generated/FREERTOS/queue.c **** 
1507:../Dave/Generated/FREERTOS/queue.c ****                 #if ( configUSE_MUTEXES == 1 )
1508:../Dave/Generated/FREERTOS/queue.c ****                     {
1509:../Dave/Generated/FREERTOS/queue.c ****                         if( pxQueue->uxQueueType == queueQUEUE_IS_MUTEX )
 2779              	 .loc 1 1509 0
 2780 0092 FB6A     	 ldr r3,[r7,#44]
 2781 0094 1B68     	 ldr r3,[r3]
 2782 0096 002B     	 cmp r3,#0
 2783 0098 04D1     	 bne .L206
1510:../Dave/Generated/FREERTOS/queue.c ****                         {
1511:../Dave/Generated/FREERTOS/queue.c ****                             /* Record the information required to implement
1512:../Dave/Generated/FREERTOS/queue.c ****                              * priority inheritance should it become necessary. */
1513:../Dave/Generated/FREERTOS/queue.c ****                             pxQueue->u.xSemaphore.xMutexHolder = pvTaskIncrementMutexHeldCount();
 2784              	 .loc 1 1513 0
 2785 009a FFF7FEFF 	 bl pvTaskIncrementMutexHeldCount
 2786 009e 0246     	 mov r2,r0
 2787 00a0 FB6A     	 ldr r3,[r7,#44]
 2788 00a2 9A60     	 str r2,[r3,#8]
 2789              	.L206:
1514:../Dave/Generated/FREERTOS/queue.c ****                         }
1515:../Dave/Generated/FREERTOS/queue.c ****                         else
1516:../Dave/Generated/FREERTOS/queue.c ****                         {
1517:../Dave/Generated/FREERTOS/queue.c ****                             mtCOVERAGE_TEST_MARKER();
1518:../Dave/Generated/FREERTOS/queue.c ****                         }
1519:../Dave/Generated/FREERTOS/queue.c ****                     }
1520:../Dave/Generated/FREERTOS/queue.c ****                 #endif /* configUSE_MUTEXES */
1521:../Dave/Generated/FREERTOS/queue.c **** 
1522:../Dave/Generated/FREERTOS/queue.c ****                 /* Check to see if other tasks are blocked waiting to give the
1523:../Dave/Generated/FREERTOS/queue.c ****                  * semaphore, and if so, unblock the highest priority such task. */
1524:../Dave/Generated/FREERTOS/queue.c ****                 if( listLIST_IS_EMPTY( &( pxQueue->xTasksWaitingToSend ) ) == pdFALSE )
 2790              	 .loc 1 1524 0
 2791 00a4 FB6A     	 ldr r3,[r7,#44]
 2792 00a6 1B69     	 ldr r3,[r3,#16]
 2793 00a8 002B     	 cmp r3,#0
 2794 00aa 0FD0     	 beq .L207
1525:../Dave/Generated/FREERTOS/queue.c ****                 {
1526:../Dave/Generated/FREERTOS/queue.c ****                     if( xTaskRemoveFromEventList( &( pxQueue->xTasksWaitingToSend ) ) != pdFALSE )
 2795              	 .loc 1 1526 0
 2796 00ac FB6A     	 ldr r3,[r7,#44]
 2797 00ae 1033     	 adds r3,r3,#16
 2798 00b0 1846     	 mov r0,r3
 2799 00b2 FFF7FEFF 	 bl xTaskRemoveFromEventList
 2800 00b6 0346     	 mov r3,r0
 2801 00b8 002B     	 cmp r3,#0
 2802 00ba 07D0     	 beq .L207
1527:../Dave/Generated/FREERTOS/queue.c ****                     {
1528:../Dave/Generated/FREERTOS/queue.c ****                         queueYIELD_IF_USING_PREEMPTION();
 2803              	 .loc 1 1528 0
 2804 00bc 544B     	 ldr r3,.L222
 2805 00be 4FF08052 	 mov r2,#268435456
 2806 00c2 1A60     	 str r2,[r3]
 2807              	
 2808 00c4 BFF34F8F 	 dsb
 2809              	
 2810              	
 2811 00c8 BFF36F8F 	 isb
 2812              	
 2813              	 .thumb
 2814              	.L207:
1529:../Dave/Generated/FREERTOS/queue.c ****                     }
1530:../Dave/Generated/FREERTOS/queue.c ****                     else
1531:../Dave/Generated/FREERTOS/queue.c ****                     {
1532:../Dave/Generated/FREERTOS/queue.c ****                         mtCOVERAGE_TEST_MARKER();
1533:../Dave/Generated/FREERTOS/queue.c ****                     }
1534:../Dave/Generated/FREERTOS/queue.c ****                 }
1535:../Dave/Generated/FREERTOS/queue.c ****                 else
1536:../Dave/Generated/FREERTOS/queue.c ****                 {
1537:../Dave/Generated/FREERTOS/queue.c ****                     mtCOVERAGE_TEST_MARKER();
1538:../Dave/Generated/FREERTOS/queue.c ****                 }
1539:../Dave/Generated/FREERTOS/queue.c **** 
1540:../Dave/Generated/FREERTOS/queue.c ****                 taskEXIT_CRITICAL();
 2815              	 .loc 1 1540 0
 2816 00cc FFF7FEFF 	 bl vPortExitCritical
1541:../Dave/Generated/FREERTOS/queue.c ****                 return pdPASS;
 2817              	 .loc 1 1541 0
 2818 00d0 0123     	 movs r3,#1
 2819 00d2 99E0     	 b .L221
 2820              	.L205:
1542:../Dave/Generated/FREERTOS/queue.c ****             }
1543:../Dave/Generated/FREERTOS/queue.c ****             else
1544:../Dave/Generated/FREERTOS/queue.c ****             {
1545:../Dave/Generated/FREERTOS/queue.c ****                 if( xTicksToWait == ( TickType_t ) 0 )
 2821              	 .loc 1 1545 0
 2822 00d4 3B68     	 ldr r3,[r7]
 2823 00d6 002B     	 cmp r3,#0
 2824 00d8 10D1     	 bne .L209
1546:../Dave/Generated/FREERTOS/queue.c ****                 {
1547:../Dave/Generated/FREERTOS/queue.c ****                     /* For inheritance to have occurred there must have been an
1548:../Dave/Generated/FREERTOS/queue.c ****                      * initial timeout, and an adjusted timeout cannot become 0, as
1549:../Dave/Generated/FREERTOS/queue.c ****                      * if it were 0 the function would have exited. */
1550:../Dave/Generated/FREERTOS/queue.c ****                     #if ( configUSE_MUTEXES == 1 )
1551:../Dave/Generated/FREERTOS/queue.c ****                         {
1552:../Dave/Generated/FREERTOS/queue.c ****                             configASSERT( xInheritanceOccurred == pdFALSE );
 2825              	 .loc 1 1552 0
 2826 00da 3B6B     	 ldr r3,[r7,#48]
 2827 00dc 002B     	 cmp r3,#0
 2828 00de 09D0     	 beq .L210
 2829              	.LBB219:
 2830              	.LBB220:
 197:C:/Infineon/Tools/DAVE IDE/4.5.0.202105191637/eclipse/workspace/xmc4800-CE/Dave/Generated/FREERTOS/portable/GCC\portmacro.h ****         (
 2831              	 .loc 2 197 0 discriminator 1
 2832              	
 2833 00e0 4FF0FC03 	 mov r3,#252
 2834 00e4 83F31188 	 msr basepri,r3
 2835 00e8 BFF36F8F 	 isb 
 2836 00ec BFF34F8F 	 dsb 
 2837              	
 2838              	
 2839              	 .thumb
 2840 00f0 7B61     	 str r3,[r7,#20]
 2841              	.L211:
 2842              	.LBE220:
 2843              	.LBE219:
 2844              	 .loc 1 1552 0 discriminator 4
 2845 00f2 FEE7     	 b .L211
 2846              	.L210:
1553:../Dave/Generated/FREERTOS/queue.c ****                         }
1554:../Dave/Generated/FREERTOS/queue.c ****                     #endif /* configUSE_MUTEXES */
1555:../Dave/Generated/FREERTOS/queue.c **** 
1556:../Dave/Generated/FREERTOS/queue.c ****                     /* The semaphore count was 0 and no block time is specified
1557:../Dave/Generated/FREERTOS/queue.c ****                      * (or the block time has expired) so exit now. */
1558:../Dave/Generated/FREERTOS/queue.c ****                     taskEXIT_CRITICAL();
 2847              	 .loc 1 1558 0
 2848 00f4 FFF7FEFF 	 bl vPortExitCritical
1559:../Dave/Generated/FREERTOS/queue.c ****                     traceQUEUE_RECEIVE_FAILED( pxQueue );
1560:../Dave/Generated/FREERTOS/queue.c ****                     return errQUEUE_EMPTY;
 2849              	 .loc 1 1560 0
 2850 00f8 0023     	 movs r3,#0
 2851 00fa 85E0     	 b .L221
 2852              	.L209:
1561:../Dave/Generated/FREERTOS/queue.c ****                 }
1562:../Dave/Generated/FREERTOS/queue.c ****                 else if( xEntryTimeSet == pdFALSE )
 2853              	 .loc 1 1562 0
 2854 00fc 7B6B     	 ldr r3,[r7,#52]
 2855 00fe 002B     	 cmp r3,#0
 2856 0100 06D1     	 bne .L212
1563:../Dave/Generated/FREERTOS/queue.c ****                 {
1564:../Dave/Generated/FREERTOS/queue.c ****                     /* The semaphore count was 0 and a block time was specified
1565:../Dave/Generated/FREERTOS/queue.c ****                      * so configure the timeout structure ready to block. */
1566:../Dave/Generated/FREERTOS/queue.c ****                     vTaskInternalSetTimeOutState( &xTimeOut );
 2857              	 .loc 1 1566 0
 2858 0102 07F10C03 	 add r3,r7,#12
 2859 0106 1846     	 mov r0,r3
 2860 0108 FFF7FEFF 	 bl vTaskInternalSetTimeOutState
1567:../Dave/Generated/FREERTOS/queue.c ****                     xEntryTimeSet = pdTRUE;
 2861              	 .loc 1 1567 0
 2862 010c 0123     	 movs r3,#1
 2863 010e 7B63     	 str r3,[r7,#52]
 2864              	.L212:
 2865              	.LBE218:
1568:../Dave/Generated/FREERTOS/queue.c ****                 }
1569:../Dave/Generated/FREERTOS/queue.c ****                 else
1570:../Dave/Generated/FREERTOS/queue.c ****                 {
1571:../Dave/Generated/FREERTOS/queue.c ****                     /* Entry time was already set. */
1572:../Dave/Generated/FREERTOS/queue.c ****                     mtCOVERAGE_TEST_MARKER();
1573:../Dave/Generated/FREERTOS/queue.c ****                 }
1574:../Dave/Generated/FREERTOS/queue.c ****             }
1575:../Dave/Generated/FREERTOS/queue.c ****         }
1576:../Dave/Generated/FREERTOS/queue.c ****         taskEXIT_CRITICAL();
 2866              	 .loc 1 1576 0
 2867 0110 FFF7FEFF 	 bl vPortExitCritical
1577:../Dave/Generated/FREERTOS/queue.c **** 
1578:../Dave/Generated/FREERTOS/queue.c ****         /* Interrupts and other tasks can give to and take from the semaphore
1579:../Dave/Generated/FREERTOS/queue.c ****          * now the critical section has been exited. */
1580:../Dave/Generated/FREERTOS/queue.c **** 
1581:../Dave/Generated/FREERTOS/queue.c ****         vTaskSuspendAll();
 2868              	 .loc 1 1581 0
 2869 0114 FFF7FEFF 	 bl vTaskSuspendAll
1582:../Dave/Generated/FREERTOS/queue.c ****         prvLockQueue( pxQueue );
 2870              	 .loc 1 1582 0
 2871 0118 FFF7FEFF 	 bl vPortEnterCritical
 2872 011c FB6A     	 ldr r3,[r7,#44]
 2873 011e 93F84430 	 ldrb r3,[r3,#68]
 2874 0122 DBB2     	 uxtb r3,r3
 2875 0124 5BB2     	 sxtb r3,r3
 2876 0126 B3F1FF3F 	 cmp r3,#-1
 2877 012a 03D1     	 bne .L213
 2878              	 .loc 1 1582 0 is_stmt 0 discriminator 1
 2879 012c FB6A     	 ldr r3,[r7,#44]
 2880 012e 0022     	 movs r2,#0
 2881 0130 83F84420 	 strb r2,[r3,#68]
 2882              	.L213:
 2883              	 .loc 1 1582 0 discriminator 3
 2884 0134 FB6A     	 ldr r3,[r7,#44]
 2885 0136 93F84530 	 ldrb r3,[r3,#69]
 2886 013a DBB2     	 uxtb r3,r3
 2887 013c 5BB2     	 sxtb r3,r3
 2888 013e B3F1FF3F 	 cmp r3,#-1
 2889 0142 03D1     	 bne .L214
 2890              	 .loc 1 1582 0 discriminator 4
 2891 0144 FB6A     	 ldr r3,[r7,#44]
 2892 0146 0022     	 movs r2,#0
 2893 0148 83F84520 	 strb r2,[r3,#69]
 2894              	.L214:
 2895              	 .loc 1 1582 0 discriminator 6
 2896 014c FFF7FEFF 	 bl vPortExitCritical
1583:../Dave/Generated/FREERTOS/queue.c **** 
1584:../Dave/Generated/FREERTOS/queue.c ****         /* Update the timeout state to see if it has expired yet. */
1585:../Dave/Generated/FREERTOS/queue.c ****         if( xTaskCheckForTimeOut( &xTimeOut, &xTicksToWait ) == pdFALSE )
 2897              	 .loc 1 1585 0 is_stmt 1 discriminator 6
 2898 0150 07F10C02 	 add r2,r7,#12
 2899 0154 3B46     	 mov r3,r7
 2900 0156 1046     	 mov r0,r2
 2901 0158 1946     	 mov r1,r3
 2902 015a FFF7FEFF 	 bl xTaskCheckForTimeOut
 2903 015e 0346     	 mov r3,r0
 2904 0160 002B     	 cmp r3,#0
 2905 0162 32D1     	 bne .L215
1586:../Dave/Generated/FREERTOS/queue.c ****         {
1587:../Dave/Generated/FREERTOS/queue.c ****             /* A block time is specified and not expired.  If the semaphore
1588:../Dave/Generated/FREERTOS/queue.c ****              * count is 0 then enter the Blocked state to wait for a semaphore to
1589:../Dave/Generated/FREERTOS/queue.c ****              * become available.  As semaphores are implemented with queues the
1590:../Dave/Generated/FREERTOS/queue.c ****              * queue being empty is equivalent to the semaphore count being 0. */
1591:../Dave/Generated/FREERTOS/queue.c ****             if( prvIsQueueEmpty( pxQueue ) != pdFALSE )
 2906              	 .loc 1 1591 0
 2907 0164 F86A     	 ldr r0,[r7,#44]
 2908 0166 FFF7FEFF 	 bl prvIsQueueEmpty
 2909 016a 0346     	 mov r3,r0
 2910 016c 002B     	 cmp r3,#0
 2911 016e 26D0     	 beq .L216
1592:../Dave/Generated/FREERTOS/queue.c ****             {
1593:../Dave/Generated/FREERTOS/queue.c ****                 traceBLOCKING_ON_QUEUE_RECEIVE( pxQueue );
1594:../Dave/Generated/FREERTOS/queue.c **** 
1595:../Dave/Generated/FREERTOS/queue.c ****                 #if ( configUSE_MUTEXES == 1 )
1596:../Dave/Generated/FREERTOS/queue.c ****                     {
1597:../Dave/Generated/FREERTOS/queue.c ****                         if( pxQueue->uxQueueType == queueQUEUE_IS_MUTEX )
 2912              	 .loc 1 1597 0
 2913 0170 FB6A     	 ldr r3,[r7,#44]
 2914 0172 1B68     	 ldr r3,[r3]
 2915 0174 002B     	 cmp r3,#0
 2916 0176 09D1     	 bne .L217
1598:../Dave/Generated/FREERTOS/queue.c ****                         {
1599:../Dave/Generated/FREERTOS/queue.c ****                             taskENTER_CRITICAL();
 2917              	 .loc 1 1599 0
 2918 0178 FFF7FEFF 	 bl vPortEnterCritical
1600:../Dave/Generated/FREERTOS/queue.c ****                             {
1601:../Dave/Generated/FREERTOS/queue.c ****                                 xInheritanceOccurred = xTaskPriorityInherit( pxQueue->u.xSemaphore.
 2919              	 .loc 1 1601 0
 2920 017c FB6A     	 ldr r3,[r7,#44]
 2921 017e 9B68     	 ldr r3,[r3,#8]
 2922 0180 1846     	 mov r0,r3
 2923 0182 FFF7FEFF 	 bl xTaskPriorityInherit
 2924 0186 3863     	 str r0,[r7,#48]
1602:../Dave/Generated/FREERTOS/queue.c ****                             }
1603:../Dave/Generated/FREERTOS/queue.c ****                             taskEXIT_CRITICAL();
 2925              	 .loc 1 1603 0
 2926 0188 FFF7FEFF 	 bl vPortExitCritical
 2927              	.L217:
1604:../Dave/Generated/FREERTOS/queue.c ****                         }
1605:../Dave/Generated/FREERTOS/queue.c ****                         else
1606:../Dave/Generated/FREERTOS/queue.c ****                         {
1607:../Dave/Generated/FREERTOS/queue.c ****                             mtCOVERAGE_TEST_MARKER();
1608:../Dave/Generated/FREERTOS/queue.c ****                         }
1609:../Dave/Generated/FREERTOS/queue.c ****                     }
1610:../Dave/Generated/FREERTOS/queue.c ****                 #endif /* if ( configUSE_MUTEXES == 1 ) */
1611:../Dave/Generated/FREERTOS/queue.c **** 
1612:../Dave/Generated/FREERTOS/queue.c ****                 vTaskPlaceOnEventList( &( pxQueue->xTasksWaitingToReceive ), xTicksToWait );
 2928              	 .loc 1 1612 0
 2929 018c FB6A     	 ldr r3,[r7,#44]
 2930 018e 03F12402 	 add r2,r3,#36
 2931 0192 3B68     	 ldr r3,[r7]
 2932 0194 1046     	 mov r0,r2
 2933 0196 1946     	 mov r1,r3
 2934 0198 FFF7FEFF 	 bl vTaskPlaceOnEventList
1613:../Dave/Generated/FREERTOS/queue.c ****                 prvUnlockQueue( pxQueue );
 2935              	 .loc 1 1613 0
 2936 019c F86A     	 ldr r0,[r7,#44]
 2937 019e FFF7FEFF 	 bl prvUnlockQueue
1614:../Dave/Generated/FREERTOS/queue.c **** 
1615:../Dave/Generated/FREERTOS/queue.c ****                 if( xTaskResumeAll() == pdFALSE )
 2938              	 .loc 1 1615 0
 2939 01a2 FFF7FEFF 	 bl xTaskResumeAll
 2940 01a6 0346     	 mov r3,r0
 2941 01a8 002B     	 cmp r3,#0
 2942 01aa 2CD1     	 bne .L219
1616:../Dave/Generated/FREERTOS/queue.c ****                 {
1617:../Dave/Generated/FREERTOS/queue.c ****                     portYIELD_WITHIN_API();
 2943              	 .loc 1 1617 0
 2944 01ac 184B     	 ldr r3,.L222
 2945 01ae 4FF08052 	 mov r2,#268435456
 2946 01b2 1A60     	 str r2,[r3]
 2947              	
 2948 01b4 BFF34F8F 	 dsb
 2949              	
 2950              	
 2951 01b8 BFF36F8F 	 isb
 2952              	
 2953              	 .thumb
 2954 01bc 23E0     	 b .L219
 2955              	.L216:
1618:../Dave/Generated/FREERTOS/queue.c ****                 }
1619:../Dave/Generated/FREERTOS/queue.c ****                 else
1620:../Dave/Generated/FREERTOS/queue.c ****                 {
1621:../Dave/Generated/FREERTOS/queue.c ****                     mtCOVERAGE_TEST_MARKER();
1622:../Dave/Generated/FREERTOS/queue.c ****                 }
1623:../Dave/Generated/FREERTOS/queue.c ****             }
1624:../Dave/Generated/FREERTOS/queue.c ****             else
1625:../Dave/Generated/FREERTOS/queue.c ****             {
1626:../Dave/Generated/FREERTOS/queue.c ****                 /* There was no timeout and the semaphore count was not 0, so
1627:../Dave/Generated/FREERTOS/queue.c ****                  * attempt to take the semaphore again. */
1628:../Dave/Generated/FREERTOS/queue.c ****                 prvUnlockQueue( pxQueue );
 2956              	 .loc 1 1628 0
 2957 01be F86A     	 ldr r0,[r7,#44]
 2958 01c0 FFF7FEFF 	 bl prvUnlockQueue
1629:../Dave/Generated/FREERTOS/queue.c ****                 ( void ) xTaskResumeAll();
 2959              	 .loc 1 1629 0
 2960 01c4 FFF7FEFF 	 bl xTaskResumeAll
 2961 01c8 57E7     	 b .L203
 2962              	.L215:
1630:../Dave/Generated/FREERTOS/queue.c ****             }
1631:../Dave/Generated/FREERTOS/queue.c ****         }
1632:../Dave/Generated/FREERTOS/queue.c ****         else
1633:../Dave/Generated/FREERTOS/queue.c ****         {
1634:../Dave/Generated/FREERTOS/queue.c ****             /* Timed out. */
1635:../Dave/Generated/FREERTOS/queue.c ****             prvUnlockQueue( pxQueue );
 2963              	 .loc 1 1635 0
 2964 01ca F86A     	 ldr r0,[r7,#44]
 2965 01cc FFF7FEFF 	 bl prvUnlockQueue
1636:../Dave/Generated/FREERTOS/queue.c ****             ( void ) xTaskResumeAll();
 2966              	 .loc 1 1636 0
 2967 01d0 FFF7FEFF 	 bl xTaskResumeAll
1637:../Dave/Generated/FREERTOS/queue.c **** 
1638:../Dave/Generated/FREERTOS/queue.c ****             /* If the semaphore count is 0 exit now as the timeout has
1639:../Dave/Generated/FREERTOS/queue.c ****              * expired.  Otherwise return to attempt to take the semaphore that is
1640:../Dave/Generated/FREERTOS/queue.c ****              * known to be available.  As semaphores are implemented by queues the
1641:../Dave/Generated/FREERTOS/queue.c ****              * queue being empty is equivalent to the semaphore count being 0. */
1642:../Dave/Generated/FREERTOS/queue.c ****             if( prvIsQueueEmpty( pxQueue ) != pdFALSE )
 2968              	 .loc 1 1642 0
 2969 01d4 F86A     	 ldr r0,[r7,#44]
 2970 01d6 FFF7FEFF 	 bl prvIsQueueEmpty
 2971 01da 0346     	 mov r3,r0
 2972 01dc 002B     	 cmp r3,#0
 2973 01de 12D0     	 beq .L219
1643:../Dave/Generated/FREERTOS/queue.c ****             {
1644:../Dave/Generated/FREERTOS/queue.c ****                 #if ( configUSE_MUTEXES == 1 )
1645:../Dave/Generated/FREERTOS/queue.c ****                     {
1646:../Dave/Generated/FREERTOS/queue.c ****                         /* xInheritanceOccurred could only have be set if
1647:../Dave/Generated/FREERTOS/queue.c ****                          * pxQueue->uxQueueType == queueQUEUE_IS_MUTEX so no need to
1648:../Dave/Generated/FREERTOS/queue.c ****                          * test the mutex type again to check it is actually a mutex. */
1649:../Dave/Generated/FREERTOS/queue.c ****                         if( xInheritanceOccurred != pdFALSE )
 2974              	 .loc 1 1649 0
 2975 01e0 3B6B     	 ldr r3,[r7,#48]
 2976 01e2 002B     	 cmp r3,#0
 2977 01e4 0DD0     	 beq .L220
1650:../Dave/Generated/FREERTOS/queue.c ****                         {
1651:../Dave/Generated/FREERTOS/queue.c ****                             taskENTER_CRITICAL();
 2978              	 .loc 1 1651 0
 2979 01e6 FFF7FEFF 	 bl vPortEnterCritical
 2980              	.LBB221:
1652:../Dave/Generated/FREERTOS/queue.c ****                             {
1653:../Dave/Generated/FREERTOS/queue.c ****                                 UBaseType_t uxHighestWaitingPriority;
1654:../Dave/Generated/FREERTOS/queue.c **** 
1655:../Dave/Generated/FREERTOS/queue.c ****                                 /* This task blocking on the mutex caused another
1656:../Dave/Generated/FREERTOS/queue.c ****                                  * task to inherit this task's priority.  Now this task
1657:../Dave/Generated/FREERTOS/queue.c ****                                  * has timed out the priority should be disinherited
1658:../Dave/Generated/FREERTOS/queue.c ****                                  * again, but only as low as the next highest priority
1659:../Dave/Generated/FREERTOS/queue.c ****                                  * task that is waiting for the same mutex. */
1660:../Dave/Generated/FREERTOS/queue.c ****                                 uxHighestWaitingPriority = prvGetDisinheritPriorityAfterTimeout( px
 2981              	 .loc 1 1660 0
 2982 01ea F86A     	 ldr r0,[r7,#44]
 2983 01ec FFF7FEFF 	 bl prvGetDisinheritPriorityAfterTimeout
 2984 01f0 7862     	 str r0,[r7,#36]
1661:../Dave/Generated/FREERTOS/queue.c ****                                 vTaskPriorityDisinheritAfterTimeout( pxQueue->u.xSemaphore.xMutexHo
 2985              	 .loc 1 1661 0
 2986 01f2 FB6A     	 ldr r3,[r7,#44]
 2987 01f4 9B68     	 ldr r3,[r3,#8]
 2988 01f6 1846     	 mov r0,r3
 2989 01f8 796A     	 ldr r1,[r7,#36]
 2990 01fa FFF7FEFF 	 bl vTaskPriorityDisinheritAfterTimeout
 2991              	.LBE221:
1662:../Dave/Generated/FREERTOS/queue.c ****                             }
1663:../Dave/Generated/FREERTOS/queue.c ****                             taskEXIT_CRITICAL();
 2992              	 .loc 1 1663 0
 2993 01fe FFF7FEFF 	 bl vPortExitCritical
 2994              	.L220:
1664:../Dave/Generated/FREERTOS/queue.c ****                         }
1665:../Dave/Generated/FREERTOS/queue.c ****                     }
1666:../Dave/Generated/FREERTOS/queue.c ****                 #endif /* configUSE_MUTEXES */
1667:../Dave/Generated/FREERTOS/queue.c **** 
1668:../Dave/Generated/FREERTOS/queue.c ****                 traceQUEUE_RECEIVE_FAILED( pxQueue );
1669:../Dave/Generated/FREERTOS/queue.c ****                 return errQUEUE_EMPTY;
 2995              	 .loc 1 1669 0
 2996 0202 0023     	 movs r3,#0
 2997 0204 00E0     	 b .L221
 2998              	.L219:
1670:../Dave/Generated/FREERTOS/queue.c ****             }
1671:../Dave/Generated/FREERTOS/queue.c ****             else
1672:../Dave/Generated/FREERTOS/queue.c ****             {
1673:../Dave/Generated/FREERTOS/queue.c ****                 mtCOVERAGE_TEST_MARKER();
1674:../Dave/Generated/FREERTOS/queue.c ****             }
1675:../Dave/Generated/FREERTOS/queue.c ****         }
1676:../Dave/Generated/FREERTOS/queue.c ****     } /*lint -restore */
 2999              	 .loc 1 1676 0 discriminator 6
 3000 0206 38E7     	 b .L203
 3001              	.L221:
1677:../Dave/Generated/FREERTOS/queue.c **** }
 3002              	 .loc 1 1677 0 discriminator 7
 3003 0208 1846     	 mov r0,r3
 3004 020a 3837     	 adds r7,r7,#56
 3005              	.LCFI89:
 3006              	 .cfi_def_cfa_offset 8
 3007 020c BD46     	 mov sp,r7
 3008              	.LCFI90:
 3009              	 .cfi_def_cfa_register 13
 3010              	 
 3011 020e 80BD     	 pop {r7,pc}
 3012              	.L223:
 3013              	 .align 2
 3014              	.L222:
 3015 0210 04ED00E0 	 .word -536810236
 3016              	 .cfi_endproc
 3017              	.LFE154:
 3019              	 .section .text.xQueuePeek,"ax",%progbits
 3020              	 .align 2
 3021              	 .global xQueuePeek
 3022              	 .thumb
 3023              	 .thumb_func
 3025              	xQueuePeek:
 3026              	.LFB155:
1678:../Dave/Generated/FREERTOS/queue.c **** /*-----------------------------------------------------------*/
1679:../Dave/Generated/FREERTOS/queue.c **** 
1680:../Dave/Generated/FREERTOS/queue.c **** BaseType_t xQueuePeek( QueueHandle_t xQueue,
1681:../Dave/Generated/FREERTOS/queue.c ****                        void * const pvBuffer,
1682:../Dave/Generated/FREERTOS/queue.c ****                        TickType_t xTicksToWait )
1683:../Dave/Generated/FREERTOS/queue.c **** {
 3027              	 .loc 1 1683 0
 3028              	 .cfi_startproc
 3029              	 
 3030              	 
 3031 0000 80B5     	 push {r7,lr}
 3032              	.LCFI91:
 3033              	 .cfi_def_cfa_offset 8
 3034              	 .cfi_offset 7,-8
 3035              	 .cfi_offset 14,-4
 3036 0002 8EB0     	 sub sp,sp,#56
 3037              	.LCFI92:
 3038              	 .cfi_def_cfa_offset 64
 3039 0004 00AF     	 add r7,sp,#0
 3040              	.LCFI93:
 3041              	 .cfi_def_cfa_register 7
 3042 0006 F860     	 str r0,[r7,#12]
 3043 0008 B960     	 str r1,[r7,#8]
 3044 000a 7A60     	 str r2,[r7,#4]
1684:../Dave/Generated/FREERTOS/queue.c ****     BaseType_t xEntryTimeSet = pdFALSE;
 3045              	 .loc 1 1684 0
 3046 000c 0023     	 movs r3,#0
 3047 000e 7B63     	 str r3,[r7,#52]
1685:../Dave/Generated/FREERTOS/queue.c ****     TimeOut_t xTimeOut;
1686:../Dave/Generated/FREERTOS/queue.c ****     int8_t * pcOriginalReadPosition;
1687:../Dave/Generated/FREERTOS/queue.c ****     Queue_t * const pxQueue = xQueue;
 3048              	 .loc 1 1687 0
 3049 0010 FB68     	 ldr r3,[r7,#12]
 3050 0012 3B63     	 str r3,[r7,#48]
1688:../Dave/Generated/FREERTOS/queue.c **** 
1689:../Dave/Generated/FREERTOS/queue.c ****     /* Check the pointer is not NULL. */
1690:../Dave/Generated/FREERTOS/queue.c ****     configASSERT( ( pxQueue ) );
 3051              	 .loc 1 1690 0
 3052 0014 3B6B     	 ldr r3,[r7,#48]
 3053 0016 002B     	 cmp r3,#0
 3054 0018 09D1     	 bne .L225
 3055              	.LBB222:
 3056              	.LBB223:
 197:C:/Infineon/Tools/DAVE IDE/4.5.0.202105191637/eclipse/workspace/xmc4800-CE/Dave/Generated/FREERTOS/portable/GCC\portmacro.h ****         (
 3057              	 .loc 2 197 0 discriminator 1
 3058              	
 3059 001a 4FF0FC03 	 mov r3,#252
 3060 001e 83F31188 	 msr basepri,r3
 3061 0022 BFF36F8F 	 isb 
 3062 0026 BFF34F8F 	 dsb 
 3063              	
 3064              	
 3065              	 .thumb
 3066 002a 7B62     	 str r3,[r7,#36]
 3067              	.L226:
 3068              	.LBE223:
 3069              	.LBE222:
 3070              	 .loc 1 1690 0 discriminator 1
 3071 002c FEE7     	 b .L226
 3072              	.L225:
1691:../Dave/Generated/FREERTOS/queue.c **** 
1692:../Dave/Generated/FREERTOS/queue.c ****     /* The buffer into which data is received can only be NULL if the data size
1693:../Dave/Generated/FREERTOS/queue.c ****      * is zero (so no data is copied into the buffer. */
1694:../Dave/Generated/FREERTOS/queue.c ****     configASSERT( !( ( ( pvBuffer ) == NULL ) && ( ( pxQueue )->uxItemSize != ( UBaseType_t ) 0U ) 
 3073              	 .loc 1 1694 0
 3074 002e BB68     	 ldr r3,[r7,#8]
 3075 0030 002B     	 cmp r3,#0
 3076 0032 03D1     	 bne .L227
 3077              	 .loc 1 1694 0 is_stmt 0 discriminator 2
 3078 0034 3B6B     	 ldr r3,[r7,#48]
 3079 0036 1B6C     	 ldr r3,[r3,#64]
 3080 0038 002B     	 cmp r3,#0
 3081 003a 01D1     	 bne .L228
 3082              	.L227:
 3083              	 .loc 1 1694 0 discriminator 3
 3084 003c 0123     	 movs r3,#1
 3085 003e 00E0     	 b .L229
 3086              	.L228:
 3087              	 .loc 1 1694 0 discriminator 4
 3088 0040 0023     	 movs r3,#0
 3089              	.L229:
 3090              	 .loc 1 1694 0 discriminator 6
 3091 0042 002B     	 cmp r3,#0
 3092 0044 09D1     	 bne .L230
 3093              	.LBB224:
 3094              	.LBB225:
 197:C:/Infineon/Tools/DAVE IDE/4.5.0.202105191637/eclipse/workspace/xmc4800-CE/Dave/Generated/FREERTOS/portable/GCC\portmacro.h ****         (
 3095              	 .loc 2 197 0 is_stmt 1 discriminator 7
 3096              	
 3097 0046 4FF0FC03 	 mov r3,#252
 3098 004a 83F31188 	 msr basepri,r3
 3099 004e BFF36F8F 	 isb 
 3100 0052 BFF34F8F 	 dsb 
 3101              	
 3102              	
 3103              	 .thumb
 3104 0056 3B62     	 str r3,[r7,#32]
 3105              	.L231:
 3106              	.LBE225:
 3107              	.LBE224:
 3108              	 .loc 1 1694 0 discriminator 2
 3109 0058 FEE7     	 b .L231
 3110              	.L230:
1695:../Dave/Generated/FREERTOS/queue.c **** 
1696:../Dave/Generated/FREERTOS/queue.c ****     /* Cannot block if the scheduler is suspended. */
1697:../Dave/Generated/FREERTOS/queue.c ****     #if ( ( INCLUDE_xTaskGetSchedulerState == 1 ) || ( configUSE_TIMERS == 1 ) )
1698:../Dave/Generated/FREERTOS/queue.c ****         {
1699:../Dave/Generated/FREERTOS/queue.c ****             configASSERT( !( ( xTaskGetSchedulerState() == taskSCHEDULER_SUSPENDED ) && ( xTicksToW
 3111              	 .loc 1 1699 0
 3112 005a FFF7FEFF 	 bl xTaskGetSchedulerState
 3113 005e 0346     	 mov r3,r0
 3114 0060 002B     	 cmp r3,#0
 3115 0062 02D1     	 bne .L232
 3116              	 .loc 1 1699 0 is_stmt 0 discriminator 2
 3117 0064 7B68     	 ldr r3,[r7,#4]
 3118 0066 002B     	 cmp r3,#0
 3119 0068 01D1     	 bne .L233
 3120              	.L232:
 3121              	 .loc 1 1699 0 discriminator 3
 3122 006a 0123     	 movs r3,#1
 3123 006c 00E0     	 b .L234
 3124              	.L233:
 3125              	 .loc 1 1699 0 discriminator 4
 3126 006e 0023     	 movs r3,#0
 3127              	.L234:
 3128              	 .loc 1 1699 0 discriminator 6
 3129 0070 002B     	 cmp r3,#0
 3130 0072 09D1     	 bne .L235
 3131              	.LBB226:
 3132              	.LBB227:
 197:C:/Infineon/Tools/DAVE IDE/4.5.0.202105191637/eclipse/workspace/xmc4800-CE/Dave/Generated/FREERTOS/portable/GCC\portmacro.h ****         (
 3133              	 .loc 2 197 0 is_stmt 1 discriminator 7
 3134              	
 3135 0074 4FF0FC03 	 mov r3,#252
 3136 0078 83F31188 	 msr basepri,r3
 3137 007c BFF36F8F 	 isb 
 3138 0080 BFF34F8F 	 dsb 
 3139              	
 3140              	
 3141              	 .thumb
 3142 0084 FB61     	 str r3,[r7,#28]
 3143              	.L236:
 3144              	.LBE227:
 3145              	.LBE226:
 3146              	 .loc 1 1699 0 discriminator 3
 3147 0086 FEE7     	 b .L236
 3148              	.L235:
1700:../Dave/Generated/FREERTOS/queue.c ****         }
1701:../Dave/Generated/FREERTOS/queue.c ****     #endif
1702:../Dave/Generated/FREERTOS/queue.c **** 
1703:../Dave/Generated/FREERTOS/queue.c ****     /*lint -save -e904  This function relaxes the coding standard somewhat to
1704:../Dave/Generated/FREERTOS/queue.c ****      * allow return statements within the function itself.  This is done in the
1705:../Dave/Generated/FREERTOS/queue.c ****      * interest of execution time efficiency. */
1706:../Dave/Generated/FREERTOS/queue.c ****     for( ; ; )
1707:../Dave/Generated/FREERTOS/queue.c ****     {
1708:../Dave/Generated/FREERTOS/queue.c ****         taskENTER_CRITICAL();
 3149              	 .loc 1 1708 0
 3150 0088 FFF7FEFF 	 bl vPortEnterCritical
 3151              	.LBB228:
1709:../Dave/Generated/FREERTOS/queue.c ****         {
1710:../Dave/Generated/FREERTOS/queue.c ****             const UBaseType_t uxMessagesWaiting = pxQueue->uxMessagesWaiting;
 3152              	 .loc 1 1710 0
 3153 008c 3B6B     	 ldr r3,[r7,#48]
 3154 008e 9B6B     	 ldr r3,[r3,#56]
 3155 0090 FB62     	 str r3,[r7,#44]
1711:../Dave/Generated/FREERTOS/queue.c **** 
1712:../Dave/Generated/FREERTOS/queue.c ****             /* Is there data in the queue now?  To be running the calling task
1713:../Dave/Generated/FREERTOS/queue.c ****              * must be the highest priority task wanting to access the queue. */
1714:../Dave/Generated/FREERTOS/queue.c ****             if( uxMessagesWaiting > ( UBaseType_t ) 0 )
 3156              	 .loc 1 1714 0
 3157 0092 FB6A     	 ldr r3,[r7,#44]
 3158 0094 002B     	 cmp r3,#0
 3159 0096 21D0     	 beq .L237
1715:../Dave/Generated/FREERTOS/queue.c ****             {
1716:../Dave/Generated/FREERTOS/queue.c ****                 /* Remember the read position so it can be reset after the data
1717:../Dave/Generated/FREERTOS/queue.c ****                  * is read from the queue as this function is only peeking the
1718:../Dave/Generated/FREERTOS/queue.c ****                  * data, not removing it. */
1719:../Dave/Generated/FREERTOS/queue.c ****                 pcOriginalReadPosition = pxQueue->u.xQueue.pcReadFrom;
 3160              	 .loc 1 1719 0
 3161 0098 3B6B     	 ldr r3,[r7,#48]
 3162 009a DB68     	 ldr r3,[r3,#12]
 3163 009c BB62     	 str r3,[r7,#40]
1720:../Dave/Generated/FREERTOS/queue.c **** 
1721:../Dave/Generated/FREERTOS/queue.c ****                 prvCopyDataFromQueue( pxQueue, pvBuffer );
 3164              	 .loc 1 1721 0
 3165 009e 386B     	 ldr r0,[r7,#48]
 3166 00a0 B968     	 ldr r1,[r7,#8]
 3167 00a2 FFF7FEFF 	 bl prvCopyDataFromQueue
1722:../Dave/Generated/FREERTOS/queue.c ****                 traceQUEUE_PEEK( pxQueue );
1723:../Dave/Generated/FREERTOS/queue.c **** 
1724:../Dave/Generated/FREERTOS/queue.c ****                 /* The data is not being removed, so reset the read pointer. */
1725:../Dave/Generated/FREERTOS/queue.c ****                 pxQueue->u.xQueue.pcReadFrom = pcOriginalReadPosition;
 3168              	 .loc 1 1725 0
 3169 00a6 3B6B     	 ldr r3,[r7,#48]
 3170 00a8 BA6A     	 ldr r2,[r7,#40]
 3171 00aa DA60     	 str r2,[r3,#12]
1726:../Dave/Generated/FREERTOS/queue.c **** 
1727:../Dave/Generated/FREERTOS/queue.c ****                 /* The data is being left in the queue, so see if there are
1728:../Dave/Generated/FREERTOS/queue.c ****                  * any other tasks waiting for the data. */
1729:../Dave/Generated/FREERTOS/queue.c ****                 if( listLIST_IS_EMPTY( &( pxQueue->xTasksWaitingToReceive ) ) == pdFALSE )
 3172              	 .loc 1 1729 0
 3173 00ac 3B6B     	 ldr r3,[r7,#48]
 3174 00ae 5B6A     	 ldr r3,[r3,#36]
 3175 00b0 002B     	 cmp r3,#0
 3176 00b2 0FD0     	 beq .L238
1730:../Dave/Generated/FREERTOS/queue.c ****                 {
1731:../Dave/Generated/FREERTOS/queue.c ****                     if( xTaskRemoveFromEventList( &( pxQueue->xTasksWaitingToReceive ) ) != pdFALSE
 3177              	 .loc 1 1731 0
 3178 00b4 3B6B     	 ldr r3,[r7,#48]
 3179 00b6 2433     	 adds r3,r3,#36
 3180 00b8 1846     	 mov r0,r3
 3181 00ba FFF7FEFF 	 bl xTaskRemoveFromEventList
 3182 00be 0346     	 mov r3,r0
 3183 00c0 002B     	 cmp r3,#0
 3184 00c2 07D0     	 beq .L238
1732:../Dave/Generated/FREERTOS/queue.c ****                     {
1733:../Dave/Generated/FREERTOS/queue.c ****                         /* The task waiting has a higher priority than this task. */
1734:../Dave/Generated/FREERTOS/queue.c ****                         queueYIELD_IF_USING_PREEMPTION();
 3185              	 .loc 1 1734 0
 3186 00c4 3E4B     	 ldr r3,.L249
 3187 00c6 4FF08052 	 mov r2,#268435456
 3188 00ca 1A60     	 str r2,[r3]
 3189              	
 3190 00cc BFF34F8F 	 dsb
 3191              	
 3192              	
 3193 00d0 BFF36F8F 	 isb
 3194              	
 3195              	 .thumb
 3196              	.L238:
1735:../Dave/Generated/FREERTOS/queue.c ****                     }
1736:../Dave/Generated/FREERTOS/queue.c ****                     else
1737:../Dave/Generated/FREERTOS/queue.c ****                     {
1738:../Dave/Generated/FREERTOS/queue.c ****                         mtCOVERAGE_TEST_MARKER();
1739:../Dave/Generated/FREERTOS/queue.c ****                     }
1740:../Dave/Generated/FREERTOS/queue.c ****                 }
1741:../Dave/Generated/FREERTOS/queue.c ****                 else
1742:../Dave/Generated/FREERTOS/queue.c ****                 {
1743:../Dave/Generated/FREERTOS/queue.c ****                     mtCOVERAGE_TEST_MARKER();
1744:../Dave/Generated/FREERTOS/queue.c ****                 }
1745:../Dave/Generated/FREERTOS/queue.c **** 
1746:../Dave/Generated/FREERTOS/queue.c ****                 taskEXIT_CRITICAL();
 3197              	 .loc 1 1746 0
 3198 00d4 FFF7FEFF 	 bl vPortExitCritical
1747:../Dave/Generated/FREERTOS/queue.c ****                 return pdPASS;
 3199              	 .loc 1 1747 0
 3200 00d8 0123     	 movs r3,#1
 3201 00da 6DE0     	 b .L248
 3202              	.L237:
1748:../Dave/Generated/FREERTOS/queue.c ****             }
1749:../Dave/Generated/FREERTOS/queue.c ****             else
1750:../Dave/Generated/FREERTOS/queue.c ****             {
1751:../Dave/Generated/FREERTOS/queue.c ****                 if( xTicksToWait == ( TickType_t ) 0 )
 3203              	 .loc 1 1751 0
 3204 00dc 7B68     	 ldr r3,[r7,#4]
 3205 00de 002B     	 cmp r3,#0
 3206 00e0 03D1     	 bne .L240
1752:../Dave/Generated/FREERTOS/queue.c ****                 {
1753:../Dave/Generated/FREERTOS/queue.c ****                     /* The queue was empty and no block time is specified (or
1754:../Dave/Generated/FREERTOS/queue.c ****                      * the block time has expired) so leave now. */
1755:../Dave/Generated/FREERTOS/queue.c ****                     taskEXIT_CRITICAL();
 3207              	 .loc 1 1755 0
 3208 00e2 FFF7FEFF 	 bl vPortExitCritical
1756:../Dave/Generated/FREERTOS/queue.c ****                     traceQUEUE_PEEK_FAILED( pxQueue );
1757:../Dave/Generated/FREERTOS/queue.c ****                     return errQUEUE_EMPTY;
 3209              	 .loc 1 1757 0
 3210 00e6 0023     	 movs r3,#0
 3211 00e8 66E0     	 b .L248
 3212              	.L240:
1758:../Dave/Generated/FREERTOS/queue.c ****                 }
1759:../Dave/Generated/FREERTOS/queue.c ****                 else if( xEntryTimeSet == pdFALSE )
 3213              	 .loc 1 1759 0
 3214 00ea 7B6B     	 ldr r3,[r7,#52]
 3215 00ec 002B     	 cmp r3,#0
 3216 00ee 06D1     	 bne .L241
1760:../Dave/Generated/FREERTOS/queue.c ****                 {
1761:../Dave/Generated/FREERTOS/queue.c ****                     /* The queue was empty and a block time was specified so
1762:../Dave/Generated/FREERTOS/queue.c ****                      * configure the timeout structure ready to enter the blocked
1763:../Dave/Generated/FREERTOS/queue.c ****                      * state. */
1764:../Dave/Generated/FREERTOS/queue.c ****                     vTaskInternalSetTimeOutState( &xTimeOut );
 3217              	 .loc 1 1764 0
 3218 00f0 07F11403 	 add r3,r7,#20
 3219 00f4 1846     	 mov r0,r3
 3220 00f6 FFF7FEFF 	 bl vTaskInternalSetTimeOutState
1765:../Dave/Generated/FREERTOS/queue.c ****                     xEntryTimeSet = pdTRUE;
 3221              	 .loc 1 1765 0
 3222 00fa 0123     	 movs r3,#1
 3223 00fc 7B63     	 str r3,[r7,#52]
 3224              	.L241:
 3225              	.LBE228:
1766:../Dave/Generated/FREERTOS/queue.c ****                 }
1767:../Dave/Generated/FREERTOS/queue.c ****                 else
1768:../Dave/Generated/FREERTOS/queue.c ****                 {
1769:../Dave/Generated/FREERTOS/queue.c ****                     /* Entry time was already set. */
1770:../Dave/Generated/FREERTOS/queue.c ****                     mtCOVERAGE_TEST_MARKER();
1771:../Dave/Generated/FREERTOS/queue.c ****                 }
1772:../Dave/Generated/FREERTOS/queue.c ****             }
1773:../Dave/Generated/FREERTOS/queue.c ****         }
1774:../Dave/Generated/FREERTOS/queue.c ****         taskEXIT_CRITICAL();
 3226              	 .loc 1 1774 0
 3227 00fe FFF7FEFF 	 bl vPortExitCritical
1775:../Dave/Generated/FREERTOS/queue.c **** 
1776:../Dave/Generated/FREERTOS/queue.c ****         /* Interrupts and other tasks can send to and receive from the queue
1777:../Dave/Generated/FREERTOS/queue.c ****          * now the critical section has been exited. */
1778:../Dave/Generated/FREERTOS/queue.c **** 
1779:../Dave/Generated/FREERTOS/queue.c ****         vTaskSuspendAll();
 3228              	 .loc 1 1779 0
 3229 0102 FFF7FEFF 	 bl vTaskSuspendAll
1780:../Dave/Generated/FREERTOS/queue.c ****         prvLockQueue( pxQueue );
 3230              	 .loc 1 1780 0
 3231 0106 FFF7FEFF 	 bl vPortEnterCritical
 3232 010a 3B6B     	 ldr r3,[r7,#48]
 3233 010c 93F84430 	 ldrb r3,[r3,#68]
 3234 0110 DBB2     	 uxtb r3,r3
 3235 0112 5BB2     	 sxtb r3,r3
 3236 0114 B3F1FF3F 	 cmp r3,#-1
 3237 0118 03D1     	 bne .L242
 3238              	 .loc 1 1780 0 is_stmt 0 discriminator 1
 3239 011a 3B6B     	 ldr r3,[r7,#48]
 3240 011c 0022     	 movs r2,#0
 3241 011e 83F84420 	 strb r2,[r3,#68]
 3242              	.L242:
 3243              	 .loc 1 1780 0 discriminator 3
 3244 0122 3B6B     	 ldr r3,[r7,#48]
 3245 0124 93F84530 	 ldrb r3,[r3,#69]
 3246 0128 DBB2     	 uxtb r3,r3
 3247 012a 5BB2     	 sxtb r3,r3
 3248 012c B3F1FF3F 	 cmp r3,#-1
 3249 0130 03D1     	 bne .L243
 3250              	 .loc 1 1780 0 discriminator 4
 3251 0132 3B6B     	 ldr r3,[r7,#48]
 3252 0134 0022     	 movs r2,#0
 3253 0136 83F84520 	 strb r2,[r3,#69]
 3254              	.L243:
 3255              	 .loc 1 1780 0 discriminator 6
 3256 013a FFF7FEFF 	 bl vPortExitCritical
1781:../Dave/Generated/FREERTOS/queue.c **** 
1782:../Dave/Generated/FREERTOS/queue.c ****         /* Update the timeout state to see if it has expired yet. */
1783:../Dave/Generated/FREERTOS/queue.c ****         if( xTaskCheckForTimeOut( &xTimeOut, &xTicksToWait ) == pdFALSE )
 3257              	 .loc 1 1783 0 is_stmt 1 discriminator 6
 3258 013e 07F11402 	 add r2,r7,#20
 3259 0142 3B1D     	 adds r3,r7,#4
 3260 0144 1046     	 mov r0,r2
 3261 0146 1946     	 mov r1,r3
 3262 0148 FFF7FEFF 	 bl xTaskCheckForTimeOut
 3263 014c 0346     	 mov r3,r0
 3264 014e 002B     	 cmp r3,#0
 3265 0150 24D1     	 bne .L244
1784:../Dave/Generated/FREERTOS/queue.c ****         {
1785:../Dave/Generated/FREERTOS/queue.c ****             /* Timeout has not expired yet, check to see if there is data in the
1786:../Dave/Generated/FREERTOS/queue.c ****             * queue now, and if not enter the Blocked state to wait for data. */
1787:../Dave/Generated/FREERTOS/queue.c ****             if( prvIsQueueEmpty( pxQueue ) != pdFALSE )
 3266              	 .loc 1 1787 0
 3267 0152 386B     	 ldr r0,[r7,#48]
 3268 0154 FFF7FEFF 	 bl prvIsQueueEmpty
 3269 0158 0346     	 mov r3,r0
 3270 015a 002B     	 cmp r3,#0
 3271 015c 18D0     	 beq .L245
1788:../Dave/Generated/FREERTOS/queue.c ****             {
1789:../Dave/Generated/FREERTOS/queue.c ****                 traceBLOCKING_ON_QUEUE_PEEK( pxQueue );
1790:../Dave/Generated/FREERTOS/queue.c ****                 vTaskPlaceOnEventList( &( pxQueue->xTasksWaitingToReceive ), xTicksToWait );
 3272              	 .loc 1 1790 0
 3273 015e 3B6B     	 ldr r3,[r7,#48]
 3274 0160 03F12402 	 add r2,r3,#36
 3275 0164 7B68     	 ldr r3,[r7,#4]
 3276 0166 1046     	 mov r0,r2
 3277 0168 1946     	 mov r1,r3
 3278 016a FFF7FEFF 	 bl vTaskPlaceOnEventList
1791:../Dave/Generated/FREERTOS/queue.c ****                 prvUnlockQueue( pxQueue );
 3279              	 .loc 1 1791 0
 3280 016e 386B     	 ldr r0,[r7,#48]
 3281 0170 FFF7FEFF 	 bl prvUnlockQueue
1792:../Dave/Generated/FREERTOS/queue.c **** 
1793:../Dave/Generated/FREERTOS/queue.c ****                 if( xTaskResumeAll() == pdFALSE )
 3282              	 .loc 1 1793 0
 3283 0174 FFF7FEFF 	 bl xTaskResumeAll
 3284 0178 0346     	 mov r3,r0
 3285 017a 002B     	 cmp r3,#0
 3286 017c 1BD1     	 bne .L247
1794:../Dave/Generated/FREERTOS/queue.c ****                 {
1795:../Dave/Generated/FREERTOS/queue.c ****                     portYIELD_WITHIN_API();
 3287              	 .loc 1 1795 0
 3288 017e 104B     	 ldr r3,.L249
 3289 0180 4FF08052 	 mov r2,#268435456
 3290 0184 1A60     	 str r2,[r3]
 3291              	
 3292 0186 BFF34F8F 	 dsb
 3293              	
 3294              	
 3295 018a BFF36F8F 	 isb
 3296              	
 3297              	 .thumb
 3298 018e 12E0     	 b .L247
 3299              	.L245:
1796:../Dave/Generated/FREERTOS/queue.c ****                 }
1797:../Dave/Generated/FREERTOS/queue.c ****                 else
1798:../Dave/Generated/FREERTOS/queue.c ****                 {
1799:../Dave/Generated/FREERTOS/queue.c ****                     mtCOVERAGE_TEST_MARKER();
1800:../Dave/Generated/FREERTOS/queue.c ****                 }
1801:../Dave/Generated/FREERTOS/queue.c ****             }
1802:../Dave/Generated/FREERTOS/queue.c ****             else
1803:../Dave/Generated/FREERTOS/queue.c ****             {
1804:../Dave/Generated/FREERTOS/queue.c ****                 /* There is data in the queue now, so don't enter the blocked
1805:../Dave/Generated/FREERTOS/queue.c ****                  * state, instead return to try and obtain the data. */
1806:../Dave/Generated/FREERTOS/queue.c ****                 prvUnlockQueue( pxQueue );
 3300              	 .loc 1 1806 0
 3301 0190 386B     	 ldr r0,[r7,#48]
 3302 0192 FFF7FEFF 	 bl prvUnlockQueue
1807:../Dave/Generated/FREERTOS/queue.c ****                 ( void ) xTaskResumeAll();
 3303              	 .loc 1 1807 0
 3304 0196 FFF7FEFF 	 bl xTaskResumeAll
 3305 019a 75E7     	 b .L235
 3306              	.L244:
1808:../Dave/Generated/FREERTOS/queue.c ****             }
1809:../Dave/Generated/FREERTOS/queue.c ****         }
1810:../Dave/Generated/FREERTOS/queue.c ****         else
1811:../Dave/Generated/FREERTOS/queue.c ****         {
1812:../Dave/Generated/FREERTOS/queue.c ****             /* The timeout has expired.  If there is still no data in the queue
1813:../Dave/Generated/FREERTOS/queue.c ****              * exit, otherwise go back and try to read the data again. */
1814:../Dave/Generated/FREERTOS/queue.c ****             prvUnlockQueue( pxQueue );
 3307              	 .loc 1 1814 0
 3308 019c 386B     	 ldr r0,[r7,#48]
 3309 019e FFF7FEFF 	 bl prvUnlockQueue
1815:../Dave/Generated/FREERTOS/queue.c ****             ( void ) xTaskResumeAll();
 3310              	 .loc 1 1815 0
 3311 01a2 FFF7FEFF 	 bl xTaskResumeAll
1816:../Dave/Generated/FREERTOS/queue.c **** 
1817:../Dave/Generated/FREERTOS/queue.c ****             if( prvIsQueueEmpty( pxQueue ) != pdFALSE )
 3312              	 .loc 1 1817 0
 3313 01a6 386B     	 ldr r0,[r7,#48]
 3314 01a8 FFF7FEFF 	 bl prvIsQueueEmpty
 3315 01ac 0346     	 mov r3,r0
 3316 01ae 002B     	 cmp r3,#0
 3317 01b0 01D0     	 beq .L247
1818:../Dave/Generated/FREERTOS/queue.c ****             {
1819:../Dave/Generated/FREERTOS/queue.c ****                 traceQUEUE_PEEK_FAILED( pxQueue );
1820:../Dave/Generated/FREERTOS/queue.c ****                 return errQUEUE_EMPTY;
 3318              	 .loc 1 1820 0
 3319 01b2 0023     	 movs r3,#0
 3320 01b4 00E0     	 b .L248
 3321              	.L247:
1821:../Dave/Generated/FREERTOS/queue.c ****             }
1822:../Dave/Generated/FREERTOS/queue.c ****             else
1823:../Dave/Generated/FREERTOS/queue.c ****             {
1824:../Dave/Generated/FREERTOS/queue.c ****                 mtCOVERAGE_TEST_MARKER();
1825:../Dave/Generated/FREERTOS/queue.c ****             }
1826:../Dave/Generated/FREERTOS/queue.c ****         }
1827:../Dave/Generated/FREERTOS/queue.c ****     } /*lint -restore */
 3322              	 .loc 1 1827 0 discriminator 5
 3323 01b6 67E7     	 b .L235
 3324              	.L248:
1828:../Dave/Generated/FREERTOS/queue.c **** }
 3325              	 .loc 1 1828 0 discriminator 6
 3326 01b8 1846     	 mov r0,r3
 3327 01ba 3837     	 adds r7,r7,#56
 3328              	.LCFI94:
 3329              	 .cfi_def_cfa_offset 8
 3330 01bc BD46     	 mov sp,r7
 3331              	.LCFI95:
 3332              	 .cfi_def_cfa_register 13
 3333              	 
 3334 01be 80BD     	 pop {r7,pc}
 3335              	.L250:
 3336              	 .align 2
 3337              	.L249:
 3338 01c0 04ED00E0 	 .word -536810236
 3339              	 .cfi_endproc
 3340              	.LFE155:
 3342              	 .section .text.xQueueReceiveFromISR,"ax",%progbits
 3343              	 .align 2
 3344              	 .global xQueueReceiveFromISR
 3345              	 .thumb
 3346              	 .thumb_func
 3348              	xQueueReceiveFromISR:
 3349              	.LFB156:
1829:../Dave/Generated/FREERTOS/queue.c **** /*-----------------------------------------------------------*/
1830:../Dave/Generated/FREERTOS/queue.c **** 
1831:../Dave/Generated/FREERTOS/queue.c **** BaseType_t xQueueReceiveFromISR( QueueHandle_t xQueue,
1832:../Dave/Generated/FREERTOS/queue.c ****                                  void * const pvBuffer,
1833:../Dave/Generated/FREERTOS/queue.c ****                                  BaseType_t * const pxHigherPriorityTaskWoken )
1834:../Dave/Generated/FREERTOS/queue.c **** {
 3350              	 .loc 1 1834 0
 3351              	 .cfi_startproc
 3352              	 
 3353              	 
 3354 0000 80B5     	 push {r7,lr}
 3355              	.LCFI96:
 3356              	 .cfi_def_cfa_offset 8
 3357              	 .cfi_offset 7,-8
 3358              	 .cfi_offset 14,-4
 3359 0002 90B0     	 sub sp,sp,#64
 3360              	.LCFI97:
 3361              	 .cfi_def_cfa_offset 72
 3362 0004 00AF     	 add r7,sp,#0
 3363              	.LCFI98:
 3364              	 .cfi_def_cfa_register 7
 3365 0006 F860     	 str r0,[r7,#12]
 3366 0008 B960     	 str r1,[r7,#8]
 3367 000a 7A60     	 str r2,[r7,#4]
1835:../Dave/Generated/FREERTOS/queue.c ****     BaseType_t xReturn;
1836:../Dave/Generated/FREERTOS/queue.c ****     UBaseType_t uxSavedInterruptStatus;
1837:../Dave/Generated/FREERTOS/queue.c ****     Queue_t * const pxQueue = xQueue;
 3368              	 .loc 1 1837 0
 3369 000c FB68     	 ldr r3,[r7,#12]
 3370 000e BB63     	 str r3,[r7,#56]
1838:../Dave/Generated/FREERTOS/queue.c **** 
1839:../Dave/Generated/FREERTOS/queue.c ****     configASSERT( pxQueue );
 3371              	 .loc 1 1839 0
 3372 0010 BB6B     	 ldr r3,[r7,#56]
 3373 0012 002B     	 cmp r3,#0
 3374 0014 09D1     	 bne .L252
 3375              	.LBB229:
 3376              	.LBB230:
 197:C:/Infineon/Tools/DAVE IDE/4.5.0.202105191637/eclipse/workspace/xmc4800-CE/Dave/Generated/FREERTOS/portable/GCC\portmacro.h ****         (
 3377              	 .loc 2 197 0 discriminator 1
 3378              	
 3379 0016 4FF0FC03 	 mov r3,#252
 3380 001a 83F31188 	 msr basepri,r3
 3381 001e BFF36F8F 	 isb 
 3382 0022 BFF34F8F 	 dsb 
 3383              	
 3384              	
 3385              	 .thumb
 3386 0026 BB62     	 str r3,[r7,#40]
 3387              	.L253:
 3388              	.LBE230:
 3389              	.LBE229:
 3390              	 .loc 1 1839 0 discriminator 1
 3391 0028 FEE7     	 b .L253
 3392              	.L252:
1840:../Dave/Generated/FREERTOS/queue.c ****     configASSERT( !( ( pvBuffer == NULL ) && ( pxQueue->uxItemSize != ( UBaseType_t ) 0U ) ) );
 3393              	 .loc 1 1840 0
 3394 002a BB68     	 ldr r3,[r7,#8]
 3395 002c 002B     	 cmp r3,#0
 3396 002e 03D1     	 bne .L254
 3397              	 .loc 1 1840 0 is_stmt 0 discriminator 2
 3398 0030 BB6B     	 ldr r3,[r7,#56]
 3399 0032 1B6C     	 ldr r3,[r3,#64]
 3400 0034 002B     	 cmp r3,#0
 3401 0036 01D1     	 bne .L255
 3402              	.L254:
 3403              	 .loc 1 1840 0 discriminator 3
 3404 0038 0123     	 movs r3,#1
 3405 003a 00E0     	 b .L256
 3406              	.L255:
 3407              	 .loc 1 1840 0 discriminator 4
 3408 003c 0023     	 movs r3,#0
 3409              	.L256:
 3410              	 .loc 1 1840 0 discriminator 6
 3411 003e 002B     	 cmp r3,#0
 3412 0040 09D1     	 bne .L257
 3413              	.LBB231:
 3414              	.LBB232:
 197:C:/Infineon/Tools/DAVE IDE/4.5.0.202105191637/eclipse/workspace/xmc4800-CE/Dave/Generated/FREERTOS/portable/GCC\portmacro.h ****         (
 3415              	 .loc 2 197 0 is_stmt 1 discriminator 7
 3416              	
 3417 0042 4FF0FC03 	 mov r3,#252
 3418 0046 83F31188 	 msr basepri,r3
 3419 004a BFF36F8F 	 isb 
 3420 004e BFF34F8F 	 dsb 
 3421              	
 3422              	
 3423              	 .thumb
 3424 0052 7B62     	 str r3,[r7,#36]
 3425              	.L258:
 3426              	.LBE232:
 3427              	.LBE231:
 3428              	 .loc 1 1840 0 discriminator 2
 3429 0054 FEE7     	 b .L258
 3430              	.L257:
1841:../Dave/Generated/FREERTOS/queue.c **** 
1842:../Dave/Generated/FREERTOS/queue.c ****     /* RTOS ports that support interrupt nesting have the concept of a maximum
1843:../Dave/Generated/FREERTOS/queue.c ****      * system call (or maximum API call) interrupt priority.  Interrupts that are
1844:../Dave/Generated/FREERTOS/queue.c ****      * above the maximum system call priority are kept permanently enabled, even
1845:../Dave/Generated/FREERTOS/queue.c ****      * when the RTOS kernel is in a critical section, but cannot make any calls to
1846:../Dave/Generated/FREERTOS/queue.c ****      * FreeRTOS API functions.  If configASSERT() is defined in FreeRTOSConfig.h
1847:../Dave/Generated/FREERTOS/queue.c ****      * then portASSERT_IF_INTERRUPT_PRIORITY_INVALID() will result in an assertion
1848:../Dave/Generated/FREERTOS/queue.c ****      * failure if a FreeRTOS API function is called from an interrupt that has been
1849:../Dave/Generated/FREERTOS/queue.c ****      * assigned a priority above the configured maximum system call priority.
1850:../Dave/Generated/FREERTOS/queue.c ****      * Only FreeRTOS functions that end in FromISR can be called from interrupts
1851:../Dave/Generated/FREERTOS/queue.c ****      * that have been assigned a priority at or (logically) below the maximum
1852:../Dave/Generated/FREERTOS/queue.c ****      * system call interrupt priority.  FreeRTOS maintains a separate interrupt
1853:../Dave/Generated/FREERTOS/queue.c ****      * safe API to ensure interrupt entry is as fast and as simple as possible.
1854:../Dave/Generated/FREERTOS/queue.c ****      * More information (albeit Cortex-M specific) is provided on the following
1855:../Dave/Generated/FREERTOS/queue.c ****      * link: https://www.FreeRTOS.org/RTOS-Cortex-M3-M4.html */
1856:../Dave/Generated/FREERTOS/queue.c ****     portASSERT_IF_INTERRUPT_PRIORITY_INVALID();
 3431              	 .loc 1 1856 0
 3432 0056 FFF7FEFF 	 bl vPortValidateInterruptPriority
 3433              	.LBB233:
 3434              	.LBB234:
 213:C:/Infineon/Tools/DAVE IDE/4.5.0.202105191637/eclipse/workspace/xmc4800-CE/Dave/Generated/FREERTOS/portable/GCC\portmacro.h ****         (
 3435              	 .loc 2 213 0
 3436              	
 3437 005a EFF31182 	 mrs r2,basepri
 3438 005e 4FF0FC03 	 mov r3,#252
 3439 0062 83F31188 	 msr basepri,r3
 3440 0066 BFF36F8F 	 isb 
 3441 006a BFF34F8F 	 dsb 
 3442              	
 3443              	
 3444              	 .thumb
 3445 006e 3A62     	 str r2,[r7,#32]
 3446 0070 FB61     	 str r3,[r7,#28]
 225:C:/Infineon/Tools/DAVE IDE/4.5.0.202105191637/eclipse/workspace/xmc4800-CE/Dave/Generated/FREERTOS/portable/GCC\portmacro.h ****     }
 3447              	 .loc 2 225 0
 3448 0072 3B6A     	 ldr r3,[r7,#32]
 3449              	.LBE234:
 3450              	.LBE233:
1857:../Dave/Generated/FREERTOS/queue.c **** 
1858:../Dave/Generated/FREERTOS/queue.c ****     uxSavedInterruptStatus = portSET_INTERRUPT_MASK_FROM_ISR();
 3451              	 .loc 1 1858 0
 3452 0074 7B63     	 str r3,[r7,#52]
 3453              	.LBB235:
1859:../Dave/Generated/FREERTOS/queue.c ****     {
1860:../Dave/Generated/FREERTOS/queue.c ****         const UBaseType_t uxMessagesWaiting = pxQueue->uxMessagesWaiting;
 3454              	 .loc 1 1860 0
 3455 0076 BB6B     	 ldr r3,[r7,#56]
 3456 0078 9B6B     	 ldr r3,[r3,#56]
 3457 007a 3B63     	 str r3,[r7,#48]
1861:../Dave/Generated/FREERTOS/queue.c **** 
1862:../Dave/Generated/FREERTOS/queue.c ****         /* Cannot block in an ISR, so check there is data available. */
1863:../Dave/Generated/FREERTOS/queue.c ****         if( uxMessagesWaiting > ( UBaseType_t ) 0 )
 3458              	 .loc 1 1863 0
 3459 007c 3B6B     	 ldr r3,[r7,#48]
 3460 007e 002B     	 cmp r3,#0
 3461 0080 3DD0     	 beq .L260
 3462              	.LBB236:
1864:../Dave/Generated/FREERTOS/queue.c ****         {
1865:../Dave/Generated/FREERTOS/queue.c ****             const int8_t cRxLock = pxQueue->cRxLock;
 3463              	 .loc 1 1865 0
 3464 0082 BB6B     	 ldr r3,[r7,#56]
 3465 0084 93F84430 	 ldrb r3,[r3,#68]
 3466 0088 87F82F30 	 strb r3,[r7,#47]
1866:../Dave/Generated/FREERTOS/queue.c **** 
1867:../Dave/Generated/FREERTOS/queue.c ****             traceQUEUE_RECEIVE_FROM_ISR( pxQueue );
1868:../Dave/Generated/FREERTOS/queue.c **** 
1869:../Dave/Generated/FREERTOS/queue.c ****             prvCopyDataFromQueue( pxQueue, pvBuffer );
 3467              	 .loc 1 1869 0
 3468 008c B86B     	 ldr r0,[r7,#56]
 3469 008e B968     	 ldr r1,[r7,#8]
 3470 0090 FFF7FEFF 	 bl prvCopyDataFromQueue
1870:../Dave/Generated/FREERTOS/queue.c ****             pxQueue->uxMessagesWaiting = uxMessagesWaiting - ( UBaseType_t ) 1;
 3471              	 .loc 1 1870 0
 3472 0094 3B6B     	 ldr r3,[r7,#48]
 3473 0096 5A1E     	 subs r2,r3,#1
 3474 0098 BB6B     	 ldr r3,[r7,#56]
 3475 009a 9A63     	 str r2,[r3,#56]
1871:../Dave/Generated/FREERTOS/queue.c **** 
1872:../Dave/Generated/FREERTOS/queue.c ****             /* If the queue is locked the event list will not be modified.
1873:../Dave/Generated/FREERTOS/queue.c ****              * Instead update the lock count so the task that unlocks the queue
1874:../Dave/Generated/FREERTOS/queue.c ****              * will know that an ISR has removed data while the queue was
1875:../Dave/Generated/FREERTOS/queue.c ****              * locked. */
1876:../Dave/Generated/FREERTOS/queue.c ****             if( cRxLock == queueUNLOCKED )
 3476              	 .loc 1 1876 0
 3477 009c 97F92F30 	 ldrsb r3,[r7,#47]
 3478 00a0 B3F1FF3F 	 cmp r3,#-1
 3479 00a4 12D1     	 bne .L261
1877:../Dave/Generated/FREERTOS/queue.c ****             {
1878:../Dave/Generated/FREERTOS/queue.c ****                 if( listLIST_IS_EMPTY( &( pxQueue->xTasksWaitingToSend ) ) == pdFALSE )
 3480              	 .loc 1 1878 0
 3481 00a6 BB6B     	 ldr r3,[r7,#56]
 3482 00a8 1B69     	 ldr r3,[r3,#16]
 3483 00aa 002B     	 cmp r3,#0
 3484 00ac 24D0     	 beq .L262
1879:../Dave/Generated/FREERTOS/queue.c ****                 {
1880:../Dave/Generated/FREERTOS/queue.c ****                     if( xTaskRemoveFromEventList( &( pxQueue->xTasksWaitingToSend ) ) != pdFALSE )
 3485              	 .loc 1 1880 0
 3486 00ae BB6B     	 ldr r3,[r7,#56]
 3487 00b0 1033     	 adds r3,r3,#16
 3488 00b2 1846     	 mov r0,r3
 3489 00b4 FFF7FEFF 	 bl xTaskRemoveFromEventList
 3490 00b8 0346     	 mov r3,r0
 3491 00ba 002B     	 cmp r3,#0
 3492 00bc 1CD0     	 beq .L262
1881:../Dave/Generated/FREERTOS/queue.c ****                     {
1882:../Dave/Generated/FREERTOS/queue.c ****                         /* The task waiting has a higher priority than us so
1883:../Dave/Generated/FREERTOS/queue.c ****                          * force a context switch. */
1884:../Dave/Generated/FREERTOS/queue.c ****                         if( pxHigherPriorityTaskWoken != NULL )
 3493              	 .loc 1 1884 0
 3494 00be 7B68     	 ldr r3,[r7,#4]
 3495 00c0 002B     	 cmp r3,#0
 3496 00c2 19D0     	 beq .L262
1885:../Dave/Generated/FREERTOS/queue.c ****                         {
1886:../Dave/Generated/FREERTOS/queue.c ****                             *pxHigherPriorityTaskWoken = pdTRUE;
 3497              	 .loc 1 1886 0
 3498 00c4 7B68     	 ldr r3,[r7,#4]
 3499 00c6 0122     	 movs r2,#1
 3500 00c8 1A60     	 str r2,[r3]
 3501 00ca 15E0     	 b .L262
 3502              	.L261:
1887:../Dave/Generated/FREERTOS/queue.c ****                         }
1888:../Dave/Generated/FREERTOS/queue.c ****                         else
1889:../Dave/Generated/FREERTOS/queue.c ****                         {
1890:../Dave/Generated/FREERTOS/queue.c ****                             mtCOVERAGE_TEST_MARKER();
1891:../Dave/Generated/FREERTOS/queue.c ****                         }
1892:../Dave/Generated/FREERTOS/queue.c ****                     }
1893:../Dave/Generated/FREERTOS/queue.c ****                     else
1894:../Dave/Generated/FREERTOS/queue.c ****                     {
1895:../Dave/Generated/FREERTOS/queue.c ****                         mtCOVERAGE_TEST_MARKER();
1896:../Dave/Generated/FREERTOS/queue.c ****                     }
1897:../Dave/Generated/FREERTOS/queue.c ****                 }
1898:../Dave/Generated/FREERTOS/queue.c ****                 else
1899:../Dave/Generated/FREERTOS/queue.c ****                 {
1900:../Dave/Generated/FREERTOS/queue.c ****                     mtCOVERAGE_TEST_MARKER();
1901:../Dave/Generated/FREERTOS/queue.c ****                 }
1902:../Dave/Generated/FREERTOS/queue.c ****             }
1903:../Dave/Generated/FREERTOS/queue.c ****             else
1904:../Dave/Generated/FREERTOS/queue.c ****             {
1905:../Dave/Generated/FREERTOS/queue.c ****                 /* Increment the lock count so the task that unlocks the queue
1906:../Dave/Generated/FREERTOS/queue.c ****                  * knows that data was removed while it was locked. */
1907:../Dave/Generated/FREERTOS/queue.c ****                 configASSERT( cRxLock != queueINT8_MAX );
 3503              	 .loc 1 1907 0
 3504 00cc 97F92F30 	 ldrsb r3,[r7,#47]
 3505 00d0 7F2B     	 cmp r3,#127
 3506 00d2 09D1     	 bne .L263
 3507              	.LBB237:
 3508              	.LBB238:
 197:C:/Infineon/Tools/DAVE IDE/4.5.0.202105191637/eclipse/workspace/xmc4800-CE/Dave/Generated/FREERTOS/portable/GCC\portmacro.h ****         (
 3509              	 .loc 2 197 0 discriminator 1
 3510              	
 3511 00d4 4FF0FC03 	 mov r3,#252
 3512 00d8 83F31188 	 msr basepri,r3
 3513 00dc BFF36F8F 	 isb 
 3514 00e0 BFF34F8F 	 dsb 
 3515              	
 3516              	
 3517              	 .thumb
 3518 00e4 BB61     	 str r3,[r7,#24]
 3519              	.L264:
 3520              	.LBE238:
 3521              	.LBE237:
 3522              	 .loc 1 1907 0 discriminator 5
 3523 00e6 FEE7     	 b .L264
 3524              	.L263:
1908:../Dave/Generated/FREERTOS/queue.c **** 
1909:../Dave/Generated/FREERTOS/queue.c ****                 pxQueue->cRxLock = ( int8_t ) ( cRxLock + 1 );
 3525              	 .loc 1 1909 0
 3526 00e8 97F82F30 	 ldrb r3,[r7,#47]
 3527 00ec 0133     	 adds r3,r3,#1
 3528 00ee DBB2     	 uxtb r3,r3
 3529 00f0 DAB2     	 uxtb r2,r3
 3530 00f2 BB6B     	 ldr r3,[r7,#56]
 3531 00f4 83F84420 	 strb r2,[r3,#68]
 3532              	.L262:
1910:../Dave/Generated/FREERTOS/queue.c ****             }
1911:../Dave/Generated/FREERTOS/queue.c **** 
1912:../Dave/Generated/FREERTOS/queue.c ****             xReturn = pdPASS;
 3533              	 .loc 1 1912 0
 3534 00f8 0123     	 movs r3,#1
 3535 00fa FB63     	 str r3,[r7,#60]
 3536              	.LBE236:
 3537 00fc 01E0     	 b .L265
 3538              	.L260:
1913:../Dave/Generated/FREERTOS/queue.c ****         }
1914:../Dave/Generated/FREERTOS/queue.c ****         else
1915:../Dave/Generated/FREERTOS/queue.c ****         {
1916:../Dave/Generated/FREERTOS/queue.c ****             xReturn = pdFAIL;
 3539              	 .loc 1 1916 0
 3540 00fe 0023     	 movs r3,#0
 3541 0100 FB63     	 str r3,[r7,#60]
 3542              	.L265:
 3543 0102 7B6B     	 ldr r3,[r7,#52]
 3544 0104 7B61     	 str r3,[r7,#20]
 3545              	.LBE235:
 3546              	.LBB239:
 3547              	.LBB240:
 3548              	 .loc 2 231 0
 3549 0106 7B69     	 ldr r3,[r7,#20]
 3550              	
 3551 0108 83F31188 	 msr basepri,r3
 3552              	
 3553              	 .thumb
 3554              	.LBE240:
 3555              	.LBE239:
1917:../Dave/Generated/FREERTOS/queue.c ****             traceQUEUE_RECEIVE_FROM_ISR_FAILED( pxQueue );
1918:../Dave/Generated/FREERTOS/queue.c ****         }
1919:../Dave/Generated/FREERTOS/queue.c ****     }
1920:../Dave/Generated/FREERTOS/queue.c ****     portCLEAR_INTERRUPT_MASK_FROM_ISR( uxSavedInterruptStatus );
1921:../Dave/Generated/FREERTOS/queue.c **** 
1922:../Dave/Generated/FREERTOS/queue.c ****     return xReturn;
 3556              	 .loc 1 1922 0
 3557 010c FB6B     	 ldr r3,[r7,#60]
1923:../Dave/Generated/FREERTOS/queue.c **** }
 3558              	 .loc 1 1923 0
 3559 010e 1846     	 mov r0,r3
 3560 0110 4037     	 adds r7,r7,#64
 3561              	.LCFI99:
 3562              	 .cfi_def_cfa_offset 8
 3563 0112 BD46     	 mov sp,r7
 3564              	.LCFI100:
 3565              	 .cfi_def_cfa_register 13
 3566              	 
 3567 0114 80BD     	 pop {r7,pc}
 3568              	 .cfi_endproc
 3569              	.LFE156:
 3571 0116 00BF     	 .section .text.xQueuePeekFromISR,"ax",%progbits
 3572              	 .align 2
 3573              	 .global xQueuePeekFromISR
 3574              	 .thumb
 3575              	 .thumb_func
 3577              	xQueuePeekFromISR:
 3578              	.LFB157:
1924:../Dave/Generated/FREERTOS/queue.c **** /*-----------------------------------------------------------*/
1925:../Dave/Generated/FREERTOS/queue.c **** 
1926:../Dave/Generated/FREERTOS/queue.c **** BaseType_t xQueuePeekFromISR( QueueHandle_t xQueue,
1927:../Dave/Generated/FREERTOS/queue.c ****                               void * const pvBuffer )
1928:../Dave/Generated/FREERTOS/queue.c **** {
 3579              	 .loc 1 1928 0
 3580              	 .cfi_startproc
 3581              	 
 3582              	 
 3583 0000 80B5     	 push {r7,lr}
 3584              	.LCFI101:
 3585              	 .cfi_def_cfa_offset 8
 3586              	 .cfi_offset 7,-8
 3587              	 .cfi_offset 14,-4
 3588 0002 8CB0     	 sub sp,sp,#48
 3589              	.LCFI102:
 3590              	 .cfi_def_cfa_offset 56
 3591 0004 00AF     	 add r7,sp,#0
 3592              	.LCFI103:
 3593              	 .cfi_def_cfa_register 7
 3594 0006 7860     	 str r0,[r7,#4]
 3595 0008 3960     	 str r1,[r7]
1929:../Dave/Generated/FREERTOS/queue.c ****     BaseType_t xReturn;
1930:../Dave/Generated/FREERTOS/queue.c ****     UBaseType_t uxSavedInterruptStatus;
1931:../Dave/Generated/FREERTOS/queue.c ****     int8_t * pcOriginalReadPosition;
1932:../Dave/Generated/FREERTOS/queue.c ****     Queue_t * const pxQueue = xQueue;
 3596              	 .loc 1 1932 0
 3597 000a 7B68     	 ldr r3,[r7,#4]
 3598 000c BB62     	 str r3,[r7,#40]
1933:../Dave/Generated/FREERTOS/queue.c **** 
1934:../Dave/Generated/FREERTOS/queue.c ****     configASSERT( pxQueue );
 3599              	 .loc 1 1934 0
 3600 000e BB6A     	 ldr r3,[r7,#40]
 3601 0010 002B     	 cmp r3,#0
 3602 0012 09D1     	 bne .L268
 3603              	.LBB241:
 3604              	.LBB242:
 197:C:/Infineon/Tools/DAVE IDE/4.5.0.202105191637/eclipse/workspace/xmc4800-CE/Dave/Generated/FREERTOS/portable/GCC\portmacro.h ****         (
 3605              	 .loc 2 197 0 discriminator 1
 3606              	
 3607 0014 4FF0FC03 	 mov r3,#252
 3608 0018 83F31188 	 msr basepri,r3
 3609 001c BFF36F8F 	 isb 
 3610 0020 BFF34F8F 	 dsb 
 3611              	
 3612              	
 3613              	 .thumb
 3614 0024 FB61     	 str r3,[r7,#28]
 3615              	.L269:
 3616              	.LBE242:
 3617              	.LBE241:
 3618              	 .loc 1 1934 0 discriminator 1
 3619 0026 FEE7     	 b .L269
 3620              	.L268:
1935:../Dave/Generated/FREERTOS/queue.c ****     configASSERT( !( ( pvBuffer == NULL ) && ( pxQueue->uxItemSize != ( UBaseType_t ) 0U ) ) );
 3621              	 .loc 1 1935 0
 3622 0028 3B68     	 ldr r3,[r7]
 3623 002a 002B     	 cmp r3,#0
 3624 002c 03D1     	 bne .L270
 3625              	 .loc 1 1935 0 is_stmt 0 discriminator 2
 3626 002e BB6A     	 ldr r3,[r7,#40]
 3627 0030 1B6C     	 ldr r3,[r3,#64]
 3628 0032 002B     	 cmp r3,#0
 3629 0034 01D1     	 bne .L271
 3630              	.L270:
 3631              	 .loc 1 1935 0 discriminator 3
 3632 0036 0123     	 movs r3,#1
 3633 0038 00E0     	 b .L272
 3634              	.L271:
 3635              	 .loc 1 1935 0 discriminator 4
 3636 003a 0023     	 movs r3,#0
 3637              	.L272:
 3638              	 .loc 1 1935 0 discriminator 6
 3639 003c 002B     	 cmp r3,#0
 3640 003e 09D1     	 bne .L273
 3641              	.LBB243:
 3642              	.LBB244:
 197:C:/Infineon/Tools/DAVE IDE/4.5.0.202105191637/eclipse/workspace/xmc4800-CE/Dave/Generated/FREERTOS/portable/GCC\portmacro.h ****         (
 3643              	 .loc 2 197 0 is_stmt 1 discriminator 7
 3644              	
 3645 0040 4FF0FC03 	 mov r3,#252
 3646 0044 83F31188 	 msr basepri,r3
 3647 0048 BFF36F8F 	 isb 
 3648 004c BFF34F8F 	 dsb 
 3649              	
 3650              	
 3651              	 .thumb
 3652 0050 BB61     	 str r3,[r7,#24]
 3653              	.L274:
 3654              	.LBE244:
 3655              	.LBE243:
 3656              	 .loc 1 1935 0 discriminator 2
 3657 0052 FEE7     	 b .L274
 3658              	.L273:
1936:../Dave/Generated/FREERTOS/queue.c ****     configASSERT( pxQueue->uxItemSize != 0 ); /* Can't peek a semaphore. */
 3659              	 .loc 1 1936 0
 3660 0054 BB6A     	 ldr r3,[r7,#40]
 3661 0056 1B6C     	 ldr r3,[r3,#64]
 3662 0058 002B     	 cmp r3,#0
 3663 005a 09D1     	 bne .L275
 3664              	.LBB245:
 3665              	.LBB246:
 197:C:/Infineon/Tools/DAVE IDE/4.5.0.202105191637/eclipse/workspace/xmc4800-CE/Dave/Generated/FREERTOS/portable/GCC\portmacro.h ****         (
 3666              	 .loc 2 197 0 discriminator 1
 3667              	
 3668 005c 4FF0FC03 	 mov r3,#252
 3669 0060 83F31188 	 msr basepri,r3
 3670 0064 BFF36F8F 	 isb 
 3671 0068 BFF34F8F 	 dsb 
 3672              	
 3673              	
 3674              	 .thumb
 3675 006c 7B61     	 str r3,[r7,#20]
 3676              	.L276:
 3677              	.LBE246:
 3678              	.LBE245:
 3679              	 .loc 1 1936 0 discriminator 3
 3680 006e FEE7     	 b .L276
 3681              	.L275:
1937:../Dave/Generated/FREERTOS/queue.c **** 
1938:../Dave/Generated/FREERTOS/queue.c ****     /* RTOS ports that support interrupt nesting have the concept of a maximum
1939:../Dave/Generated/FREERTOS/queue.c ****      * system call (or maximum API call) interrupt priority.  Interrupts that are
1940:../Dave/Generated/FREERTOS/queue.c ****      * above the maximum system call priority are kept permanently enabled, even
1941:../Dave/Generated/FREERTOS/queue.c ****      * when the RTOS kernel is in a critical section, but cannot make any calls to
1942:../Dave/Generated/FREERTOS/queue.c ****      * FreeRTOS API functions.  If configASSERT() is defined in FreeRTOSConfig.h
1943:../Dave/Generated/FREERTOS/queue.c ****      * then portASSERT_IF_INTERRUPT_PRIORITY_INVALID() will result in an assertion
1944:../Dave/Generated/FREERTOS/queue.c ****      * failure if a FreeRTOS API function is called from an interrupt that has been
1945:../Dave/Generated/FREERTOS/queue.c ****      * assigned a priority above the configured maximum system call priority.
1946:../Dave/Generated/FREERTOS/queue.c ****      * Only FreeRTOS functions that end in FromISR can be called from interrupts
1947:../Dave/Generated/FREERTOS/queue.c ****      * that have been assigned a priority at or (logically) below the maximum
1948:../Dave/Generated/FREERTOS/queue.c ****      * system call interrupt priority.  FreeRTOS maintains a separate interrupt
1949:../Dave/Generated/FREERTOS/queue.c ****      * safe API to ensure interrupt entry is as fast and as simple as possible.
1950:../Dave/Generated/FREERTOS/queue.c ****      * More information (albeit Cortex-M specific) is provided on the following
1951:../Dave/Generated/FREERTOS/queue.c ****      * link: https://www.FreeRTOS.org/RTOS-Cortex-M3-M4.html */
1952:../Dave/Generated/FREERTOS/queue.c ****     portASSERT_IF_INTERRUPT_PRIORITY_INVALID();
 3682              	 .loc 1 1952 0
 3683 0070 FFF7FEFF 	 bl vPortValidateInterruptPriority
 3684              	.LBB247:
 3685              	.LBB248:
 213:C:/Infineon/Tools/DAVE IDE/4.5.0.202105191637/eclipse/workspace/xmc4800-CE/Dave/Generated/FREERTOS/portable/GCC\portmacro.h ****         (
 3686              	 .loc 2 213 0
 3687              	
 3688 0074 EFF31182 	 mrs r2,basepri
 3689 0078 4FF0FC03 	 mov r3,#252
 3690 007c 83F31188 	 msr basepri,r3
 3691 0080 BFF36F8F 	 isb 
 3692 0084 BFF34F8F 	 dsb 
 3693              	
 3694              	
 3695              	 .thumb
 3696 0088 3A61     	 str r2,[r7,#16]
 3697 008a FB60     	 str r3,[r7,#12]
 225:C:/Infineon/Tools/DAVE IDE/4.5.0.202105191637/eclipse/workspace/xmc4800-CE/Dave/Generated/FREERTOS/portable/GCC\portmacro.h ****     }
 3698              	 .loc 2 225 0
 3699 008c 3B69     	 ldr r3,[r7,#16]
 3700              	.LBE248:
 3701              	.LBE247:
1953:../Dave/Generated/FREERTOS/queue.c **** 
1954:../Dave/Generated/FREERTOS/queue.c ****     uxSavedInterruptStatus = portSET_INTERRUPT_MASK_FROM_ISR();
 3702              	 .loc 1 1954 0
 3703 008e 7B62     	 str r3,[r7,#36]
1955:../Dave/Generated/FREERTOS/queue.c ****     {
1956:../Dave/Generated/FREERTOS/queue.c ****         /* Cannot block in an ISR, so check there is data available. */
1957:../Dave/Generated/FREERTOS/queue.c ****         if( pxQueue->uxMessagesWaiting > ( UBaseType_t ) 0 )
 3704              	 .loc 1 1957 0
 3705 0090 BB6A     	 ldr r3,[r7,#40]
 3706 0092 9B6B     	 ldr r3,[r3,#56]
 3707 0094 002B     	 cmp r3,#0
 3708 0096 0CD0     	 beq .L278
1958:../Dave/Generated/FREERTOS/queue.c ****         {
1959:../Dave/Generated/FREERTOS/queue.c ****             traceQUEUE_PEEK_FROM_ISR( pxQueue );
1960:../Dave/Generated/FREERTOS/queue.c **** 
1961:../Dave/Generated/FREERTOS/queue.c ****             /* Remember the read position so it can be reset as nothing is
1962:../Dave/Generated/FREERTOS/queue.c ****              * actually being removed from the queue. */
1963:../Dave/Generated/FREERTOS/queue.c ****             pcOriginalReadPosition = pxQueue->u.xQueue.pcReadFrom;
 3709              	 .loc 1 1963 0
 3710 0098 BB6A     	 ldr r3,[r7,#40]
 3711 009a DB68     	 ldr r3,[r3,#12]
 3712 009c 3B62     	 str r3,[r7,#32]
1964:../Dave/Generated/FREERTOS/queue.c ****             prvCopyDataFromQueue( pxQueue, pvBuffer );
 3713              	 .loc 1 1964 0
 3714 009e B86A     	 ldr r0,[r7,#40]
 3715 00a0 3968     	 ldr r1,[r7]
 3716 00a2 FFF7FEFF 	 bl prvCopyDataFromQueue
1965:../Dave/Generated/FREERTOS/queue.c ****             pxQueue->u.xQueue.pcReadFrom = pcOriginalReadPosition;
 3717              	 .loc 1 1965 0
 3718 00a6 BB6A     	 ldr r3,[r7,#40]
 3719 00a8 3A6A     	 ldr r2,[r7,#32]
 3720 00aa DA60     	 str r2,[r3,#12]
1966:../Dave/Generated/FREERTOS/queue.c **** 
1967:../Dave/Generated/FREERTOS/queue.c ****             xReturn = pdPASS;
 3721              	 .loc 1 1967 0
 3722 00ac 0123     	 movs r3,#1
 3723 00ae FB62     	 str r3,[r7,#44]
 3724 00b0 01E0     	 b .L279
 3725              	.L278:
1968:../Dave/Generated/FREERTOS/queue.c ****         }
1969:../Dave/Generated/FREERTOS/queue.c ****         else
1970:../Dave/Generated/FREERTOS/queue.c ****         {
1971:../Dave/Generated/FREERTOS/queue.c ****             xReturn = pdFAIL;
 3726              	 .loc 1 1971 0
 3727 00b2 0023     	 movs r3,#0
 3728 00b4 FB62     	 str r3,[r7,#44]
 3729              	.L279:
 3730 00b6 7B6A     	 ldr r3,[r7,#36]
 3731 00b8 BB60     	 str r3,[r7,#8]
 3732              	.LBB249:
 3733              	.LBB250:
 3734              	 .loc 2 231 0
 3735 00ba BB68     	 ldr r3,[r7,#8]
 3736              	
 3737 00bc 83F31188 	 msr basepri,r3
 3738              	
 3739              	 .thumb
 3740              	.LBE250:
 3741              	.LBE249:
1972:../Dave/Generated/FREERTOS/queue.c ****             traceQUEUE_PEEK_FROM_ISR_FAILED( pxQueue );
1973:../Dave/Generated/FREERTOS/queue.c ****         }
1974:../Dave/Generated/FREERTOS/queue.c ****     }
1975:../Dave/Generated/FREERTOS/queue.c ****     portCLEAR_INTERRUPT_MASK_FROM_ISR( uxSavedInterruptStatus );
1976:../Dave/Generated/FREERTOS/queue.c **** 
1977:../Dave/Generated/FREERTOS/queue.c ****     return xReturn;
 3742              	 .loc 1 1977 0
 3743 00c0 FB6A     	 ldr r3,[r7,#44]
1978:../Dave/Generated/FREERTOS/queue.c **** }
 3744              	 .loc 1 1978 0
 3745 00c2 1846     	 mov r0,r3
 3746 00c4 3037     	 adds r7,r7,#48
 3747              	.LCFI104:
 3748              	 .cfi_def_cfa_offset 8
 3749 00c6 BD46     	 mov sp,r7
 3750              	.LCFI105:
 3751              	 .cfi_def_cfa_register 13
 3752              	 
 3753 00c8 80BD     	 pop {r7,pc}
 3754              	 .cfi_endproc
 3755              	.LFE157:
 3757 00ca 00BF     	 .section .text.uxQueueMessagesWaiting,"ax",%progbits
 3758              	 .align 2
 3759              	 .global uxQueueMessagesWaiting
 3760              	 .thumb
 3761              	 .thumb_func
 3763              	uxQueueMessagesWaiting:
 3764              	.LFB158:
1979:../Dave/Generated/FREERTOS/queue.c **** /*-----------------------------------------------------------*/
1980:../Dave/Generated/FREERTOS/queue.c **** 
1981:../Dave/Generated/FREERTOS/queue.c **** UBaseType_t uxQueueMessagesWaiting( const QueueHandle_t xQueue )
1982:../Dave/Generated/FREERTOS/queue.c **** {
 3765              	 .loc 1 1982 0
 3766              	 .cfi_startproc
 3767              	 
 3768              	 
 3769 0000 80B5     	 push {r7,lr}
 3770              	.LCFI106:
 3771              	 .cfi_def_cfa_offset 8
 3772              	 .cfi_offset 7,-8
 3773              	 .cfi_offset 14,-4
 3774 0002 84B0     	 sub sp,sp,#16
 3775              	.LCFI107:
 3776              	 .cfi_def_cfa_offset 24
 3777 0004 00AF     	 add r7,sp,#0
 3778              	.LCFI108:
 3779              	 .cfi_def_cfa_register 7
 3780 0006 7860     	 str r0,[r7,#4]
1983:../Dave/Generated/FREERTOS/queue.c ****     UBaseType_t uxReturn;
1984:../Dave/Generated/FREERTOS/queue.c **** 
1985:../Dave/Generated/FREERTOS/queue.c ****     configASSERT( xQueue );
 3781              	 .loc 1 1985 0
 3782 0008 7B68     	 ldr r3,[r7,#4]
 3783 000a 002B     	 cmp r3,#0
 3784 000c 09D1     	 bne .L282
 3785              	.LBB251:
 3786              	.LBB252:
 197:C:/Infineon/Tools/DAVE IDE/4.5.0.202105191637/eclipse/workspace/xmc4800-CE/Dave/Generated/FREERTOS/portable/GCC\portmacro.h ****         (
 3787              	 .loc 2 197 0 discriminator 1
 3788              	
 3789 000e 4FF0FC03 	 mov r3,#252
 3790 0012 83F31188 	 msr basepri,r3
 3791 0016 BFF36F8F 	 isb 
 3792 001a BFF34F8F 	 dsb 
 3793              	
 3794              	
 3795              	 .thumb
 3796 001e BB60     	 str r3,[r7,#8]
 3797              	.L283:
 3798              	.LBE252:
 3799              	.LBE251:
 3800              	 .loc 1 1985 0 discriminator 1
 3801 0020 FEE7     	 b .L283
 3802              	.L282:
1986:../Dave/Generated/FREERTOS/queue.c **** 
1987:../Dave/Generated/FREERTOS/queue.c ****     taskENTER_CRITICAL();
 3803              	 .loc 1 1987 0
 3804 0022 FFF7FEFF 	 bl vPortEnterCritical
1988:../Dave/Generated/FREERTOS/queue.c ****     {
1989:../Dave/Generated/FREERTOS/queue.c ****         uxReturn = ( ( Queue_t * ) xQueue )->uxMessagesWaiting;
 3805              	 .loc 1 1989 0
 3806 0026 7B68     	 ldr r3,[r7,#4]
 3807 0028 9B6B     	 ldr r3,[r3,#56]
 3808 002a FB60     	 str r3,[r7,#12]
1990:../Dave/Generated/FREERTOS/queue.c ****     }
1991:../Dave/Generated/FREERTOS/queue.c ****     taskEXIT_CRITICAL();
 3809              	 .loc 1 1991 0
 3810 002c FFF7FEFF 	 bl vPortExitCritical
1992:../Dave/Generated/FREERTOS/queue.c **** 
1993:../Dave/Generated/FREERTOS/queue.c ****     return uxReturn;
 3811              	 .loc 1 1993 0
 3812 0030 FB68     	 ldr r3,[r7,#12]
1994:../Dave/Generated/FREERTOS/queue.c **** } /*lint !e818 Pointer cannot be declared const as xQueue is a typedef not pointer. */
 3813              	 .loc 1 1994 0
 3814 0032 1846     	 mov r0,r3
 3815 0034 1037     	 adds r7,r7,#16
 3816              	.LCFI109:
 3817              	 .cfi_def_cfa_offset 8
 3818 0036 BD46     	 mov sp,r7
 3819              	.LCFI110:
 3820              	 .cfi_def_cfa_register 13
 3821              	 
 3822 0038 80BD     	 pop {r7,pc}
 3823              	 .cfi_endproc
 3824              	.LFE158:
 3826 003a 00BF     	 .section .text.uxQueueSpacesAvailable,"ax",%progbits
 3827              	 .align 2
 3828              	 .global uxQueueSpacesAvailable
 3829              	 .thumb
 3830              	 .thumb_func
 3832              	uxQueueSpacesAvailable:
 3833              	.LFB159:
1995:../Dave/Generated/FREERTOS/queue.c **** /*-----------------------------------------------------------*/
1996:../Dave/Generated/FREERTOS/queue.c **** 
1997:../Dave/Generated/FREERTOS/queue.c **** UBaseType_t uxQueueSpacesAvailable( const QueueHandle_t xQueue )
1998:../Dave/Generated/FREERTOS/queue.c **** {
 3834              	 .loc 1 1998 0
 3835              	 .cfi_startproc
 3836              	 
 3837              	 
 3838 0000 80B5     	 push {r7,lr}
 3839              	.LCFI111:
 3840              	 .cfi_def_cfa_offset 8
 3841              	 .cfi_offset 7,-8
 3842              	 .cfi_offset 14,-4
 3843 0002 86B0     	 sub sp,sp,#24
 3844              	.LCFI112:
 3845              	 .cfi_def_cfa_offset 32
 3846 0004 00AF     	 add r7,sp,#0
 3847              	.LCFI113:
 3848              	 .cfi_def_cfa_register 7
 3849 0006 7860     	 str r0,[r7,#4]
1999:../Dave/Generated/FREERTOS/queue.c ****     UBaseType_t uxReturn;
2000:../Dave/Generated/FREERTOS/queue.c ****     Queue_t * const pxQueue = xQueue;
 3850              	 .loc 1 2000 0
 3851 0008 7B68     	 ldr r3,[r7,#4]
 3852 000a 7B61     	 str r3,[r7,#20]
2001:../Dave/Generated/FREERTOS/queue.c **** 
2002:../Dave/Generated/FREERTOS/queue.c ****     configASSERT( pxQueue );
 3853              	 .loc 1 2002 0
 3854 000c 7B69     	 ldr r3,[r7,#20]
 3855 000e 002B     	 cmp r3,#0
 3856 0010 09D1     	 bne .L286
 3857              	.LBB253:
 3858              	.LBB254:
 197:C:/Infineon/Tools/DAVE IDE/4.5.0.202105191637/eclipse/workspace/xmc4800-CE/Dave/Generated/FREERTOS/portable/GCC\portmacro.h ****         (
 3859              	 .loc 2 197 0 discriminator 1
 3860              	
 3861 0012 4FF0FC03 	 mov r3,#252
 3862 0016 83F31188 	 msr basepri,r3
 3863 001a BFF36F8F 	 isb 
 3864 001e BFF34F8F 	 dsb 
 3865              	
 3866              	
 3867              	 .thumb
 3868 0022 FB60     	 str r3,[r7,#12]
 3869              	.L287:
 3870              	.LBE254:
 3871              	.LBE253:
 3872              	 .loc 1 2002 0 discriminator 1
 3873 0024 FEE7     	 b .L287
 3874              	.L286:
2003:../Dave/Generated/FREERTOS/queue.c **** 
2004:../Dave/Generated/FREERTOS/queue.c ****     taskENTER_CRITICAL();
 3875              	 .loc 1 2004 0
 3876 0026 FFF7FEFF 	 bl vPortEnterCritical
2005:../Dave/Generated/FREERTOS/queue.c ****     {
2006:../Dave/Generated/FREERTOS/queue.c ****         uxReturn = pxQueue->uxLength - pxQueue->uxMessagesWaiting;
 3877              	 .loc 1 2006 0
 3878 002a 7B69     	 ldr r3,[r7,#20]
 3879 002c DA6B     	 ldr r2,[r3,#60]
 3880 002e 7B69     	 ldr r3,[r7,#20]
 3881 0030 9B6B     	 ldr r3,[r3,#56]
 3882 0032 D31A     	 subs r3,r2,r3
 3883 0034 3B61     	 str r3,[r7,#16]
2007:../Dave/Generated/FREERTOS/queue.c ****     }
2008:../Dave/Generated/FREERTOS/queue.c ****     taskEXIT_CRITICAL();
 3884              	 .loc 1 2008 0
 3885 0036 FFF7FEFF 	 bl vPortExitCritical
2009:../Dave/Generated/FREERTOS/queue.c **** 
2010:../Dave/Generated/FREERTOS/queue.c ****     return uxReturn;
 3886              	 .loc 1 2010 0
 3887 003a 3B69     	 ldr r3,[r7,#16]
2011:../Dave/Generated/FREERTOS/queue.c **** } /*lint !e818 Pointer cannot be declared const as xQueue is a typedef not pointer. */
 3888              	 .loc 1 2011 0
 3889 003c 1846     	 mov r0,r3
 3890 003e 1837     	 adds r7,r7,#24
 3891              	.LCFI114:
 3892              	 .cfi_def_cfa_offset 8
 3893 0040 BD46     	 mov sp,r7
 3894              	.LCFI115:
 3895              	 .cfi_def_cfa_register 13
 3896              	 
 3897 0042 80BD     	 pop {r7,pc}
 3898              	 .cfi_endproc
 3899              	.LFE159:
 3901              	 .section .text.uxQueueMessagesWaitingFromISR,"ax",%progbits
 3902              	 .align 2
 3903              	 .global uxQueueMessagesWaitingFromISR
 3904              	 .thumb
 3905              	 .thumb_func
 3907              	uxQueueMessagesWaitingFromISR:
 3908              	.LFB160:
2012:../Dave/Generated/FREERTOS/queue.c **** /*-----------------------------------------------------------*/
2013:../Dave/Generated/FREERTOS/queue.c **** 
2014:../Dave/Generated/FREERTOS/queue.c **** UBaseType_t uxQueueMessagesWaitingFromISR( const QueueHandle_t xQueue )
2015:../Dave/Generated/FREERTOS/queue.c **** {
 3909              	 .loc 1 2015 0
 3910              	 .cfi_startproc
 3911              	 
 3912              	 
 3913              	 
 3914 0000 80B4     	 push {r7}
 3915              	.LCFI116:
 3916              	 .cfi_def_cfa_offset 4
 3917              	 .cfi_offset 7,-4
 3918 0002 87B0     	 sub sp,sp,#28
 3919              	.LCFI117:
 3920              	 .cfi_def_cfa_offset 32
 3921 0004 00AF     	 add r7,sp,#0
 3922              	.LCFI118:
 3923              	 .cfi_def_cfa_register 7
 3924 0006 7860     	 str r0,[r7,#4]
2016:../Dave/Generated/FREERTOS/queue.c ****     UBaseType_t uxReturn;
2017:../Dave/Generated/FREERTOS/queue.c ****     Queue_t * const pxQueue = xQueue;
 3925              	 .loc 1 2017 0
 3926 0008 7B68     	 ldr r3,[r7,#4]
 3927 000a 7B61     	 str r3,[r7,#20]
2018:../Dave/Generated/FREERTOS/queue.c **** 
2019:../Dave/Generated/FREERTOS/queue.c ****     configASSERT( pxQueue );
 3928              	 .loc 1 2019 0
 3929 000c 7B69     	 ldr r3,[r7,#20]
 3930 000e 002B     	 cmp r3,#0
 3931 0010 09D1     	 bne .L290
 3932              	.LBB255:
 3933              	.LBB256:
 197:C:/Infineon/Tools/DAVE IDE/4.5.0.202105191637/eclipse/workspace/xmc4800-CE/Dave/Generated/FREERTOS/portable/GCC\portmacro.h ****         (
 3934              	 .loc 2 197 0 discriminator 1
 3935              	
 3936 0012 4FF0FC03 	 mov r3,#252
 3937 0016 83F31188 	 msr basepri,r3
 3938 001a BFF36F8F 	 isb 
 3939 001e BFF34F8F 	 dsb 
 3940              	
 3941              	
 3942              	 .thumb
 3943 0022 FB60     	 str r3,[r7,#12]
 3944              	.L291:
 3945              	.LBE256:
 3946              	.LBE255:
 3947              	 .loc 1 2019 0 discriminator 1
 3948 0024 FEE7     	 b .L291
 3949              	.L290:
2020:../Dave/Generated/FREERTOS/queue.c ****     uxReturn = pxQueue->uxMessagesWaiting;
 3950              	 .loc 1 2020 0
 3951 0026 7B69     	 ldr r3,[r7,#20]
 3952 0028 9B6B     	 ldr r3,[r3,#56]
 3953 002a 3B61     	 str r3,[r7,#16]
2021:../Dave/Generated/FREERTOS/queue.c **** 
2022:../Dave/Generated/FREERTOS/queue.c ****     return uxReturn;
 3954              	 .loc 1 2022 0
 3955 002c 3B69     	 ldr r3,[r7,#16]
2023:../Dave/Generated/FREERTOS/queue.c **** } /*lint !e818 Pointer cannot be declared const as xQueue is a typedef not pointer. */
 3956              	 .loc 1 2023 0
 3957 002e 1846     	 mov r0,r3
 3958 0030 1C37     	 adds r7,r7,#28
 3959              	.LCFI119:
 3960              	 .cfi_def_cfa_offset 4
 3961 0032 BD46     	 mov sp,r7
 3962              	.LCFI120:
 3963              	 .cfi_def_cfa_register 13
 3964              	 
 3965 0034 5DF8047B 	 ldr r7,[sp],#4
 3966              	.LCFI121:
 3967              	 .cfi_restore 7
 3968              	 .cfi_def_cfa_offset 0
 3969 0038 7047     	 bx lr
 3970              	 .cfi_endproc
 3971              	.LFE160:
 3973 003a 00BF     	 .section .text.vQueueDelete,"ax",%progbits
 3974              	 .align 2
 3975              	 .global vQueueDelete
 3976              	 .thumb
 3977              	 .thumb_func
 3979              	vQueueDelete:
 3980              	.LFB161:
2024:../Dave/Generated/FREERTOS/queue.c **** /*-----------------------------------------------------------*/
2025:../Dave/Generated/FREERTOS/queue.c **** 
2026:../Dave/Generated/FREERTOS/queue.c **** void vQueueDelete( QueueHandle_t xQueue )
2027:../Dave/Generated/FREERTOS/queue.c **** {
 3981              	 .loc 1 2027 0
 3982              	 .cfi_startproc
 3983              	 
 3984              	 
 3985 0000 80B5     	 push {r7,lr}
 3986              	.LCFI122:
 3987              	 .cfi_def_cfa_offset 8
 3988              	 .cfi_offset 7,-8
 3989              	 .cfi_offset 14,-4
 3990 0002 84B0     	 sub sp,sp,#16
 3991              	.LCFI123:
 3992              	 .cfi_def_cfa_offset 24
 3993 0004 00AF     	 add r7,sp,#0
 3994              	.LCFI124:
 3995              	 .cfi_def_cfa_register 7
 3996 0006 7860     	 str r0,[r7,#4]
2028:../Dave/Generated/FREERTOS/queue.c ****     Queue_t * const pxQueue = xQueue;
 3997              	 .loc 1 2028 0
 3998 0008 7B68     	 ldr r3,[r7,#4]
 3999 000a FB60     	 str r3,[r7,#12]
2029:../Dave/Generated/FREERTOS/queue.c **** 
2030:../Dave/Generated/FREERTOS/queue.c ****     configASSERT( pxQueue );
 4000              	 .loc 1 2030 0
 4001 000c FB68     	 ldr r3,[r7,#12]
 4002 000e 002B     	 cmp r3,#0
 4003 0010 09D1     	 bne .L294
 4004              	.LBB257:
 4005              	.LBB258:
 197:C:/Infineon/Tools/DAVE IDE/4.5.0.202105191637/eclipse/workspace/xmc4800-CE/Dave/Generated/FREERTOS/portable/GCC\portmacro.h ****         (
 4006              	 .loc 2 197 0 discriminator 1
 4007              	
 4008 0012 4FF0FC03 	 mov r3,#252
 4009 0016 83F31188 	 msr basepri,r3
 4010 001a BFF36F8F 	 isb 
 4011 001e BFF34F8F 	 dsb 
 4012              	
 4013              	
 4014              	 .thumb
 4015 0022 BB60     	 str r3,[r7,#8]
 4016              	.L295:
 4017              	.LBE258:
 4018              	.LBE257:
 4019              	 .loc 1 2030 0 discriminator 1
 4020 0024 FEE7     	 b .L295
 4021              	.L294:
2031:../Dave/Generated/FREERTOS/queue.c ****     traceQUEUE_DELETE( pxQueue );
2032:../Dave/Generated/FREERTOS/queue.c **** 
2033:../Dave/Generated/FREERTOS/queue.c ****     #if ( configQUEUE_REGISTRY_SIZE > 0 )
2034:../Dave/Generated/FREERTOS/queue.c ****         {
2035:../Dave/Generated/FREERTOS/queue.c ****             vQueueUnregisterQueue( pxQueue );
 4022              	 .loc 1 2035 0
 4023 0026 F868     	 ldr r0,[r7,#12]
 4024 0028 FFF7FEFF 	 bl vQueueUnregisterQueue
2036:../Dave/Generated/FREERTOS/queue.c ****         }
2037:../Dave/Generated/FREERTOS/queue.c ****     #endif
2038:../Dave/Generated/FREERTOS/queue.c **** 
2039:../Dave/Generated/FREERTOS/queue.c ****     #if ( ( configSUPPORT_DYNAMIC_ALLOCATION == 1 ) && ( configSUPPORT_STATIC_ALLOCATION == 0 ) )
2040:../Dave/Generated/FREERTOS/queue.c ****         {
2041:../Dave/Generated/FREERTOS/queue.c ****             /* The queue can only have been allocated dynamically - free it
2042:../Dave/Generated/FREERTOS/queue.c ****              * again. */
2043:../Dave/Generated/FREERTOS/queue.c ****             vPortFree( pxQueue );
2044:../Dave/Generated/FREERTOS/queue.c ****         }
2045:../Dave/Generated/FREERTOS/queue.c ****     #elif ( ( configSUPPORT_DYNAMIC_ALLOCATION == 1 ) && ( configSUPPORT_STATIC_ALLOCATION == 1 ) )
2046:../Dave/Generated/FREERTOS/queue.c ****         {
2047:../Dave/Generated/FREERTOS/queue.c ****             /* The queue could have been allocated statically or dynamically, so
2048:../Dave/Generated/FREERTOS/queue.c ****              * check before attempting to free the memory. */
2049:../Dave/Generated/FREERTOS/queue.c ****             if( pxQueue->ucStaticallyAllocated == ( uint8_t ) pdFALSE )
 4025              	 .loc 1 2049 0
 4026 002c FB68     	 ldr r3,[r7,#12]
 4027 002e 93F84630 	 ldrb r3,[r3,#70]
 4028 0032 002B     	 cmp r3,#0
 4029 0034 02D1     	 bne .L293
2050:../Dave/Generated/FREERTOS/queue.c ****             {
2051:../Dave/Generated/FREERTOS/queue.c ****                 vPortFree( pxQueue );
 4030              	 .loc 1 2051 0
 4031 0036 F868     	 ldr r0,[r7,#12]
 4032 0038 FFF7FEFF 	 bl vPortFree
 4033              	.L293:
2052:../Dave/Generated/FREERTOS/queue.c ****             }
2053:../Dave/Generated/FREERTOS/queue.c ****             else
2054:../Dave/Generated/FREERTOS/queue.c ****             {
2055:../Dave/Generated/FREERTOS/queue.c ****                 mtCOVERAGE_TEST_MARKER();
2056:../Dave/Generated/FREERTOS/queue.c ****             }
2057:../Dave/Generated/FREERTOS/queue.c ****         }
2058:../Dave/Generated/FREERTOS/queue.c ****     #else /* if ( ( configSUPPORT_DYNAMIC_ALLOCATION == 1 ) && ( configSUPPORT_STATIC_ALLOCATION ==
2059:../Dave/Generated/FREERTOS/queue.c ****         {
2060:../Dave/Generated/FREERTOS/queue.c ****             /* The queue must have been statically allocated, so is not going to be
2061:../Dave/Generated/FREERTOS/queue.c ****              * deleted.  Avoid compiler warnings about the unused parameter. */
2062:../Dave/Generated/FREERTOS/queue.c ****             ( void ) pxQueue;
2063:../Dave/Generated/FREERTOS/queue.c ****         }
2064:../Dave/Generated/FREERTOS/queue.c ****     #endif /* configSUPPORT_DYNAMIC_ALLOCATION */
2065:../Dave/Generated/FREERTOS/queue.c **** }
 4034              	 .loc 1 2065 0
 4035 003c 1037     	 adds r7,r7,#16
 4036              	.LCFI125:
 4037              	 .cfi_def_cfa_offset 8
 4038 003e BD46     	 mov sp,r7
 4039              	.LCFI126:
 4040              	 .cfi_def_cfa_register 13
 4041              	 
 4042 0040 80BD     	 pop {r7,pc}
 4043              	 .cfi_endproc
 4044              	.LFE161:
 4046 0042 00BF     	 .section .text.uxQueueGetQueueNumber,"ax",%progbits
 4047              	 .align 2
 4048              	 .global uxQueueGetQueueNumber
 4049              	 .thumb
 4050              	 .thumb_func
 4052              	uxQueueGetQueueNumber:
 4053              	.LFB162:
2066:../Dave/Generated/FREERTOS/queue.c **** /*-----------------------------------------------------------*/
2067:../Dave/Generated/FREERTOS/queue.c **** 
2068:../Dave/Generated/FREERTOS/queue.c **** #if ( configUSE_TRACE_FACILITY == 1 )
2069:../Dave/Generated/FREERTOS/queue.c **** 
2070:../Dave/Generated/FREERTOS/queue.c ****     UBaseType_t uxQueueGetQueueNumber( QueueHandle_t xQueue )
2071:../Dave/Generated/FREERTOS/queue.c ****     {
 4054              	 .loc 1 2071 0
 4055              	 .cfi_startproc
 4056              	 
 4057              	 
 4058              	 
 4059 0000 80B4     	 push {r7}
 4060              	.LCFI127:
 4061              	 .cfi_def_cfa_offset 4
 4062              	 .cfi_offset 7,-4
 4063 0002 83B0     	 sub sp,sp,#12
 4064              	.LCFI128:
 4065              	 .cfi_def_cfa_offset 16
 4066 0004 00AF     	 add r7,sp,#0
 4067              	.LCFI129:
 4068              	 .cfi_def_cfa_register 7
 4069 0006 7860     	 str r0,[r7,#4]
2072:../Dave/Generated/FREERTOS/queue.c ****         return ( ( Queue_t * ) xQueue )->uxQueueNumber;
 4070              	 .loc 1 2072 0
 4071 0008 7B68     	 ldr r3,[r7,#4]
 4072 000a DB6C     	 ldr r3,[r3,#76]
2073:../Dave/Generated/FREERTOS/queue.c ****     }
 4073              	 .loc 1 2073 0
 4074 000c 1846     	 mov r0,r3
 4075 000e 0C37     	 adds r7,r7,#12
 4076              	.LCFI130:
 4077              	 .cfi_def_cfa_offset 4
 4078 0010 BD46     	 mov sp,r7
 4079              	.LCFI131:
 4080              	 .cfi_def_cfa_register 13
 4081              	 
 4082 0012 5DF8047B 	 ldr r7,[sp],#4
 4083              	.LCFI132:
 4084              	 .cfi_restore 7
 4085              	 .cfi_def_cfa_offset 0
 4086 0016 7047     	 bx lr
 4087              	 .cfi_endproc
 4088              	.LFE162:
 4090              	 .section .text.vQueueSetQueueNumber,"ax",%progbits
 4091              	 .align 2
 4092              	 .global vQueueSetQueueNumber
 4093              	 .thumb
 4094              	 .thumb_func
 4096              	vQueueSetQueueNumber:
 4097              	.LFB163:
2074:../Dave/Generated/FREERTOS/queue.c **** 
2075:../Dave/Generated/FREERTOS/queue.c **** #endif /* configUSE_TRACE_FACILITY */
2076:../Dave/Generated/FREERTOS/queue.c **** /*-----------------------------------------------------------*/
2077:../Dave/Generated/FREERTOS/queue.c **** 
2078:../Dave/Generated/FREERTOS/queue.c **** #if ( configUSE_TRACE_FACILITY == 1 )
2079:../Dave/Generated/FREERTOS/queue.c **** 
2080:../Dave/Generated/FREERTOS/queue.c ****     void vQueueSetQueueNumber( QueueHandle_t xQueue,
2081:../Dave/Generated/FREERTOS/queue.c ****                                UBaseType_t uxQueueNumber )
2082:../Dave/Generated/FREERTOS/queue.c ****     {
 4098              	 .loc 1 2082 0
 4099              	 .cfi_startproc
 4100              	 
 4101              	 
 4102              	 
 4103 0000 80B4     	 push {r7}
 4104              	.LCFI133:
 4105              	 .cfi_def_cfa_offset 4
 4106              	 .cfi_offset 7,-4
 4107 0002 83B0     	 sub sp,sp,#12
 4108              	.LCFI134:
 4109              	 .cfi_def_cfa_offset 16
 4110 0004 00AF     	 add r7,sp,#0
 4111              	.LCFI135:
 4112              	 .cfi_def_cfa_register 7
 4113 0006 7860     	 str r0,[r7,#4]
 4114 0008 3960     	 str r1,[r7]
2083:../Dave/Generated/FREERTOS/queue.c ****         ( ( Queue_t * ) xQueue )->uxQueueNumber = uxQueueNumber;
 4115              	 .loc 1 2083 0
 4116 000a 7B68     	 ldr r3,[r7,#4]
 4117 000c 3A68     	 ldr r2,[r7]
 4118 000e DA64     	 str r2,[r3,#76]
2084:../Dave/Generated/FREERTOS/queue.c ****     }
 4119              	 .loc 1 2084 0
 4120 0010 0C37     	 adds r7,r7,#12
 4121              	.LCFI136:
 4122              	 .cfi_def_cfa_offset 4
 4123 0012 BD46     	 mov sp,r7
 4124              	.LCFI137:
 4125              	 .cfi_def_cfa_register 13
 4126              	 
 4127 0014 5DF8047B 	 ldr r7,[sp],#4
 4128              	.LCFI138:
 4129              	 .cfi_restore 7
 4130              	 .cfi_def_cfa_offset 0
 4131 0018 7047     	 bx lr
 4132              	 .cfi_endproc
 4133              	.LFE163:
 4135 001a 00BF     	 .section .text.ucQueueGetQueueType,"ax",%progbits
 4136              	 .align 2
 4137              	 .global ucQueueGetQueueType
 4138              	 .thumb
 4139              	 .thumb_func
 4141              	ucQueueGetQueueType:
 4142              	.LFB164:
2085:../Dave/Generated/FREERTOS/queue.c **** 
2086:../Dave/Generated/FREERTOS/queue.c **** #endif /* configUSE_TRACE_FACILITY */
2087:../Dave/Generated/FREERTOS/queue.c **** /*-----------------------------------------------------------*/
2088:../Dave/Generated/FREERTOS/queue.c **** 
2089:../Dave/Generated/FREERTOS/queue.c **** #if ( configUSE_TRACE_FACILITY == 1 )
2090:../Dave/Generated/FREERTOS/queue.c **** 
2091:../Dave/Generated/FREERTOS/queue.c ****     uint8_t ucQueueGetQueueType( QueueHandle_t xQueue )
2092:../Dave/Generated/FREERTOS/queue.c ****     {
 4143              	 .loc 1 2092 0
 4144              	 .cfi_startproc
 4145              	 
 4146              	 
 4147              	 
 4148 0000 80B4     	 push {r7}
 4149              	.LCFI139:
 4150              	 .cfi_def_cfa_offset 4
 4151              	 .cfi_offset 7,-4
 4152 0002 83B0     	 sub sp,sp,#12
 4153              	.LCFI140:
 4154              	 .cfi_def_cfa_offset 16
 4155 0004 00AF     	 add r7,sp,#0
 4156              	.LCFI141:
 4157              	 .cfi_def_cfa_register 7
 4158 0006 7860     	 str r0,[r7,#4]
2093:../Dave/Generated/FREERTOS/queue.c ****         return ( ( Queue_t * ) xQueue )->ucQueueType;
 4159              	 .loc 1 2093 0
 4160 0008 7B68     	 ldr r3,[r7,#4]
 4161 000a 93F85030 	 ldrb r3,[r3,#80]
2094:../Dave/Generated/FREERTOS/queue.c ****     }
 4162              	 .loc 1 2094 0
 4163 000e 1846     	 mov r0,r3
 4164 0010 0C37     	 adds r7,r7,#12
 4165              	.LCFI142:
 4166              	 .cfi_def_cfa_offset 4
 4167 0012 BD46     	 mov sp,r7
 4168              	.LCFI143:
 4169              	 .cfi_def_cfa_register 13
 4170              	 
 4171 0014 5DF8047B 	 ldr r7,[sp],#4
 4172              	.LCFI144:
 4173              	 .cfi_restore 7
 4174              	 .cfi_def_cfa_offset 0
 4175 0018 7047     	 bx lr
 4176              	 .cfi_endproc
 4177              	.LFE164:
 4179 001a 00BF     	 .section .text.prvGetDisinheritPriorityAfterTimeout,"ax",%progbits
 4180              	 .align 2
 4181              	 .thumb
 4182              	 .thumb_func
 4184              	prvGetDisinheritPriorityAfterTimeout:
 4185              	.LFB165:
2095:../Dave/Generated/FREERTOS/queue.c **** 
2096:../Dave/Generated/FREERTOS/queue.c **** #endif /* configUSE_TRACE_FACILITY */
2097:../Dave/Generated/FREERTOS/queue.c **** /*-----------------------------------------------------------*/
2098:../Dave/Generated/FREERTOS/queue.c **** 
2099:../Dave/Generated/FREERTOS/queue.c **** #if ( configUSE_MUTEXES == 1 )
2100:../Dave/Generated/FREERTOS/queue.c **** 
2101:../Dave/Generated/FREERTOS/queue.c ****     static UBaseType_t prvGetDisinheritPriorityAfterTimeout( const Queue_t * const pxQueue )
2102:../Dave/Generated/FREERTOS/queue.c ****     {
 4186              	 .loc 1 2102 0
 4187              	 .cfi_startproc
 4188              	 
 4189              	 
 4190              	 
 4191 0000 80B4     	 push {r7}
 4192              	.LCFI145:
 4193              	 .cfi_def_cfa_offset 4
 4194              	 .cfi_offset 7,-4
 4195 0002 85B0     	 sub sp,sp,#20
 4196              	.LCFI146:
 4197              	 .cfi_def_cfa_offset 24
 4198 0004 00AF     	 add r7,sp,#0
 4199              	.LCFI147:
 4200              	 .cfi_def_cfa_register 7
 4201 0006 7860     	 str r0,[r7,#4]
2103:../Dave/Generated/FREERTOS/queue.c ****         UBaseType_t uxHighestPriorityOfWaitingTasks;
2104:../Dave/Generated/FREERTOS/queue.c **** 
2105:../Dave/Generated/FREERTOS/queue.c ****         /* If a task waiting for a mutex causes the mutex holder to inherit a
2106:../Dave/Generated/FREERTOS/queue.c ****          * priority, but the waiting task times out, then the holder should
2107:../Dave/Generated/FREERTOS/queue.c ****          * disinherit the priority - but only down to the highest priority of any
2108:../Dave/Generated/FREERTOS/queue.c ****          * other tasks that are waiting for the same mutex.  For this purpose,
2109:../Dave/Generated/FREERTOS/queue.c ****          * return the priority of the highest priority task that is waiting for the
2110:../Dave/Generated/FREERTOS/queue.c ****          * mutex. */
2111:../Dave/Generated/FREERTOS/queue.c ****         if( listCURRENT_LIST_LENGTH( &( pxQueue->xTasksWaitingToReceive ) ) > 0U )
 4202              	 .loc 1 2111 0
 4203 0008 7B68     	 ldr r3,[r7,#4]
 4204 000a 5B6A     	 ldr r3,[r3,#36]
 4205 000c 002B     	 cmp r3,#0
 4206 000e 06D0     	 beq .L303
2112:../Dave/Generated/FREERTOS/queue.c ****         {
2113:../Dave/Generated/FREERTOS/queue.c ****             uxHighestPriorityOfWaitingTasks = ( UBaseType_t ) configMAX_PRIORITIES - ( UBaseType_t 
 4207              	 .loc 1 2113 0
 4208 0010 7B68     	 ldr r3,[r7,#4]
 4209 0012 1B6B     	 ldr r3,[r3,#48]
 4210 0014 1B68     	 ldr r3,[r3]
 4211 0016 C3F13803 	 rsb r3,r3,#56
 4212 001a FB60     	 str r3,[r7,#12]
 4213 001c 01E0     	 b .L304
 4214              	.L303:
2114:../Dave/Generated/FREERTOS/queue.c ****         }
2115:../Dave/Generated/FREERTOS/queue.c ****         else
2116:../Dave/Generated/FREERTOS/queue.c ****         {
2117:../Dave/Generated/FREERTOS/queue.c ****             uxHighestPriorityOfWaitingTasks = tskIDLE_PRIORITY;
 4215              	 .loc 1 2117 0
 4216 001e 0023     	 movs r3,#0
 4217 0020 FB60     	 str r3,[r7,#12]
 4218              	.L304:
2118:../Dave/Generated/FREERTOS/queue.c ****         }
2119:../Dave/Generated/FREERTOS/queue.c **** 
2120:../Dave/Generated/FREERTOS/queue.c ****         return uxHighestPriorityOfWaitingTasks;
 4219              	 .loc 1 2120 0
 4220 0022 FB68     	 ldr r3,[r7,#12]
2121:../Dave/Generated/FREERTOS/queue.c ****     }
 4221              	 .loc 1 2121 0
 4222 0024 1846     	 mov r0,r3
 4223 0026 1437     	 adds r7,r7,#20
 4224              	.LCFI148:
 4225              	 .cfi_def_cfa_offset 4
 4226 0028 BD46     	 mov sp,r7
 4227              	.LCFI149:
 4228              	 .cfi_def_cfa_register 13
 4229              	 
 4230 002a 5DF8047B 	 ldr r7,[sp],#4
 4231              	.LCFI150:
 4232              	 .cfi_restore 7
 4233              	 .cfi_def_cfa_offset 0
 4234 002e 7047     	 bx lr
 4235              	 .cfi_endproc
 4236              	.LFE165:
 4238              	 .section .text.prvCopyDataToQueue,"ax",%progbits
 4239              	 .align 2
 4240              	 .thumb
 4241              	 .thumb_func
 4243              	prvCopyDataToQueue:
 4244              	.LFB166:
2122:../Dave/Generated/FREERTOS/queue.c **** 
2123:../Dave/Generated/FREERTOS/queue.c **** #endif /* configUSE_MUTEXES */
2124:../Dave/Generated/FREERTOS/queue.c **** /*-----------------------------------------------------------*/
2125:../Dave/Generated/FREERTOS/queue.c **** 
2126:../Dave/Generated/FREERTOS/queue.c **** static BaseType_t prvCopyDataToQueue( Queue_t * const pxQueue,
2127:../Dave/Generated/FREERTOS/queue.c ****                                       const void * pvItemToQueue,
2128:../Dave/Generated/FREERTOS/queue.c ****                                       const BaseType_t xPosition )
2129:../Dave/Generated/FREERTOS/queue.c **** {
 4245              	 .loc 1 2129 0
 4246              	 .cfi_startproc
 4247              	 
 4248              	 
 4249 0000 80B5     	 push {r7,lr}
 4250              	.LCFI151:
 4251              	 .cfi_def_cfa_offset 8
 4252              	 .cfi_offset 7,-8
 4253              	 .cfi_offset 14,-4
 4254 0002 86B0     	 sub sp,sp,#24
 4255              	.LCFI152:
 4256              	 .cfi_def_cfa_offset 32
 4257 0004 00AF     	 add r7,sp,#0
 4258              	.LCFI153:
 4259              	 .cfi_def_cfa_register 7
 4260 0006 F860     	 str r0,[r7,#12]
 4261 0008 B960     	 str r1,[r7,#8]
 4262 000a 7A60     	 str r2,[r7,#4]
2130:../Dave/Generated/FREERTOS/queue.c ****     BaseType_t xReturn = pdFALSE;
 4263              	 .loc 1 2130 0
 4264 000c 0023     	 movs r3,#0
 4265 000e 7B61     	 str r3,[r7,#20]
2131:../Dave/Generated/FREERTOS/queue.c ****     UBaseType_t uxMessagesWaiting;
2132:../Dave/Generated/FREERTOS/queue.c **** 
2133:../Dave/Generated/FREERTOS/queue.c ****     /* This function is called from a critical section. */
2134:../Dave/Generated/FREERTOS/queue.c **** 
2135:../Dave/Generated/FREERTOS/queue.c ****     uxMessagesWaiting = pxQueue->uxMessagesWaiting;
 4266              	 .loc 1 2135 0
 4267 0010 FB68     	 ldr r3,[r7,#12]
 4268 0012 9B6B     	 ldr r3,[r3,#56]
 4269 0014 3B61     	 str r3,[r7,#16]
2136:../Dave/Generated/FREERTOS/queue.c **** 
2137:../Dave/Generated/FREERTOS/queue.c ****     if( pxQueue->uxItemSize == ( UBaseType_t ) 0 )
 4270              	 .loc 1 2137 0
 4271 0016 FB68     	 ldr r3,[r7,#12]
 4272 0018 1B6C     	 ldr r3,[r3,#64]
 4273 001a 002B     	 cmp r3,#0
 4274 001c 0DD1     	 bne .L307
2138:../Dave/Generated/FREERTOS/queue.c ****     {
2139:../Dave/Generated/FREERTOS/queue.c ****         #if ( configUSE_MUTEXES == 1 )
2140:../Dave/Generated/FREERTOS/queue.c ****             {
2141:../Dave/Generated/FREERTOS/queue.c ****                 if( pxQueue->uxQueueType == queueQUEUE_IS_MUTEX )
 4275              	 .loc 1 2141 0
 4276 001e FB68     	 ldr r3,[r7,#12]
 4277 0020 1B68     	 ldr r3,[r3]
 4278 0022 002B     	 cmp r3,#0
 4279 0024 4FD1     	 bne .L308
2142:../Dave/Generated/FREERTOS/queue.c ****                 {
2143:../Dave/Generated/FREERTOS/queue.c ****                     /* The mutex is no longer being held. */
2144:../Dave/Generated/FREERTOS/queue.c ****                     xReturn = xTaskPriorityDisinherit( pxQueue->u.xSemaphore.xMutexHolder );
 4280              	 .loc 1 2144 0
 4281 0026 FB68     	 ldr r3,[r7,#12]
 4282 0028 9B68     	 ldr r3,[r3,#8]
 4283 002a 1846     	 mov r0,r3
 4284 002c FFF7FEFF 	 bl xTaskPriorityDisinherit
 4285 0030 7861     	 str r0,[r7,#20]
2145:../Dave/Generated/FREERTOS/queue.c ****                     pxQueue->u.xSemaphore.xMutexHolder = NULL;
 4286              	 .loc 1 2145 0
 4287 0032 FB68     	 ldr r3,[r7,#12]
 4288 0034 0022     	 movs r2,#0
 4289 0036 9A60     	 str r2,[r3,#8]
 4290 0038 45E0     	 b .L308
 4291              	.L307:
2146:../Dave/Generated/FREERTOS/queue.c ****                 }
2147:../Dave/Generated/FREERTOS/queue.c ****                 else
2148:../Dave/Generated/FREERTOS/queue.c ****                 {
2149:../Dave/Generated/FREERTOS/queue.c ****                     mtCOVERAGE_TEST_MARKER();
2150:../Dave/Generated/FREERTOS/queue.c ****                 }
2151:../Dave/Generated/FREERTOS/queue.c ****             }
2152:../Dave/Generated/FREERTOS/queue.c ****         #endif /* configUSE_MUTEXES */
2153:../Dave/Generated/FREERTOS/queue.c ****     }
2154:../Dave/Generated/FREERTOS/queue.c ****     else if( xPosition == queueSEND_TO_BACK )
 4292              	 .loc 1 2154 0
 4293 003a 7B68     	 ldr r3,[r7,#4]
 4294 003c 002B     	 cmp r3,#0
 4295 003e 1AD1     	 bne .L309
2155:../Dave/Generated/FREERTOS/queue.c ****     {
2156:../Dave/Generated/FREERTOS/queue.c ****         ( void ) memcpy( ( void * ) pxQueue->pcWriteTo, pvItemToQueue, ( size_t ) pxQueue->uxItemSi
 4296              	 .loc 1 2156 0
 4297 0040 FB68     	 ldr r3,[r7,#12]
 4298 0042 5A68     	 ldr r2,[r3,#4]
 4299 0044 FB68     	 ldr r3,[r7,#12]
 4300 0046 1B6C     	 ldr r3,[r3,#64]
 4301 0048 1046     	 mov r0,r2
 4302 004a B968     	 ldr r1,[r7,#8]
 4303 004c 1A46     	 mov r2,r3
 4304 004e FFF7FEFF 	 bl memcpy
2157:../Dave/Generated/FREERTOS/queue.c ****         pxQueue->pcWriteTo += pxQueue->uxItemSize;                                                 
 4305              	 .loc 1 2157 0
 4306 0052 FB68     	 ldr r3,[r7,#12]
 4307 0054 5A68     	 ldr r2,[r3,#4]
 4308 0056 FB68     	 ldr r3,[r7,#12]
 4309 0058 1B6C     	 ldr r3,[r3,#64]
 4310 005a 1A44     	 add r2,r2,r3
 4311 005c FB68     	 ldr r3,[r7,#12]
 4312 005e 5A60     	 str r2,[r3,#4]
2158:../Dave/Generated/FREERTOS/queue.c **** 
2159:../Dave/Generated/FREERTOS/queue.c ****         if( pxQueue->pcWriteTo >= pxQueue->u.xQueue.pcTail )                                       
 4313              	 .loc 1 2159 0
 4314 0060 FB68     	 ldr r3,[r7,#12]
 4315 0062 5A68     	 ldr r2,[r3,#4]
 4316 0064 FB68     	 ldr r3,[r7,#12]
 4317 0066 9B68     	 ldr r3,[r3,#8]
 4318 0068 9A42     	 cmp r2,r3
 4319 006a 2CD3     	 bcc .L308
2160:../Dave/Generated/FREERTOS/queue.c ****         {
2161:../Dave/Generated/FREERTOS/queue.c ****             pxQueue->pcWriteTo = pxQueue->pcHead;
 4320              	 .loc 1 2161 0
 4321 006c FB68     	 ldr r3,[r7,#12]
 4322 006e 1A68     	 ldr r2,[r3]
 4323 0070 FB68     	 ldr r3,[r7,#12]
 4324 0072 5A60     	 str r2,[r3,#4]
 4325 0074 27E0     	 b .L308
 4326              	.L309:
2162:../Dave/Generated/FREERTOS/queue.c ****         }
2163:../Dave/Generated/FREERTOS/queue.c ****         else
2164:../Dave/Generated/FREERTOS/queue.c ****         {
2165:../Dave/Generated/FREERTOS/queue.c ****             mtCOVERAGE_TEST_MARKER();
2166:../Dave/Generated/FREERTOS/queue.c ****         }
2167:../Dave/Generated/FREERTOS/queue.c ****     }
2168:../Dave/Generated/FREERTOS/queue.c ****     else
2169:../Dave/Generated/FREERTOS/queue.c ****     {
2170:../Dave/Generated/FREERTOS/queue.c ****         ( void ) memcpy( ( void * ) pxQueue->u.xQueue.pcReadFrom, pvItemToQueue, ( size_t ) pxQueue
 4327              	 .loc 1 2170 0
 4328 0076 FB68     	 ldr r3,[r7,#12]
 4329 0078 DA68     	 ldr r2,[r3,#12]
 4330 007a FB68     	 ldr r3,[r7,#12]
 4331 007c 1B6C     	 ldr r3,[r3,#64]
 4332 007e 1046     	 mov r0,r2
 4333 0080 B968     	 ldr r1,[r7,#8]
 4334 0082 1A46     	 mov r2,r3
 4335 0084 FFF7FEFF 	 bl memcpy
2171:../Dave/Generated/FREERTOS/queue.c ****         pxQueue->u.xQueue.pcReadFrom -= pxQueue->uxItemSize;
 4336              	 .loc 1 2171 0
 4337 0088 FB68     	 ldr r3,[r7,#12]
 4338 008a DA68     	 ldr r2,[r3,#12]
 4339 008c FB68     	 ldr r3,[r7,#12]
 4340 008e 1B6C     	 ldr r3,[r3,#64]
 4341 0090 5B42     	 negs r3,r3
 4342 0092 1A44     	 add r2,r2,r3
 4343 0094 FB68     	 ldr r3,[r7,#12]
 4344 0096 DA60     	 str r2,[r3,#12]
2172:../Dave/Generated/FREERTOS/queue.c **** 
2173:../Dave/Generated/FREERTOS/queue.c ****         if( pxQueue->u.xQueue.pcReadFrom < pxQueue->pcHead ) /*lint !e946 MISRA exception justified
 4345              	 .loc 1 2173 0
 4346 0098 FB68     	 ldr r3,[r7,#12]
 4347 009a DA68     	 ldr r2,[r3,#12]
 4348 009c FB68     	 ldr r3,[r7,#12]
 4349 009e 1B68     	 ldr r3,[r3]
 4350 00a0 9A42     	 cmp r2,r3
 4351 00a2 07D2     	 bcs .L310
2174:../Dave/Generated/FREERTOS/queue.c ****         {
2175:../Dave/Generated/FREERTOS/queue.c ****             pxQueue->u.xQueue.pcReadFrom = ( pxQueue->u.xQueue.pcTail - pxQueue->uxItemSize );
 4352              	 .loc 1 2175 0
 4353 00a4 FB68     	 ldr r3,[r7,#12]
 4354 00a6 9A68     	 ldr r2,[r3,#8]
 4355 00a8 FB68     	 ldr r3,[r7,#12]
 4356 00aa 1B6C     	 ldr r3,[r3,#64]
 4357 00ac 5B42     	 negs r3,r3
 4358 00ae 1A44     	 add r2,r2,r3
 4359 00b0 FB68     	 ldr r3,[r7,#12]
 4360 00b2 DA60     	 str r2,[r3,#12]
 4361              	.L310:
2176:../Dave/Generated/FREERTOS/queue.c ****         }
2177:../Dave/Generated/FREERTOS/queue.c ****         else
2178:../Dave/Generated/FREERTOS/queue.c ****         {
2179:../Dave/Generated/FREERTOS/queue.c ****             mtCOVERAGE_TEST_MARKER();
2180:../Dave/Generated/FREERTOS/queue.c ****         }
2181:../Dave/Generated/FREERTOS/queue.c **** 
2182:../Dave/Generated/FREERTOS/queue.c ****         if( xPosition == queueOVERWRITE )
 4362              	 .loc 1 2182 0
 4363 00b4 7B68     	 ldr r3,[r7,#4]
 4364 00b6 022B     	 cmp r3,#2
 4365 00b8 05D1     	 bne .L308
2183:../Dave/Generated/FREERTOS/queue.c ****         {
2184:../Dave/Generated/FREERTOS/queue.c ****             if( uxMessagesWaiting > ( UBaseType_t ) 0 )
 4366              	 .loc 1 2184 0
 4367 00ba 3B69     	 ldr r3,[r7,#16]
 4368 00bc 002B     	 cmp r3,#0
 4369 00be 02D0     	 beq .L308
2185:../Dave/Generated/FREERTOS/queue.c ****             {
2186:../Dave/Generated/FREERTOS/queue.c ****                 /* An item is not being added but overwritten, so subtract
2187:../Dave/Generated/FREERTOS/queue.c ****                  * one from the recorded number of items in the queue so when
2188:../Dave/Generated/FREERTOS/queue.c ****                  * one is added again below the number of recorded items remains
2189:../Dave/Generated/FREERTOS/queue.c ****                  * correct. */
2190:../Dave/Generated/FREERTOS/queue.c ****                 --uxMessagesWaiting;
 4370              	 .loc 1 2190 0
 4371 00c0 3B69     	 ldr r3,[r7,#16]
 4372 00c2 013B     	 subs r3,r3,#1
 4373 00c4 3B61     	 str r3,[r7,#16]
 4374              	.L308:
2191:../Dave/Generated/FREERTOS/queue.c ****             }
2192:../Dave/Generated/FREERTOS/queue.c ****             else
2193:../Dave/Generated/FREERTOS/queue.c ****             {
2194:../Dave/Generated/FREERTOS/queue.c ****                 mtCOVERAGE_TEST_MARKER();
2195:../Dave/Generated/FREERTOS/queue.c ****             }
2196:../Dave/Generated/FREERTOS/queue.c ****         }
2197:../Dave/Generated/FREERTOS/queue.c ****         else
2198:../Dave/Generated/FREERTOS/queue.c ****         {
2199:../Dave/Generated/FREERTOS/queue.c ****             mtCOVERAGE_TEST_MARKER();
2200:../Dave/Generated/FREERTOS/queue.c ****         }
2201:../Dave/Generated/FREERTOS/queue.c ****     }
2202:../Dave/Generated/FREERTOS/queue.c **** 
2203:../Dave/Generated/FREERTOS/queue.c ****     pxQueue->uxMessagesWaiting = uxMessagesWaiting + ( UBaseType_t ) 1;
 4375              	 .loc 1 2203 0
 4376 00c6 3B69     	 ldr r3,[r7,#16]
 4377 00c8 5A1C     	 adds r2,r3,#1
 4378 00ca FB68     	 ldr r3,[r7,#12]
 4379 00cc 9A63     	 str r2,[r3,#56]
2204:../Dave/Generated/FREERTOS/queue.c **** 
2205:../Dave/Generated/FREERTOS/queue.c ****     return xReturn;
 4380              	 .loc 1 2205 0
 4381 00ce 7B69     	 ldr r3,[r7,#20]
2206:../Dave/Generated/FREERTOS/queue.c **** }
 4382              	 .loc 1 2206 0
 4383 00d0 1846     	 mov r0,r3
 4384 00d2 1837     	 adds r7,r7,#24
 4385              	.LCFI154:
 4386              	 .cfi_def_cfa_offset 8
 4387 00d4 BD46     	 mov sp,r7
 4388              	.LCFI155:
 4389              	 .cfi_def_cfa_register 13
 4390              	 
 4391 00d6 80BD     	 pop {r7,pc}
 4392              	 .cfi_endproc
 4393              	.LFE166:
 4395              	 .section .text.prvCopyDataFromQueue,"ax",%progbits
 4396              	 .align 2
 4397              	 .thumb
 4398              	 .thumb_func
 4400              	prvCopyDataFromQueue:
 4401              	.LFB167:
2207:../Dave/Generated/FREERTOS/queue.c **** /*-----------------------------------------------------------*/
2208:../Dave/Generated/FREERTOS/queue.c **** 
2209:../Dave/Generated/FREERTOS/queue.c **** static void prvCopyDataFromQueue( Queue_t * const pxQueue,
2210:../Dave/Generated/FREERTOS/queue.c ****                                   void * const pvBuffer )
2211:../Dave/Generated/FREERTOS/queue.c **** {
 4402              	 .loc 1 2211 0
 4403              	 .cfi_startproc
 4404              	 
 4405              	 
 4406 0000 80B5     	 push {r7,lr}
 4407              	.LCFI156:
 4408              	 .cfi_def_cfa_offset 8
 4409              	 .cfi_offset 7,-8
 4410              	 .cfi_offset 14,-4
 4411 0002 82B0     	 sub sp,sp,#8
 4412              	.LCFI157:
 4413              	 .cfi_def_cfa_offset 16
 4414 0004 00AF     	 add r7,sp,#0
 4415              	.LCFI158:
 4416              	 .cfi_def_cfa_register 7
 4417 0006 7860     	 str r0,[r7,#4]
 4418 0008 3960     	 str r1,[r7]
2212:../Dave/Generated/FREERTOS/queue.c ****     if( pxQueue->uxItemSize != ( UBaseType_t ) 0 )
 4419              	 .loc 1 2212 0
 4420 000a 7B68     	 ldr r3,[r7,#4]
 4421 000c 1B6C     	 ldr r3,[r3,#64]
 4422 000e 002B     	 cmp r3,#0
 4423 0010 19D0     	 beq .L312
2213:../Dave/Generated/FREERTOS/queue.c ****     {
2214:../Dave/Generated/FREERTOS/queue.c ****         pxQueue->u.xQueue.pcReadFrom += pxQueue->uxItemSize;           /*lint !e9016 Pointer arithm
 4424              	 .loc 1 2214 0
 4425 0012 7B68     	 ldr r3,[r7,#4]
 4426 0014 DA68     	 ldr r2,[r3,#12]
 4427 0016 7B68     	 ldr r3,[r7,#4]
 4428 0018 1B6C     	 ldr r3,[r3,#64]
 4429 001a 1A44     	 add r2,r2,r3
 4430 001c 7B68     	 ldr r3,[r7,#4]
 4431 001e DA60     	 str r2,[r3,#12]
2215:../Dave/Generated/FREERTOS/queue.c **** 
2216:../Dave/Generated/FREERTOS/queue.c ****         if( pxQueue->u.xQueue.pcReadFrom >= pxQueue->u.xQueue.pcTail ) /*lint !e946 MISRA exception
 4432              	 .loc 1 2216 0
 4433 0020 7B68     	 ldr r3,[r7,#4]
 4434 0022 DA68     	 ldr r2,[r3,#12]
 4435 0024 7B68     	 ldr r3,[r7,#4]
 4436 0026 9B68     	 ldr r3,[r3,#8]
 4437 0028 9A42     	 cmp r2,r3
 4438 002a 03D3     	 bcc .L314
2217:../Dave/Generated/FREERTOS/queue.c ****         {
2218:../Dave/Generated/FREERTOS/queue.c ****             pxQueue->u.xQueue.pcReadFrom = pxQueue->pcHead;
 4439              	 .loc 1 2218 0
 4440 002c 7B68     	 ldr r3,[r7,#4]
 4441 002e 1A68     	 ldr r2,[r3]
 4442 0030 7B68     	 ldr r3,[r7,#4]
 4443 0032 DA60     	 str r2,[r3,#12]
 4444              	.L314:
2219:../Dave/Generated/FREERTOS/queue.c ****         }
2220:../Dave/Generated/FREERTOS/queue.c ****         else
2221:../Dave/Generated/FREERTOS/queue.c ****         {
2222:../Dave/Generated/FREERTOS/queue.c ****             mtCOVERAGE_TEST_MARKER();
2223:../Dave/Generated/FREERTOS/queue.c ****         }
2224:../Dave/Generated/FREERTOS/queue.c **** 
2225:../Dave/Generated/FREERTOS/queue.c ****         ( void ) memcpy( ( void * ) pvBuffer, ( void * ) pxQueue->u.xQueue.pcReadFrom, ( size_t ) p
 4445              	 .loc 1 2225 0
 4446 0034 7B68     	 ldr r3,[r7,#4]
 4447 0036 DA68     	 ldr r2,[r3,#12]
 4448 0038 7B68     	 ldr r3,[r7,#4]
 4449 003a 1B6C     	 ldr r3,[r3,#64]
 4450 003c 3868     	 ldr r0,[r7]
 4451 003e 1146     	 mov r1,r2
 4452 0040 1A46     	 mov r2,r3
 4453 0042 FFF7FEFF 	 bl memcpy
 4454              	.L312:
2226:../Dave/Generated/FREERTOS/queue.c ****     }
2227:../Dave/Generated/FREERTOS/queue.c **** }
 4455              	 .loc 1 2227 0
 4456 0046 0837     	 adds r7,r7,#8
 4457              	.LCFI159:
 4458              	 .cfi_def_cfa_offset 8
 4459 0048 BD46     	 mov sp,r7
 4460              	.LCFI160:
 4461              	 .cfi_def_cfa_register 13
 4462              	 
 4463 004a 80BD     	 pop {r7,pc}
 4464              	 .cfi_endproc
 4465              	.LFE167:
 4467              	 .section .text.prvUnlockQueue,"ax",%progbits
 4468              	 .align 2
 4469              	 .thumb
 4470              	 .thumb_func
 4472              	prvUnlockQueue:
 4473              	.LFB168:
2228:../Dave/Generated/FREERTOS/queue.c **** /*-----------------------------------------------------------*/
2229:../Dave/Generated/FREERTOS/queue.c **** 
2230:../Dave/Generated/FREERTOS/queue.c **** static void prvUnlockQueue( Queue_t * const pxQueue )
2231:../Dave/Generated/FREERTOS/queue.c **** {
 4474              	 .loc 1 2231 0
 4475              	 .cfi_startproc
 4476              	 
 4477              	 
 4478 0000 80B5     	 push {r7,lr}
 4479              	.LCFI161:
 4480              	 .cfi_def_cfa_offset 8
 4481              	 .cfi_offset 7,-8
 4482              	 .cfi_offset 14,-4
 4483 0002 84B0     	 sub sp,sp,#16
 4484              	.LCFI162:
 4485              	 .cfi_def_cfa_offset 24
 4486 0004 00AF     	 add r7,sp,#0
 4487              	.LCFI163:
 4488              	 .cfi_def_cfa_register 7
 4489 0006 7860     	 str r0,[r7,#4]
2232:../Dave/Generated/FREERTOS/queue.c ****     /* THIS FUNCTION MUST BE CALLED WITH THE SCHEDULER SUSPENDED. */
2233:../Dave/Generated/FREERTOS/queue.c **** 
2234:../Dave/Generated/FREERTOS/queue.c ****     /* The lock counts contains the number of extra data items placed or
2235:../Dave/Generated/FREERTOS/queue.c ****      * removed from the queue while the queue was locked.  When a queue is
2236:../Dave/Generated/FREERTOS/queue.c ****      * locked items can be added or removed, but the event lists cannot be
2237:../Dave/Generated/FREERTOS/queue.c ****      * updated. */
2238:../Dave/Generated/FREERTOS/queue.c ****     taskENTER_CRITICAL();
 4490              	 .loc 1 2238 0
 4491 0008 FFF7FEFF 	 bl vPortEnterCritical
 4492              	.LBB259:
2239:../Dave/Generated/FREERTOS/queue.c ****     {
2240:../Dave/Generated/FREERTOS/queue.c ****         int8_t cTxLock = pxQueue->cTxLock;
 4493              	 .loc 1 2240 0
 4494 000c 7B68     	 ldr r3,[r7,#4]
 4495 000e 93F84530 	 ldrb r3,[r3,#69]
 4496 0012 FB73     	 strb r3,[r7,#15]
2241:../Dave/Generated/FREERTOS/queue.c **** 
2242:../Dave/Generated/FREERTOS/queue.c ****         /* See if data was added to the queue while it was locked. */
2243:../Dave/Generated/FREERTOS/queue.c ****         while( cTxLock > queueLOCKED_UNMODIFIED )
 4497              	 .loc 1 2243 0
 4498 0014 20E0     	 b .L316
 4499              	.L321:
2244:../Dave/Generated/FREERTOS/queue.c ****         {
2245:../Dave/Generated/FREERTOS/queue.c ****             /* Data was posted while the queue was locked.  Are any tasks
2246:../Dave/Generated/FREERTOS/queue.c ****              * blocked waiting for data to become available? */
2247:../Dave/Generated/FREERTOS/queue.c ****             #if ( configUSE_QUEUE_SETS == 1 )
2248:../Dave/Generated/FREERTOS/queue.c ****                 {
2249:../Dave/Generated/FREERTOS/queue.c ****                     if( pxQueue->pxQueueSetContainer != NULL )
 4500              	 .loc 1 2249 0
 4501 0016 7B68     	 ldr r3,[r7,#4]
 4502 0018 9B6C     	 ldr r3,[r3,#72]
 4503 001a 002B     	 cmp r3,#0
 4504 001c 08D0     	 beq .L317
2250:../Dave/Generated/FREERTOS/queue.c ****                     {
2251:../Dave/Generated/FREERTOS/queue.c ****                         if( prvNotifyQueueSetContainer( pxQueue ) != pdFALSE )
 4505              	 .loc 1 2251 0
 4506 001e 7868     	 ldr r0,[r7,#4]
 4507 0020 FFF7FEFF 	 bl prvNotifyQueueSetContainer
 4508 0024 0346     	 mov r3,r0
 4509 0026 002B     	 cmp r3,#0
 4510 0028 12D0     	 beq .L318
2252:../Dave/Generated/FREERTOS/queue.c ****                         {
2253:../Dave/Generated/FREERTOS/queue.c ****                             /* The queue is a member of a queue set, and posting to
2254:../Dave/Generated/FREERTOS/queue.c ****                              * the queue set caused a higher priority task to unblock.
2255:../Dave/Generated/FREERTOS/queue.c ****                              * A context switch is required. */
2256:../Dave/Generated/FREERTOS/queue.c ****                             vTaskMissedYield();
 4511              	 .loc 1 2256 0
 4512 002a FFF7FEFF 	 bl vTaskMissedYield
 4513 002e 0FE0     	 b .L318
 4514              	.L317:
2257:../Dave/Generated/FREERTOS/queue.c ****                         }
2258:../Dave/Generated/FREERTOS/queue.c ****                         else
2259:../Dave/Generated/FREERTOS/queue.c ****                         {
2260:../Dave/Generated/FREERTOS/queue.c ****                             mtCOVERAGE_TEST_MARKER();
2261:../Dave/Generated/FREERTOS/queue.c ****                         }
2262:../Dave/Generated/FREERTOS/queue.c ****                     }
2263:../Dave/Generated/FREERTOS/queue.c ****                     else
2264:../Dave/Generated/FREERTOS/queue.c ****                     {
2265:../Dave/Generated/FREERTOS/queue.c ****                         /* Tasks that are removed from the event list will get
2266:../Dave/Generated/FREERTOS/queue.c ****                          * added to the pending ready list as the scheduler is still
2267:../Dave/Generated/FREERTOS/queue.c ****                          * suspended. */
2268:../Dave/Generated/FREERTOS/queue.c ****                         if( listLIST_IS_EMPTY( &( pxQueue->xTasksWaitingToReceive ) ) == pdFALSE )
 4515              	 .loc 1 2268 0
 4516 0030 7B68     	 ldr r3,[r7,#4]
 4517 0032 5B6A     	 ldr r3,[r3,#36]
 4518 0034 002B     	 cmp r3,#0
 4519 0036 0AD0     	 beq .L319
2269:../Dave/Generated/FREERTOS/queue.c ****                         {
2270:../Dave/Generated/FREERTOS/queue.c ****                             if( xTaskRemoveFromEventList( &( pxQueue->xTasksWaitingToReceive ) ) !=
 4520              	 .loc 1 2270 0
 4521 0038 7B68     	 ldr r3,[r7,#4]
 4522 003a 2433     	 adds r3,r3,#36
 4523 003c 1846     	 mov r0,r3
 4524 003e FFF7FEFF 	 bl xTaskRemoveFromEventList
 4525 0042 0346     	 mov r3,r0
 4526 0044 002B     	 cmp r3,#0
 4527 0046 03D0     	 beq .L318
2271:../Dave/Generated/FREERTOS/queue.c ****                             {
2272:../Dave/Generated/FREERTOS/queue.c ****                                 /* The task waiting has a higher priority so record that a
2273:../Dave/Generated/FREERTOS/queue.c ****                                  * context switch is required. */
2274:../Dave/Generated/FREERTOS/queue.c ****                                 vTaskMissedYield();
 4528              	 .loc 1 2274 0
 4529 0048 FFF7FEFF 	 bl vTaskMissedYield
 4530 004c 00E0     	 b .L318
 4531              	.L319:
2275:../Dave/Generated/FREERTOS/queue.c ****                             }
2276:../Dave/Generated/FREERTOS/queue.c ****                             else
2277:../Dave/Generated/FREERTOS/queue.c ****                             {
2278:../Dave/Generated/FREERTOS/queue.c ****                                 mtCOVERAGE_TEST_MARKER();
2279:../Dave/Generated/FREERTOS/queue.c ****                             }
2280:../Dave/Generated/FREERTOS/queue.c ****                         }
2281:../Dave/Generated/FREERTOS/queue.c ****                         else
2282:../Dave/Generated/FREERTOS/queue.c ****                         {
2283:../Dave/Generated/FREERTOS/queue.c ****                             break;
 4532              	 .loc 1 2283 0
 4533 004e 07E0     	 b .L320
 4534              	.L318:
2284:../Dave/Generated/FREERTOS/queue.c ****                         }
2285:../Dave/Generated/FREERTOS/queue.c ****                     }
2286:../Dave/Generated/FREERTOS/queue.c ****                 }
2287:../Dave/Generated/FREERTOS/queue.c ****             #else /* configUSE_QUEUE_SETS */
2288:../Dave/Generated/FREERTOS/queue.c ****                 {
2289:../Dave/Generated/FREERTOS/queue.c ****                     /* Tasks that are removed from the event list will get added to
2290:../Dave/Generated/FREERTOS/queue.c ****                      * the pending ready list as the scheduler is still suspended. */
2291:../Dave/Generated/FREERTOS/queue.c ****                     if( listLIST_IS_EMPTY( &( pxQueue->xTasksWaitingToReceive ) ) == pdFALSE )
2292:../Dave/Generated/FREERTOS/queue.c ****                     {
2293:../Dave/Generated/FREERTOS/queue.c ****                         if( xTaskRemoveFromEventList( &( pxQueue->xTasksWaitingToReceive ) ) != pdF
2294:../Dave/Generated/FREERTOS/queue.c ****                         {
2295:../Dave/Generated/FREERTOS/queue.c ****                             /* The task waiting has a higher priority so record that
2296:../Dave/Generated/FREERTOS/queue.c ****                              * a context switch is required. */
2297:../Dave/Generated/FREERTOS/queue.c ****                             vTaskMissedYield();
2298:../Dave/Generated/FREERTOS/queue.c ****                         }
2299:../Dave/Generated/FREERTOS/queue.c ****                         else
2300:../Dave/Generated/FREERTOS/queue.c ****                         {
2301:../Dave/Generated/FREERTOS/queue.c ****                             mtCOVERAGE_TEST_MARKER();
2302:../Dave/Generated/FREERTOS/queue.c ****                         }
2303:../Dave/Generated/FREERTOS/queue.c ****                     }
2304:../Dave/Generated/FREERTOS/queue.c ****                     else
2305:../Dave/Generated/FREERTOS/queue.c ****                     {
2306:../Dave/Generated/FREERTOS/queue.c ****                         break;
2307:../Dave/Generated/FREERTOS/queue.c ****                     }
2308:../Dave/Generated/FREERTOS/queue.c ****                 }
2309:../Dave/Generated/FREERTOS/queue.c ****             #endif /* configUSE_QUEUE_SETS */
2310:../Dave/Generated/FREERTOS/queue.c **** 
2311:../Dave/Generated/FREERTOS/queue.c ****             --cTxLock;
 4535              	 .loc 1 2311 0
 4536 0050 FB7B     	 ldrb r3,[r7,#15]
 4537 0052 013B     	 subs r3,r3,#1
 4538 0054 DBB2     	 uxtb r3,r3
 4539 0056 FB73     	 strb r3,[r7,#15]
 4540              	.L316:
2243:../Dave/Generated/FREERTOS/queue.c ****         {
 4541              	 .loc 1 2243 0
 4542 0058 97F90F30 	 ldrsb r3,[r7,#15]
 4543 005c 002B     	 cmp r3,#0
 4544 005e DADC     	 bgt .L321
 4545              	.L320:
2312:../Dave/Generated/FREERTOS/queue.c ****         }
2313:../Dave/Generated/FREERTOS/queue.c **** 
2314:../Dave/Generated/FREERTOS/queue.c ****         pxQueue->cTxLock = queueUNLOCKED;
 4546              	 .loc 1 2314 0
 4547 0060 7B68     	 ldr r3,[r7,#4]
 4548 0062 FF22     	 movs r2,#255
 4549 0064 83F84520 	 strb r2,[r3,#69]
 4550              	.LBE259:
2315:../Dave/Generated/FREERTOS/queue.c ****     }
2316:../Dave/Generated/FREERTOS/queue.c ****     taskEXIT_CRITICAL();
 4551              	 .loc 1 2316 0
 4552 0068 FFF7FEFF 	 bl vPortExitCritical
2317:../Dave/Generated/FREERTOS/queue.c **** 
2318:../Dave/Generated/FREERTOS/queue.c ****     /* Do the same for the Rx lock. */
2319:../Dave/Generated/FREERTOS/queue.c ****     taskENTER_CRITICAL();
 4553              	 .loc 1 2319 0
 4554 006c FFF7FEFF 	 bl vPortEnterCritical
 4555              	.LBB260:
2320:../Dave/Generated/FREERTOS/queue.c ****     {
2321:../Dave/Generated/FREERTOS/queue.c ****         int8_t cRxLock = pxQueue->cRxLock;
 4556              	 .loc 1 2321 0
 4557 0070 7B68     	 ldr r3,[r7,#4]
 4558 0072 93F84430 	 ldrb r3,[r3,#68]
 4559 0076 BB73     	 strb r3,[r7,#14]
2322:../Dave/Generated/FREERTOS/queue.c **** 
2323:../Dave/Generated/FREERTOS/queue.c ****         while( cRxLock > queueLOCKED_UNMODIFIED )
 4560              	 .loc 1 2323 0
 4561 0078 13E0     	 b .L322
 4562              	.L326:
2324:../Dave/Generated/FREERTOS/queue.c ****         {
2325:../Dave/Generated/FREERTOS/queue.c ****             if( listLIST_IS_EMPTY( &( pxQueue->xTasksWaitingToSend ) ) == pdFALSE )
 4563              	 .loc 1 2325 0
 4564 007a 7B68     	 ldr r3,[r7,#4]
 4565 007c 1B69     	 ldr r3,[r3,#16]
 4566 007e 002B     	 cmp r3,#0
 4567 0080 0ED0     	 beq .L323
2326:../Dave/Generated/FREERTOS/queue.c ****             {
2327:../Dave/Generated/FREERTOS/queue.c ****                 if( xTaskRemoveFromEventList( &( pxQueue->xTasksWaitingToSend ) ) != pdFALSE )
 4568              	 .loc 1 2327 0
 4569 0082 7B68     	 ldr r3,[r7,#4]
 4570 0084 1033     	 adds r3,r3,#16
 4571 0086 1846     	 mov r0,r3
 4572 0088 FFF7FEFF 	 bl xTaskRemoveFromEventList
 4573 008c 0346     	 mov r3,r0
 4574 008e 002B     	 cmp r3,#0
 4575 0090 01D0     	 beq .L324
2328:../Dave/Generated/FREERTOS/queue.c ****                 {
2329:../Dave/Generated/FREERTOS/queue.c ****                     vTaskMissedYield();
 4576              	 .loc 1 2329 0
 4577 0092 FFF7FEFF 	 bl vTaskMissedYield
 4578              	.L324:
2330:../Dave/Generated/FREERTOS/queue.c ****                 }
2331:../Dave/Generated/FREERTOS/queue.c ****                 else
2332:../Dave/Generated/FREERTOS/queue.c ****                 {
2333:../Dave/Generated/FREERTOS/queue.c ****                     mtCOVERAGE_TEST_MARKER();
2334:../Dave/Generated/FREERTOS/queue.c ****                 }
2335:../Dave/Generated/FREERTOS/queue.c **** 
2336:../Dave/Generated/FREERTOS/queue.c ****                 --cRxLock;
 4579              	 .loc 1 2336 0
 4580 0096 BB7B     	 ldrb r3,[r7,#14]
 4581 0098 013B     	 subs r3,r3,#1
 4582 009a DBB2     	 uxtb r3,r3
 4583 009c BB73     	 strb r3,[r7,#14]
 4584 009e 00E0     	 b .L322
 4585              	.L323:
2337:../Dave/Generated/FREERTOS/queue.c ****             }
2338:../Dave/Generated/FREERTOS/queue.c ****             else
2339:../Dave/Generated/FREERTOS/queue.c ****             {
2340:../Dave/Generated/FREERTOS/queue.c ****                 break;
 4586              	 .loc 1 2340 0
 4587 00a0 03E0     	 b .L325
 4588              	.L322:
2323:../Dave/Generated/FREERTOS/queue.c ****         {
 4589              	 .loc 1 2323 0
 4590 00a2 97F90E30 	 ldrsb r3,[r7,#14]
 4591 00a6 002B     	 cmp r3,#0
 4592 00a8 E7DC     	 bgt .L326
 4593              	.L325:
2341:../Dave/Generated/FREERTOS/queue.c ****             }
2342:../Dave/Generated/FREERTOS/queue.c ****         }
2343:../Dave/Generated/FREERTOS/queue.c **** 
2344:../Dave/Generated/FREERTOS/queue.c ****         pxQueue->cRxLock = queueUNLOCKED;
 4594              	 .loc 1 2344 0
 4595 00aa 7B68     	 ldr r3,[r7,#4]
 4596 00ac FF22     	 movs r2,#255
 4597 00ae 83F84420 	 strb r2,[r3,#68]
 4598              	.LBE260:
2345:../Dave/Generated/FREERTOS/queue.c ****     }
2346:../Dave/Generated/FREERTOS/queue.c ****     taskEXIT_CRITICAL();
 4599              	 .loc 1 2346 0
 4600 00b2 FFF7FEFF 	 bl vPortExitCritical
2347:../Dave/Generated/FREERTOS/queue.c **** }
 4601              	 .loc 1 2347 0
 4602 00b6 1037     	 adds r7,r7,#16
 4603              	.LCFI164:
 4604              	 .cfi_def_cfa_offset 8
 4605 00b8 BD46     	 mov sp,r7
 4606              	.LCFI165:
 4607              	 .cfi_def_cfa_register 13
 4608              	 
 4609 00ba 80BD     	 pop {r7,pc}
 4610              	 .cfi_endproc
 4611              	.LFE168:
 4613              	 .section .text.prvIsQueueEmpty,"ax",%progbits
 4614              	 .align 2
 4615              	 .thumb
 4616              	 .thumb_func
 4618              	prvIsQueueEmpty:
 4619              	.LFB169:
2348:../Dave/Generated/FREERTOS/queue.c **** /*-----------------------------------------------------------*/
2349:../Dave/Generated/FREERTOS/queue.c **** 
2350:../Dave/Generated/FREERTOS/queue.c **** static BaseType_t prvIsQueueEmpty( const Queue_t * pxQueue )
2351:../Dave/Generated/FREERTOS/queue.c **** {
 4620              	 .loc 1 2351 0
 4621              	 .cfi_startproc
 4622              	 
 4623              	 
 4624 0000 80B5     	 push {r7,lr}
 4625              	.LCFI166:
 4626              	 .cfi_def_cfa_offset 8
 4627              	 .cfi_offset 7,-8
 4628              	 .cfi_offset 14,-4
 4629 0002 84B0     	 sub sp,sp,#16
 4630              	.LCFI167:
 4631              	 .cfi_def_cfa_offset 24
 4632 0004 00AF     	 add r7,sp,#0
 4633              	.LCFI168:
 4634              	 .cfi_def_cfa_register 7
 4635 0006 7860     	 str r0,[r7,#4]
2352:../Dave/Generated/FREERTOS/queue.c ****     BaseType_t xReturn;
2353:../Dave/Generated/FREERTOS/queue.c **** 
2354:../Dave/Generated/FREERTOS/queue.c ****     taskENTER_CRITICAL();
 4636              	 .loc 1 2354 0
 4637 0008 FFF7FEFF 	 bl vPortEnterCritical
2355:../Dave/Generated/FREERTOS/queue.c ****     {
2356:../Dave/Generated/FREERTOS/queue.c ****         if( pxQueue->uxMessagesWaiting == ( UBaseType_t ) 0 )
 4638              	 .loc 1 2356 0
 4639 000c 7B68     	 ldr r3,[r7,#4]
 4640 000e 9B6B     	 ldr r3,[r3,#56]
 4641 0010 002B     	 cmp r3,#0
 4642 0012 02D1     	 bne .L328
2357:../Dave/Generated/FREERTOS/queue.c ****         {
2358:../Dave/Generated/FREERTOS/queue.c ****             xReturn = pdTRUE;
 4643              	 .loc 1 2358 0
 4644 0014 0123     	 movs r3,#1
 4645 0016 FB60     	 str r3,[r7,#12]
 4646 0018 01E0     	 b .L329
 4647              	.L328:
2359:../Dave/Generated/FREERTOS/queue.c ****         }
2360:../Dave/Generated/FREERTOS/queue.c ****         else
2361:../Dave/Generated/FREERTOS/queue.c ****         {
2362:../Dave/Generated/FREERTOS/queue.c ****             xReturn = pdFALSE;
 4648              	 .loc 1 2362 0
 4649 001a 0023     	 movs r3,#0
 4650 001c FB60     	 str r3,[r7,#12]
 4651              	.L329:
2363:../Dave/Generated/FREERTOS/queue.c ****         }
2364:../Dave/Generated/FREERTOS/queue.c ****     }
2365:../Dave/Generated/FREERTOS/queue.c ****     taskEXIT_CRITICAL();
 4652              	 .loc 1 2365 0
 4653 001e FFF7FEFF 	 bl vPortExitCritical
2366:../Dave/Generated/FREERTOS/queue.c **** 
2367:../Dave/Generated/FREERTOS/queue.c ****     return xReturn;
 4654              	 .loc 1 2367 0
 4655 0022 FB68     	 ldr r3,[r7,#12]
2368:../Dave/Generated/FREERTOS/queue.c **** }
 4656              	 .loc 1 2368 0
 4657 0024 1846     	 mov r0,r3
 4658 0026 1037     	 adds r7,r7,#16
 4659              	.LCFI169:
 4660              	 .cfi_def_cfa_offset 8
 4661 0028 BD46     	 mov sp,r7
 4662              	.LCFI170:
 4663              	 .cfi_def_cfa_register 13
 4664              	 
 4665 002a 80BD     	 pop {r7,pc}
 4666              	 .cfi_endproc
 4667              	.LFE169:
 4669              	 .section .text.xQueueIsQueueEmptyFromISR,"ax",%progbits
 4670              	 .align 2
 4671              	 .global xQueueIsQueueEmptyFromISR
 4672              	 .thumb
 4673              	 .thumb_func
 4675              	xQueueIsQueueEmptyFromISR:
 4676              	.LFB170:
2369:../Dave/Generated/FREERTOS/queue.c **** /*-----------------------------------------------------------*/
2370:../Dave/Generated/FREERTOS/queue.c **** 
2371:../Dave/Generated/FREERTOS/queue.c **** BaseType_t xQueueIsQueueEmptyFromISR( const QueueHandle_t xQueue )
2372:../Dave/Generated/FREERTOS/queue.c **** {
 4677              	 .loc 1 2372 0
 4678              	 .cfi_startproc
 4679              	 
 4680              	 
 4681              	 
 4682 0000 80B4     	 push {r7}
 4683              	.LCFI171:
 4684              	 .cfi_def_cfa_offset 4
 4685              	 .cfi_offset 7,-4
 4686 0002 87B0     	 sub sp,sp,#28
 4687              	.LCFI172:
 4688              	 .cfi_def_cfa_offset 32
 4689 0004 00AF     	 add r7,sp,#0
 4690              	.LCFI173:
 4691              	 .cfi_def_cfa_register 7
 4692 0006 7860     	 str r0,[r7,#4]
2373:../Dave/Generated/FREERTOS/queue.c ****     BaseType_t xReturn;
2374:../Dave/Generated/FREERTOS/queue.c ****     Queue_t * const pxQueue = xQueue;
 4693              	 .loc 1 2374 0
 4694 0008 7B68     	 ldr r3,[r7,#4]
 4695 000a 3B61     	 str r3,[r7,#16]
2375:../Dave/Generated/FREERTOS/queue.c **** 
2376:../Dave/Generated/FREERTOS/queue.c ****     configASSERT( pxQueue );
 4696              	 .loc 1 2376 0
 4697 000c 3B69     	 ldr r3,[r7,#16]
 4698 000e 002B     	 cmp r3,#0
 4699 0010 09D1     	 bne .L332
 4700              	.LBB261:
 4701              	.LBB262:
 197:C:/Infineon/Tools/DAVE IDE/4.5.0.202105191637/eclipse/workspace/xmc4800-CE/Dave/Generated/FREERTOS/portable/GCC\portmacro.h ****         (
 4702              	 .loc 2 197 0 discriminator 1
 4703              	
 4704 0012 4FF0FC03 	 mov r3,#252
 4705 0016 83F31188 	 msr basepri,r3
 4706 001a BFF36F8F 	 isb 
 4707 001e BFF34F8F 	 dsb 
 4708              	
 4709              	
 4710              	 .thumb
 4711 0022 FB60     	 str r3,[r7,#12]
 4712              	.L333:
 4713              	.LBE262:
 4714              	.LBE261:
 4715              	 .loc 1 2376 0 discriminator 1
 4716 0024 FEE7     	 b .L333
 4717              	.L332:
2377:../Dave/Generated/FREERTOS/queue.c **** 
2378:../Dave/Generated/FREERTOS/queue.c ****     if( pxQueue->uxMessagesWaiting == ( UBaseType_t ) 0 )
 4718              	 .loc 1 2378 0
 4719 0026 3B69     	 ldr r3,[r7,#16]
 4720 0028 9B6B     	 ldr r3,[r3,#56]
 4721 002a 002B     	 cmp r3,#0
 4722 002c 02D1     	 bne .L334
2379:../Dave/Generated/FREERTOS/queue.c ****     {
2380:../Dave/Generated/FREERTOS/queue.c ****         xReturn = pdTRUE;
 4723              	 .loc 1 2380 0
 4724 002e 0123     	 movs r3,#1
 4725 0030 7B61     	 str r3,[r7,#20]
 4726 0032 01E0     	 b .L335
 4727              	.L334:
2381:../Dave/Generated/FREERTOS/queue.c ****     }
2382:../Dave/Generated/FREERTOS/queue.c ****     else
2383:../Dave/Generated/FREERTOS/queue.c ****     {
2384:../Dave/Generated/FREERTOS/queue.c ****         xReturn = pdFALSE;
 4728              	 .loc 1 2384 0
 4729 0034 0023     	 movs r3,#0
 4730 0036 7B61     	 str r3,[r7,#20]
 4731              	.L335:
2385:../Dave/Generated/FREERTOS/queue.c ****     }
2386:../Dave/Generated/FREERTOS/queue.c **** 
2387:../Dave/Generated/FREERTOS/queue.c ****     return xReturn;
 4732              	 .loc 1 2387 0
 4733 0038 7B69     	 ldr r3,[r7,#20]
2388:../Dave/Generated/FREERTOS/queue.c **** } /*lint !e818 xQueue could not be pointer to const because it is a typedef. */
 4734              	 .loc 1 2388 0
 4735 003a 1846     	 mov r0,r3
 4736 003c 1C37     	 adds r7,r7,#28
 4737              	.LCFI174:
 4738              	 .cfi_def_cfa_offset 4
 4739 003e BD46     	 mov sp,r7
 4740              	.LCFI175:
 4741              	 .cfi_def_cfa_register 13
 4742              	 
 4743 0040 5DF8047B 	 ldr r7,[sp],#4
 4744              	.LCFI176:
 4745              	 .cfi_restore 7
 4746              	 .cfi_def_cfa_offset 0
 4747 0044 7047     	 bx lr
 4748              	 .cfi_endproc
 4749              	.LFE170:
 4751 0046 00BF     	 .section .text.prvIsQueueFull,"ax",%progbits
 4752              	 .align 2
 4753              	 .thumb
 4754              	 .thumb_func
 4756              	prvIsQueueFull:
 4757              	.LFB171:
2389:../Dave/Generated/FREERTOS/queue.c **** /*-----------------------------------------------------------*/
2390:../Dave/Generated/FREERTOS/queue.c **** 
2391:../Dave/Generated/FREERTOS/queue.c **** static BaseType_t prvIsQueueFull( const Queue_t * pxQueue )
2392:../Dave/Generated/FREERTOS/queue.c **** {
 4758              	 .loc 1 2392 0
 4759              	 .cfi_startproc
 4760              	 
 4761              	 
 4762 0000 80B5     	 push {r7,lr}
 4763              	.LCFI177:
 4764              	 .cfi_def_cfa_offset 8
 4765              	 .cfi_offset 7,-8
 4766              	 .cfi_offset 14,-4
 4767 0002 84B0     	 sub sp,sp,#16
 4768              	.LCFI178:
 4769              	 .cfi_def_cfa_offset 24
 4770 0004 00AF     	 add r7,sp,#0
 4771              	.LCFI179:
 4772              	 .cfi_def_cfa_register 7
 4773 0006 7860     	 str r0,[r7,#4]
2393:../Dave/Generated/FREERTOS/queue.c ****     BaseType_t xReturn;
2394:../Dave/Generated/FREERTOS/queue.c **** 
2395:../Dave/Generated/FREERTOS/queue.c ****     taskENTER_CRITICAL();
 4774              	 .loc 1 2395 0
 4775 0008 FFF7FEFF 	 bl vPortEnterCritical
2396:../Dave/Generated/FREERTOS/queue.c ****     {
2397:../Dave/Generated/FREERTOS/queue.c ****         if( pxQueue->uxMessagesWaiting == pxQueue->uxLength )
 4776              	 .loc 1 2397 0
 4777 000c 7B68     	 ldr r3,[r7,#4]
 4778 000e 9A6B     	 ldr r2,[r3,#56]
 4779 0010 7B68     	 ldr r3,[r7,#4]
 4780 0012 DB6B     	 ldr r3,[r3,#60]
 4781 0014 9A42     	 cmp r2,r3
 4782 0016 02D1     	 bne .L338
2398:../Dave/Generated/FREERTOS/queue.c ****         {
2399:../Dave/Generated/FREERTOS/queue.c ****             xReturn = pdTRUE;
 4783              	 .loc 1 2399 0
 4784 0018 0123     	 movs r3,#1
 4785 001a FB60     	 str r3,[r7,#12]
 4786 001c 01E0     	 b .L339
 4787              	.L338:
2400:../Dave/Generated/FREERTOS/queue.c ****         }
2401:../Dave/Generated/FREERTOS/queue.c ****         else
2402:../Dave/Generated/FREERTOS/queue.c ****         {
2403:../Dave/Generated/FREERTOS/queue.c ****             xReturn = pdFALSE;
 4788              	 .loc 1 2403 0
 4789 001e 0023     	 movs r3,#0
 4790 0020 FB60     	 str r3,[r7,#12]
 4791              	.L339:
2404:../Dave/Generated/FREERTOS/queue.c ****         }
2405:../Dave/Generated/FREERTOS/queue.c ****     }
2406:../Dave/Generated/FREERTOS/queue.c ****     taskEXIT_CRITICAL();
 4792              	 .loc 1 2406 0
 4793 0022 FFF7FEFF 	 bl vPortExitCritical
2407:../Dave/Generated/FREERTOS/queue.c **** 
2408:../Dave/Generated/FREERTOS/queue.c ****     return xReturn;
 4794              	 .loc 1 2408 0
 4795 0026 FB68     	 ldr r3,[r7,#12]
2409:../Dave/Generated/FREERTOS/queue.c **** }
 4796              	 .loc 1 2409 0
 4797 0028 1846     	 mov r0,r3
 4798 002a 1037     	 adds r7,r7,#16
 4799              	.LCFI180:
 4800              	 .cfi_def_cfa_offset 8
 4801 002c BD46     	 mov sp,r7
 4802              	.LCFI181:
 4803              	 .cfi_def_cfa_register 13
 4804              	 
 4805 002e 80BD     	 pop {r7,pc}
 4806              	 .cfi_endproc
 4807              	.LFE171:
 4809              	 .section .text.xQueueIsQueueFullFromISR,"ax",%progbits
 4810              	 .align 2
 4811              	 .global xQueueIsQueueFullFromISR
 4812              	 .thumb
 4813              	 .thumb_func
 4815              	xQueueIsQueueFullFromISR:
 4816              	.LFB172:
2410:../Dave/Generated/FREERTOS/queue.c **** /*-----------------------------------------------------------*/
2411:../Dave/Generated/FREERTOS/queue.c **** 
2412:../Dave/Generated/FREERTOS/queue.c **** BaseType_t xQueueIsQueueFullFromISR( const QueueHandle_t xQueue )
2413:../Dave/Generated/FREERTOS/queue.c **** {
 4817              	 .loc 1 2413 0
 4818              	 .cfi_startproc
 4819              	 
 4820              	 
 4821              	 
 4822 0000 80B4     	 push {r7}
 4823              	.LCFI182:
 4824              	 .cfi_def_cfa_offset 4
 4825              	 .cfi_offset 7,-4
 4826 0002 87B0     	 sub sp,sp,#28
 4827              	.LCFI183:
 4828              	 .cfi_def_cfa_offset 32
 4829 0004 00AF     	 add r7,sp,#0
 4830              	.LCFI184:
 4831              	 .cfi_def_cfa_register 7
 4832 0006 7860     	 str r0,[r7,#4]
2414:../Dave/Generated/FREERTOS/queue.c ****     BaseType_t xReturn;
2415:../Dave/Generated/FREERTOS/queue.c ****     Queue_t * const pxQueue = xQueue;
 4833              	 .loc 1 2415 0
 4834 0008 7B68     	 ldr r3,[r7,#4]
 4835 000a 3B61     	 str r3,[r7,#16]
2416:../Dave/Generated/FREERTOS/queue.c **** 
2417:../Dave/Generated/FREERTOS/queue.c ****     configASSERT( pxQueue );
 4836              	 .loc 1 2417 0
 4837 000c 3B69     	 ldr r3,[r7,#16]
 4838 000e 002B     	 cmp r3,#0
 4839 0010 09D1     	 bne .L342
 4840              	.LBB263:
 4841              	.LBB264:
 197:C:/Infineon/Tools/DAVE IDE/4.5.0.202105191637/eclipse/workspace/xmc4800-CE/Dave/Generated/FREERTOS/portable/GCC\portmacro.h ****         (
 4842              	 .loc 2 197 0 discriminator 1
 4843              	
 4844 0012 4FF0FC03 	 mov r3,#252
 4845 0016 83F31188 	 msr basepri,r3
 4846 001a BFF36F8F 	 isb 
 4847 001e BFF34F8F 	 dsb 
 4848              	
 4849              	
 4850              	 .thumb
 4851 0022 FB60     	 str r3,[r7,#12]
 4852              	.L343:
 4853              	.LBE264:
 4854              	.LBE263:
 4855              	 .loc 1 2417 0 discriminator 1
 4856 0024 FEE7     	 b .L343
 4857              	.L342:
2418:../Dave/Generated/FREERTOS/queue.c **** 
2419:../Dave/Generated/FREERTOS/queue.c ****     if( pxQueue->uxMessagesWaiting == pxQueue->uxLength )
 4858              	 .loc 1 2419 0
 4859 0026 3B69     	 ldr r3,[r7,#16]
 4860 0028 9A6B     	 ldr r2,[r3,#56]
 4861 002a 3B69     	 ldr r3,[r7,#16]
 4862 002c DB6B     	 ldr r3,[r3,#60]
 4863 002e 9A42     	 cmp r2,r3
 4864 0030 02D1     	 bne .L344
2420:../Dave/Generated/FREERTOS/queue.c ****     {
2421:../Dave/Generated/FREERTOS/queue.c ****         xReturn = pdTRUE;
 4865              	 .loc 1 2421 0
 4866 0032 0123     	 movs r3,#1
 4867 0034 7B61     	 str r3,[r7,#20]
 4868 0036 01E0     	 b .L345
 4869              	.L344:
2422:../Dave/Generated/FREERTOS/queue.c ****     }
2423:../Dave/Generated/FREERTOS/queue.c ****     else
2424:../Dave/Generated/FREERTOS/queue.c ****     {
2425:../Dave/Generated/FREERTOS/queue.c ****         xReturn = pdFALSE;
 4870              	 .loc 1 2425 0
 4871 0038 0023     	 movs r3,#0
 4872 003a 7B61     	 str r3,[r7,#20]
 4873              	.L345:
2426:../Dave/Generated/FREERTOS/queue.c ****     }
2427:../Dave/Generated/FREERTOS/queue.c **** 
2428:../Dave/Generated/FREERTOS/queue.c ****     return xReturn;
 4874              	 .loc 1 2428 0
 4875 003c 7B69     	 ldr r3,[r7,#20]
2429:../Dave/Generated/FREERTOS/queue.c **** } /*lint !e818 xQueue could not be pointer to const because it is a typedef. */
 4876              	 .loc 1 2429 0
 4877 003e 1846     	 mov r0,r3
 4878 0040 1C37     	 adds r7,r7,#28
 4879              	.LCFI185:
 4880              	 .cfi_def_cfa_offset 4
 4881 0042 BD46     	 mov sp,r7
 4882              	.LCFI186:
 4883              	 .cfi_def_cfa_register 13
 4884              	 
 4885 0044 5DF8047B 	 ldr r7,[sp],#4
 4886              	.LCFI187:
 4887              	 .cfi_restore 7
 4888              	 .cfi_def_cfa_offset 0
 4889 0048 7047     	 bx lr
 4890              	 .cfi_endproc
 4891              	.LFE172:
 4893 004a 00BF     	 .section .text.vQueueAddToRegistry,"ax",%progbits
 4894              	 .align 2
 4895              	 .global vQueueAddToRegistry
 4896              	 .thumb
 4897              	 .thumb_func
 4899              	vQueueAddToRegistry:
 4900              	.LFB173:
2430:../Dave/Generated/FREERTOS/queue.c **** /*-----------------------------------------------------------*/
2431:../Dave/Generated/FREERTOS/queue.c **** 
2432:../Dave/Generated/FREERTOS/queue.c **** #if ( configUSE_CO_ROUTINES == 1 )
2433:../Dave/Generated/FREERTOS/queue.c **** 
2434:../Dave/Generated/FREERTOS/queue.c ****     BaseType_t xQueueCRSend( QueueHandle_t xQueue,
2435:../Dave/Generated/FREERTOS/queue.c ****                              const void * pvItemToQueue,
2436:../Dave/Generated/FREERTOS/queue.c ****                              TickType_t xTicksToWait )
2437:../Dave/Generated/FREERTOS/queue.c ****     {
2438:../Dave/Generated/FREERTOS/queue.c ****         BaseType_t xReturn;
2439:../Dave/Generated/FREERTOS/queue.c ****         Queue_t * const pxQueue = xQueue;
2440:../Dave/Generated/FREERTOS/queue.c **** 
2441:../Dave/Generated/FREERTOS/queue.c ****         /* If the queue is already full we may have to block.  A critical section
2442:../Dave/Generated/FREERTOS/queue.c ****          * is required to prevent an interrupt removing something from the queue
2443:../Dave/Generated/FREERTOS/queue.c ****          * between the check to see if the queue is full and blocking on the queue. */
2444:../Dave/Generated/FREERTOS/queue.c ****         portDISABLE_INTERRUPTS();
2445:../Dave/Generated/FREERTOS/queue.c ****         {
2446:../Dave/Generated/FREERTOS/queue.c ****             if( prvIsQueueFull( pxQueue ) != pdFALSE )
2447:../Dave/Generated/FREERTOS/queue.c ****             {
2448:../Dave/Generated/FREERTOS/queue.c ****                 /* The queue is full - do we want to block or just leave without
2449:../Dave/Generated/FREERTOS/queue.c ****                  * posting? */
2450:../Dave/Generated/FREERTOS/queue.c ****                 if( xTicksToWait > ( TickType_t ) 0 )
2451:../Dave/Generated/FREERTOS/queue.c ****                 {
2452:../Dave/Generated/FREERTOS/queue.c ****                     /* As this is called from a coroutine we cannot block directly, but
2453:../Dave/Generated/FREERTOS/queue.c ****                      * return indicating that we need to block. */
2454:../Dave/Generated/FREERTOS/queue.c ****                     vCoRoutineAddToDelayedList( xTicksToWait, &( pxQueue->xTasksWaitingToSend ) );
2455:../Dave/Generated/FREERTOS/queue.c ****                     portENABLE_INTERRUPTS();
2456:../Dave/Generated/FREERTOS/queue.c ****                     return errQUEUE_BLOCKED;
2457:../Dave/Generated/FREERTOS/queue.c ****                 }
2458:../Dave/Generated/FREERTOS/queue.c ****                 else
2459:../Dave/Generated/FREERTOS/queue.c ****                 {
2460:../Dave/Generated/FREERTOS/queue.c ****                     portENABLE_INTERRUPTS();
2461:../Dave/Generated/FREERTOS/queue.c ****                     return errQUEUE_FULL;
2462:../Dave/Generated/FREERTOS/queue.c ****                 }
2463:../Dave/Generated/FREERTOS/queue.c ****             }
2464:../Dave/Generated/FREERTOS/queue.c ****         }
2465:../Dave/Generated/FREERTOS/queue.c ****         portENABLE_INTERRUPTS();
2466:../Dave/Generated/FREERTOS/queue.c **** 
2467:../Dave/Generated/FREERTOS/queue.c ****         portDISABLE_INTERRUPTS();
2468:../Dave/Generated/FREERTOS/queue.c ****         {
2469:../Dave/Generated/FREERTOS/queue.c ****             if( pxQueue->uxMessagesWaiting < pxQueue->uxLength )
2470:../Dave/Generated/FREERTOS/queue.c ****             {
2471:../Dave/Generated/FREERTOS/queue.c ****                 /* There is room in the queue, copy the data into the queue. */
2472:../Dave/Generated/FREERTOS/queue.c ****                 prvCopyDataToQueue( pxQueue, pvItemToQueue, queueSEND_TO_BACK );
2473:../Dave/Generated/FREERTOS/queue.c ****                 xReturn = pdPASS;
2474:../Dave/Generated/FREERTOS/queue.c **** 
2475:../Dave/Generated/FREERTOS/queue.c ****                 /* Were any co-routines waiting for data to become available? */
2476:../Dave/Generated/FREERTOS/queue.c ****                 if( listLIST_IS_EMPTY( &( pxQueue->xTasksWaitingToReceive ) ) == pdFALSE )
2477:../Dave/Generated/FREERTOS/queue.c ****                 {
2478:../Dave/Generated/FREERTOS/queue.c ****                     /* In this instance the co-routine could be placed directly
2479:../Dave/Generated/FREERTOS/queue.c ****                      * into the ready list as we are within a critical section.
2480:../Dave/Generated/FREERTOS/queue.c ****                      * Instead the same pending ready list mechanism is used as if
2481:../Dave/Generated/FREERTOS/queue.c ****                      * the event were caused from within an interrupt. */
2482:../Dave/Generated/FREERTOS/queue.c ****                     if( xCoRoutineRemoveFromEventList( &( pxQueue->xTasksWaitingToReceive ) ) != pd
2483:../Dave/Generated/FREERTOS/queue.c ****                     {
2484:../Dave/Generated/FREERTOS/queue.c ****                         /* The co-routine waiting has a higher priority so record
2485:../Dave/Generated/FREERTOS/queue.c ****                          * that a yield might be appropriate. */
2486:../Dave/Generated/FREERTOS/queue.c ****                         xReturn = errQUEUE_YIELD;
2487:../Dave/Generated/FREERTOS/queue.c ****                     }
2488:../Dave/Generated/FREERTOS/queue.c ****                     else
2489:../Dave/Generated/FREERTOS/queue.c ****                     {
2490:../Dave/Generated/FREERTOS/queue.c ****                         mtCOVERAGE_TEST_MARKER();
2491:../Dave/Generated/FREERTOS/queue.c ****                     }
2492:../Dave/Generated/FREERTOS/queue.c ****                 }
2493:../Dave/Generated/FREERTOS/queue.c ****                 else
2494:../Dave/Generated/FREERTOS/queue.c ****                 {
2495:../Dave/Generated/FREERTOS/queue.c ****                     mtCOVERAGE_TEST_MARKER();
2496:../Dave/Generated/FREERTOS/queue.c ****                 }
2497:../Dave/Generated/FREERTOS/queue.c ****             }
2498:../Dave/Generated/FREERTOS/queue.c ****             else
2499:../Dave/Generated/FREERTOS/queue.c ****             {
2500:../Dave/Generated/FREERTOS/queue.c ****                 xReturn = errQUEUE_FULL;
2501:../Dave/Generated/FREERTOS/queue.c ****             }
2502:../Dave/Generated/FREERTOS/queue.c ****         }
2503:../Dave/Generated/FREERTOS/queue.c ****         portENABLE_INTERRUPTS();
2504:../Dave/Generated/FREERTOS/queue.c **** 
2505:../Dave/Generated/FREERTOS/queue.c ****         return xReturn;
2506:../Dave/Generated/FREERTOS/queue.c ****     }
2507:../Dave/Generated/FREERTOS/queue.c **** 
2508:../Dave/Generated/FREERTOS/queue.c **** #endif /* configUSE_CO_ROUTINES */
2509:../Dave/Generated/FREERTOS/queue.c **** /*-----------------------------------------------------------*/
2510:../Dave/Generated/FREERTOS/queue.c **** 
2511:../Dave/Generated/FREERTOS/queue.c **** #if ( configUSE_CO_ROUTINES == 1 )
2512:../Dave/Generated/FREERTOS/queue.c **** 
2513:../Dave/Generated/FREERTOS/queue.c ****     BaseType_t xQueueCRReceive( QueueHandle_t xQueue,
2514:../Dave/Generated/FREERTOS/queue.c ****                                 void * pvBuffer,
2515:../Dave/Generated/FREERTOS/queue.c ****                                 TickType_t xTicksToWait )
2516:../Dave/Generated/FREERTOS/queue.c ****     {
2517:../Dave/Generated/FREERTOS/queue.c ****         BaseType_t xReturn;
2518:../Dave/Generated/FREERTOS/queue.c ****         Queue_t * const pxQueue = xQueue;
2519:../Dave/Generated/FREERTOS/queue.c **** 
2520:../Dave/Generated/FREERTOS/queue.c ****         /* If the queue is already empty we may have to block.  A critical section
2521:../Dave/Generated/FREERTOS/queue.c ****          * is required to prevent an interrupt adding something to the queue
2522:../Dave/Generated/FREERTOS/queue.c ****          * between the check to see if the queue is empty and blocking on the queue. */
2523:../Dave/Generated/FREERTOS/queue.c ****         portDISABLE_INTERRUPTS();
2524:../Dave/Generated/FREERTOS/queue.c ****         {
2525:../Dave/Generated/FREERTOS/queue.c ****             if( pxQueue->uxMessagesWaiting == ( UBaseType_t ) 0 )
2526:../Dave/Generated/FREERTOS/queue.c ****             {
2527:../Dave/Generated/FREERTOS/queue.c ****                 /* There are no messages in the queue, do we want to block or just
2528:../Dave/Generated/FREERTOS/queue.c ****                  * leave with nothing? */
2529:../Dave/Generated/FREERTOS/queue.c ****                 if( xTicksToWait > ( TickType_t ) 0 )
2530:../Dave/Generated/FREERTOS/queue.c ****                 {
2531:../Dave/Generated/FREERTOS/queue.c ****                     /* As this is a co-routine we cannot block directly, but return
2532:../Dave/Generated/FREERTOS/queue.c ****                      * indicating that we need to block. */
2533:../Dave/Generated/FREERTOS/queue.c ****                     vCoRoutineAddToDelayedList( xTicksToWait, &( pxQueue->xTasksWaitingToReceive ) 
2534:../Dave/Generated/FREERTOS/queue.c ****                     portENABLE_INTERRUPTS();
2535:../Dave/Generated/FREERTOS/queue.c ****                     return errQUEUE_BLOCKED;
2536:../Dave/Generated/FREERTOS/queue.c ****                 }
2537:../Dave/Generated/FREERTOS/queue.c ****                 else
2538:../Dave/Generated/FREERTOS/queue.c ****                 {
2539:../Dave/Generated/FREERTOS/queue.c ****                     portENABLE_INTERRUPTS();
2540:../Dave/Generated/FREERTOS/queue.c ****                     return errQUEUE_FULL;
2541:../Dave/Generated/FREERTOS/queue.c ****                 }
2542:../Dave/Generated/FREERTOS/queue.c ****             }
2543:../Dave/Generated/FREERTOS/queue.c ****             else
2544:../Dave/Generated/FREERTOS/queue.c ****             {
2545:../Dave/Generated/FREERTOS/queue.c ****                 mtCOVERAGE_TEST_MARKER();
2546:../Dave/Generated/FREERTOS/queue.c ****             }
2547:../Dave/Generated/FREERTOS/queue.c ****         }
2548:../Dave/Generated/FREERTOS/queue.c ****         portENABLE_INTERRUPTS();
2549:../Dave/Generated/FREERTOS/queue.c **** 
2550:../Dave/Generated/FREERTOS/queue.c ****         portDISABLE_INTERRUPTS();
2551:../Dave/Generated/FREERTOS/queue.c ****         {
2552:../Dave/Generated/FREERTOS/queue.c ****             if( pxQueue->uxMessagesWaiting > ( UBaseType_t ) 0 )
2553:../Dave/Generated/FREERTOS/queue.c ****             {
2554:../Dave/Generated/FREERTOS/queue.c ****                 /* Data is available from the queue. */
2555:../Dave/Generated/FREERTOS/queue.c ****                 pxQueue->u.xQueue.pcReadFrom += pxQueue->uxItemSize;
2556:../Dave/Generated/FREERTOS/queue.c **** 
2557:../Dave/Generated/FREERTOS/queue.c ****                 if( pxQueue->u.xQueue.pcReadFrom >= pxQueue->u.xQueue.pcTail )
2558:../Dave/Generated/FREERTOS/queue.c ****                 {
2559:../Dave/Generated/FREERTOS/queue.c ****                     pxQueue->u.xQueue.pcReadFrom = pxQueue->pcHead;
2560:../Dave/Generated/FREERTOS/queue.c ****                 }
2561:../Dave/Generated/FREERTOS/queue.c ****                 else
2562:../Dave/Generated/FREERTOS/queue.c ****                 {
2563:../Dave/Generated/FREERTOS/queue.c ****                     mtCOVERAGE_TEST_MARKER();
2564:../Dave/Generated/FREERTOS/queue.c ****                 }
2565:../Dave/Generated/FREERTOS/queue.c **** 
2566:../Dave/Generated/FREERTOS/queue.c ****                 --( pxQueue->uxMessagesWaiting );
2567:../Dave/Generated/FREERTOS/queue.c ****                 ( void ) memcpy( ( void * ) pvBuffer, ( void * ) pxQueue->u.xQueue.pcReadFrom, ( un
2568:../Dave/Generated/FREERTOS/queue.c **** 
2569:../Dave/Generated/FREERTOS/queue.c ****                 xReturn = pdPASS;
2570:../Dave/Generated/FREERTOS/queue.c **** 
2571:../Dave/Generated/FREERTOS/queue.c ****                 /* Were any co-routines waiting for space to become available? */
2572:../Dave/Generated/FREERTOS/queue.c ****                 if( listLIST_IS_EMPTY( &( pxQueue->xTasksWaitingToSend ) ) == pdFALSE )
2573:../Dave/Generated/FREERTOS/queue.c ****                 {
2574:../Dave/Generated/FREERTOS/queue.c ****                     /* In this instance the co-routine could be placed directly
2575:../Dave/Generated/FREERTOS/queue.c ****                      * into the ready list as we are within a critical section.
2576:../Dave/Generated/FREERTOS/queue.c ****                      * Instead the same pending ready list mechanism is used as if
2577:../Dave/Generated/FREERTOS/queue.c ****                      * the event were caused from within an interrupt. */
2578:../Dave/Generated/FREERTOS/queue.c ****                     if( xCoRoutineRemoveFromEventList( &( pxQueue->xTasksWaitingToSend ) ) != pdFAL
2579:../Dave/Generated/FREERTOS/queue.c ****                     {
2580:../Dave/Generated/FREERTOS/queue.c ****                         xReturn = errQUEUE_YIELD;
2581:../Dave/Generated/FREERTOS/queue.c ****                     }
2582:../Dave/Generated/FREERTOS/queue.c ****                     else
2583:../Dave/Generated/FREERTOS/queue.c ****                     {
2584:../Dave/Generated/FREERTOS/queue.c ****                         mtCOVERAGE_TEST_MARKER();
2585:../Dave/Generated/FREERTOS/queue.c ****                     }
2586:../Dave/Generated/FREERTOS/queue.c ****                 }
2587:../Dave/Generated/FREERTOS/queue.c ****                 else
2588:../Dave/Generated/FREERTOS/queue.c ****                 {
2589:../Dave/Generated/FREERTOS/queue.c ****                     mtCOVERAGE_TEST_MARKER();
2590:../Dave/Generated/FREERTOS/queue.c ****                 }
2591:../Dave/Generated/FREERTOS/queue.c ****             }
2592:../Dave/Generated/FREERTOS/queue.c ****             else
2593:../Dave/Generated/FREERTOS/queue.c ****             {
2594:../Dave/Generated/FREERTOS/queue.c ****                 xReturn = pdFAIL;
2595:../Dave/Generated/FREERTOS/queue.c ****             }
2596:../Dave/Generated/FREERTOS/queue.c ****         }
2597:../Dave/Generated/FREERTOS/queue.c ****         portENABLE_INTERRUPTS();
2598:../Dave/Generated/FREERTOS/queue.c **** 
2599:../Dave/Generated/FREERTOS/queue.c ****         return xReturn;
2600:../Dave/Generated/FREERTOS/queue.c ****     }
2601:../Dave/Generated/FREERTOS/queue.c **** 
2602:../Dave/Generated/FREERTOS/queue.c **** #endif /* configUSE_CO_ROUTINES */
2603:../Dave/Generated/FREERTOS/queue.c **** /*-----------------------------------------------------------*/
2604:../Dave/Generated/FREERTOS/queue.c **** 
2605:../Dave/Generated/FREERTOS/queue.c **** #if ( configUSE_CO_ROUTINES == 1 )
2606:../Dave/Generated/FREERTOS/queue.c **** 
2607:../Dave/Generated/FREERTOS/queue.c ****     BaseType_t xQueueCRSendFromISR( QueueHandle_t xQueue,
2608:../Dave/Generated/FREERTOS/queue.c ****                                     const void * pvItemToQueue,
2609:../Dave/Generated/FREERTOS/queue.c ****                                     BaseType_t xCoRoutinePreviouslyWoken )
2610:../Dave/Generated/FREERTOS/queue.c ****     {
2611:../Dave/Generated/FREERTOS/queue.c ****         Queue_t * const pxQueue = xQueue;
2612:../Dave/Generated/FREERTOS/queue.c **** 
2613:../Dave/Generated/FREERTOS/queue.c ****         /* Cannot block within an ISR so if there is no space on the queue then
2614:../Dave/Generated/FREERTOS/queue.c ****          * exit without doing anything. */
2615:../Dave/Generated/FREERTOS/queue.c ****         if( pxQueue->uxMessagesWaiting < pxQueue->uxLength )
2616:../Dave/Generated/FREERTOS/queue.c ****         {
2617:../Dave/Generated/FREERTOS/queue.c ****             prvCopyDataToQueue( pxQueue, pvItemToQueue, queueSEND_TO_BACK );
2618:../Dave/Generated/FREERTOS/queue.c **** 
2619:../Dave/Generated/FREERTOS/queue.c ****             /* We only want to wake one co-routine per ISR, so check that a
2620:../Dave/Generated/FREERTOS/queue.c ****              * co-routine has not already been woken. */
2621:../Dave/Generated/FREERTOS/queue.c ****             if( xCoRoutinePreviouslyWoken == pdFALSE )
2622:../Dave/Generated/FREERTOS/queue.c ****             {
2623:../Dave/Generated/FREERTOS/queue.c ****                 if( listLIST_IS_EMPTY( &( pxQueue->xTasksWaitingToReceive ) ) == pdFALSE )
2624:../Dave/Generated/FREERTOS/queue.c ****                 {
2625:../Dave/Generated/FREERTOS/queue.c ****                     if( xCoRoutineRemoveFromEventList( &( pxQueue->xTasksWaitingToReceive ) ) != pd
2626:../Dave/Generated/FREERTOS/queue.c ****                     {
2627:../Dave/Generated/FREERTOS/queue.c ****                         return pdTRUE;
2628:../Dave/Generated/FREERTOS/queue.c ****                     }
2629:../Dave/Generated/FREERTOS/queue.c ****                     else
2630:../Dave/Generated/FREERTOS/queue.c ****                     {
2631:../Dave/Generated/FREERTOS/queue.c ****                         mtCOVERAGE_TEST_MARKER();
2632:../Dave/Generated/FREERTOS/queue.c ****                     }
2633:../Dave/Generated/FREERTOS/queue.c ****                 }
2634:../Dave/Generated/FREERTOS/queue.c ****                 else
2635:../Dave/Generated/FREERTOS/queue.c ****                 {
2636:../Dave/Generated/FREERTOS/queue.c ****                     mtCOVERAGE_TEST_MARKER();
2637:../Dave/Generated/FREERTOS/queue.c ****                 }
2638:../Dave/Generated/FREERTOS/queue.c ****             }
2639:../Dave/Generated/FREERTOS/queue.c ****             else
2640:../Dave/Generated/FREERTOS/queue.c ****             {
2641:../Dave/Generated/FREERTOS/queue.c ****                 mtCOVERAGE_TEST_MARKER();
2642:../Dave/Generated/FREERTOS/queue.c ****             }
2643:../Dave/Generated/FREERTOS/queue.c ****         }
2644:../Dave/Generated/FREERTOS/queue.c ****         else
2645:../Dave/Generated/FREERTOS/queue.c ****         {
2646:../Dave/Generated/FREERTOS/queue.c ****             mtCOVERAGE_TEST_MARKER();
2647:../Dave/Generated/FREERTOS/queue.c ****         }
2648:../Dave/Generated/FREERTOS/queue.c **** 
2649:../Dave/Generated/FREERTOS/queue.c ****         return xCoRoutinePreviouslyWoken;
2650:../Dave/Generated/FREERTOS/queue.c ****     }
2651:../Dave/Generated/FREERTOS/queue.c **** 
2652:../Dave/Generated/FREERTOS/queue.c **** #endif /* configUSE_CO_ROUTINES */
2653:../Dave/Generated/FREERTOS/queue.c **** /*-----------------------------------------------------------*/
2654:../Dave/Generated/FREERTOS/queue.c **** 
2655:../Dave/Generated/FREERTOS/queue.c **** #if ( configUSE_CO_ROUTINES == 1 )
2656:../Dave/Generated/FREERTOS/queue.c **** 
2657:../Dave/Generated/FREERTOS/queue.c ****     BaseType_t xQueueCRReceiveFromISR( QueueHandle_t xQueue,
2658:../Dave/Generated/FREERTOS/queue.c ****                                        void * pvBuffer,
2659:../Dave/Generated/FREERTOS/queue.c ****                                        BaseType_t * pxCoRoutineWoken )
2660:../Dave/Generated/FREERTOS/queue.c ****     {
2661:../Dave/Generated/FREERTOS/queue.c ****         BaseType_t xReturn;
2662:../Dave/Generated/FREERTOS/queue.c ****         Queue_t * const pxQueue = xQueue;
2663:../Dave/Generated/FREERTOS/queue.c **** 
2664:../Dave/Generated/FREERTOS/queue.c ****         /* We cannot block from an ISR, so check there is data available. If
2665:../Dave/Generated/FREERTOS/queue.c ****          * not then just leave without doing anything. */
2666:../Dave/Generated/FREERTOS/queue.c ****         if( pxQueue->uxMessagesWaiting > ( UBaseType_t ) 0 )
2667:../Dave/Generated/FREERTOS/queue.c ****         {
2668:../Dave/Generated/FREERTOS/queue.c ****             /* Copy the data from the queue. */
2669:../Dave/Generated/FREERTOS/queue.c ****             pxQueue->u.xQueue.pcReadFrom += pxQueue->uxItemSize;
2670:../Dave/Generated/FREERTOS/queue.c **** 
2671:../Dave/Generated/FREERTOS/queue.c ****             if( pxQueue->u.xQueue.pcReadFrom >= pxQueue->u.xQueue.pcTail )
2672:../Dave/Generated/FREERTOS/queue.c ****             {
2673:../Dave/Generated/FREERTOS/queue.c ****                 pxQueue->u.xQueue.pcReadFrom = pxQueue->pcHead;
2674:../Dave/Generated/FREERTOS/queue.c ****             }
2675:../Dave/Generated/FREERTOS/queue.c ****             else
2676:../Dave/Generated/FREERTOS/queue.c ****             {
2677:../Dave/Generated/FREERTOS/queue.c ****                 mtCOVERAGE_TEST_MARKER();
2678:../Dave/Generated/FREERTOS/queue.c ****             }
2679:../Dave/Generated/FREERTOS/queue.c **** 
2680:../Dave/Generated/FREERTOS/queue.c ****             --( pxQueue->uxMessagesWaiting );
2681:../Dave/Generated/FREERTOS/queue.c ****             ( void ) memcpy( ( void * ) pvBuffer, ( void * ) pxQueue->u.xQueue.pcReadFrom, ( unsign
2682:../Dave/Generated/FREERTOS/queue.c **** 
2683:../Dave/Generated/FREERTOS/queue.c ****             if( ( *pxCoRoutineWoken ) == pdFALSE )
2684:../Dave/Generated/FREERTOS/queue.c ****             {
2685:../Dave/Generated/FREERTOS/queue.c ****                 if( listLIST_IS_EMPTY( &( pxQueue->xTasksWaitingToSend ) ) == pdFALSE )
2686:../Dave/Generated/FREERTOS/queue.c ****                 {
2687:../Dave/Generated/FREERTOS/queue.c ****                     if( xCoRoutineRemoveFromEventList( &( pxQueue->xTasksWaitingToSend ) ) != pdFAL
2688:../Dave/Generated/FREERTOS/queue.c ****                     {
2689:../Dave/Generated/FREERTOS/queue.c ****                         *pxCoRoutineWoken = pdTRUE;
2690:../Dave/Generated/FREERTOS/queue.c ****                     }
2691:../Dave/Generated/FREERTOS/queue.c ****                     else
2692:../Dave/Generated/FREERTOS/queue.c ****                     {
2693:../Dave/Generated/FREERTOS/queue.c ****                         mtCOVERAGE_TEST_MARKER();
2694:../Dave/Generated/FREERTOS/queue.c ****                     }
2695:../Dave/Generated/FREERTOS/queue.c ****                 }
2696:../Dave/Generated/FREERTOS/queue.c ****                 else
2697:../Dave/Generated/FREERTOS/queue.c ****                 {
2698:../Dave/Generated/FREERTOS/queue.c ****                     mtCOVERAGE_TEST_MARKER();
2699:../Dave/Generated/FREERTOS/queue.c ****                 }
2700:../Dave/Generated/FREERTOS/queue.c ****             }
2701:../Dave/Generated/FREERTOS/queue.c ****             else
2702:../Dave/Generated/FREERTOS/queue.c ****             {
2703:../Dave/Generated/FREERTOS/queue.c ****                 mtCOVERAGE_TEST_MARKER();
2704:../Dave/Generated/FREERTOS/queue.c ****             }
2705:../Dave/Generated/FREERTOS/queue.c **** 
2706:../Dave/Generated/FREERTOS/queue.c ****             xReturn = pdPASS;
2707:../Dave/Generated/FREERTOS/queue.c ****         }
2708:../Dave/Generated/FREERTOS/queue.c ****         else
2709:../Dave/Generated/FREERTOS/queue.c ****         {
2710:../Dave/Generated/FREERTOS/queue.c ****             xReturn = pdFAIL;
2711:../Dave/Generated/FREERTOS/queue.c ****         }
2712:../Dave/Generated/FREERTOS/queue.c **** 
2713:../Dave/Generated/FREERTOS/queue.c ****         return xReturn;
2714:../Dave/Generated/FREERTOS/queue.c ****     }
2715:../Dave/Generated/FREERTOS/queue.c **** 
2716:../Dave/Generated/FREERTOS/queue.c **** #endif /* configUSE_CO_ROUTINES */
2717:../Dave/Generated/FREERTOS/queue.c **** /*-----------------------------------------------------------*/
2718:../Dave/Generated/FREERTOS/queue.c **** 
2719:../Dave/Generated/FREERTOS/queue.c **** #if ( configQUEUE_REGISTRY_SIZE > 0 )
2720:../Dave/Generated/FREERTOS/queue.c **** 
2721:../Dave/Generated/FREERTOS/queue.c ****     void vQueueAddToRegistry( QueueHandle_t xQueue,
2722:../Dave/Generated/FREERTOS/queue.c ****                               const char * pcQueueName ) /*lint !e971 Unqualified char types are al
2723:../Dave/Generated/FREERTOS/queue.c ****     {
 4901              	 .loc 1 2723 0
 4902              	 .cfi_startproc
 4903              	 
 4904              	 
 4905              	 
 4906 0000 80B4     	 push {r7}
 4907              	.LCFI188:
 4908              	 .cfi_def_cfa_offset 4
 4909              	 .cfi_offset 7,-4
 4910 0002 85B0     	 sub sp,sp,#20
 4911              	.LCFI189:
 4912              	 .cfi_def_cfa_offset 24
 4913 0004 00AF     	 add r7,sp,#0
 4914              	.LCFI190:
 4915              	 .cfi_def_cfa_register 7
 4916 0006 7860     	 str r0,[r7,#4]
 4917 0008 3960     	 str r1,[r7]
2724:../Dave/Generated/FREERTOS/queue.c ****         UBaseType_t ux;
2725:../Dave/Generated/FREERTOS/queue.c **** 
2726:../Dave/Generated/FREERTOS/queue.c ****         /* See if there is an empty space in the registry.  A NULL name denotes
2727:../Dave/Generated/FREERTOS/queue.c ****          * a free slot. */
2728:../Dave/Generated/FREERTOS/queue.c ****         for( ux = ( UBaseType_t ) 0U; ux < ( UBaseType_t ) configQUEUE_REGISTRY_SIZE; ux++ )
 4918              	 .loc 1 2728 0
 4919 000a 0023     	 movs r3,#0
 4920 000c FB60     	 str r3,[r7,#12]
 4921 000e 14E0     	 b .L348
 4922              	.L351:
2729:../Dave/Generated/FREERTOS/queue.c ****         {
2730:../Dave/Generated/FREERTOS/queue.c ****             if( xQueueRegistry[ ux ].pcQueueName == NULL )
 4923              	 .loc 1 2730 0
 4924 0010 0E4A     	 ldr r2,.L352
 4925 0012 FB68     	 ldr r3,[r7,#12]
 4926 0014 52F83330 	 ldr r3,[r2,r3,lsl#3]
 4927 0018 002B     	 cmp r3,#0
 4928 001a 0BD1     	 bne .L349
2731:../Dave/Generated/FREERTOS/queue.c ****             {
2732:../Dave/Generated/FREERTOS/queue.c ****                 /* Store the information on this queue. */
2733:../Dave/Generated/FREERTOS/queue.c ****                 xQueueRegistry[ ux ].pcQueueName = pcQueueName;
 4929              	 .loc 1 2733 0
 4930 001c 0B49     	 ldr r1,.L352
 4931 001e FB68     	 ldr r3,[r7,#12]
 4932 0020 3A68     	 ldr r2,[r7]
 4933 0022 41F83320 	 str r2,[r1,r3,lsl#3]
2734:../Dave/Generated/FREERTOS/queue.c ****                 xQueueRegistry[ ux ].xHandle = xQueue;
 4934              	 .loc 1 2734 0
 4935 0026 094A     	 ldr r2,.L352
 4936 0028 FB68     	 ldr r3,[r7,#12]
 4937 002a DB00     	 lsls r3,r3,#3
 4938 002c 1344     	 add r3,r3,r2
 4939 002e 7A68     	 ldr r2,[r7,#4]
 4940 0030 5A60     	 str r2,[r3,#4]
2735:../Dave/Generated/FREERTOS/queue.c **** 
2736:../Dave/Generated/FREERTOS/queue.c ****                 traceQUEUE_REGISTRY_ADD( xQueue, pcQueueName );
2737:../Dave/Generated/FREERTOS/queue.c ****                 break;
 4941              	 .loc 1 2737 0
 4942 0032 05E0     	 b .L347
 4943              	.L349:
2728:../Dave/Generated/FREERTOS/queue.c ****         {
 4944              	 .loc 1 2728 0 discriminator 2
 4945 0034 FB68     	 ldr r3,[r7,#12]
 4946 0036 0133     	 adds r3,r3,#1
 4947 0038 FB60     	 str r3,[r7,#12]
 4948              	.L348:
2728:../Dave/Generated/FREERTOS/queue.c ****         {
 4949              	 .loc 1 2728 0 is_stmt 0 discriminator 1
 4950 003a FB68     	 ldr r3,[r7,#12]
 4951 003c 072B     	 cmp r3,#7
 4952 003e E7D9     	 bls .L351
 4953              	.L347:
2738:../Dave/Generated/FREERTOS/queue.c ****             }
2739:../Dave/Generated/FREERTOS/queue.c ****             else
2740:../Dave/Generated/FREERTOS/queue.c ****             {
2741:../Dave/Generated/FREERTOS/queue.c ****                 mtCOVERAGE_TEST_MARKER();
2742:../Dave/Generated/FREERTOS/queue.c ****             }
2743:../Dave/Generated/FREERTOS/queue.c ****         }
2744:../Dave/Generated/FREERTOS/queue.c ****     }
 4954              	 .loc 1 2744 0 is_stmt 1
 4955 0040 1437     	 adds r7,r7,#20
 4956              	.LCFI191:
 4957              	 .cfi_def_cfa_offset 4
 4958 0042 BD46     	 mov sp,r7
 4959              	.LCFI192:
 4960              	 .cfi_def_cfa_register 13
 4961              	 
 4962 0044 5DF8047B 	 ldr r7,[sp],#4
 4963              	.LCFI193:
 4964              	 .cfi_restore 7
 4965              	 .cfi_def_cfa_offset 0
 4966 0048 7047     	 bx lr
 4967              	.L353:
 4968 004a 00BF     	 .align 2
 4969              	.L352:
 4970 004c 00000000 	 .word xQueueRegistry
 4971              	 .cfi_endproc
 4972              	.LFE173:
 4974              	 .section .text.pcQueueGetName,"ax",%progbits
 4975              	 .align 2
 4976              	 .global pcQueueGetName
 4977              	 .thumb
 4978              	 .thumb_func
 4980              	pcQueueGetName:
 4981              	.LFB174:
2745:../Dave/Generated/FREERTOS/queue.c **** 
2746:../Dave/Generated/FREERTOS/queue.c **** #endif /* configQUEUE_REGISTRY_SIZE */
2747:../Dave/Generated/FREERTOS/queue.c **** /*-----------------------------------------------------------*/
2748:../Dave/Generated/FREERTOS/queue.c **** 
2749:../Dave/Generated/FREERTOS/queue.c **** #if ( configQUEUE_REGISTRY_SIZE > 0 )
2750:../Dave/Generated/FREERTOS/queue.c **** 
2751:../Dave/Generated/FREERTOS/queue.c ****     const char * pcQueueGetName( QueueHandle_t xQueue ) /*lint !e971 Unqualified char types are all
2752:../Dave/Generated/FREERTOS/queue.c ****     {
 4982              	 .loc 1 2752 0
 4983              	 .cfi_startproc
 4984              	 
 4985              	 
 4986              	 
 4987 0000 80B4     	 push {r7}
 4988              	.LCFI194:
 4989              	 .cfi_def_cfa_offset 4
 4990              	 .cfi_offset 7,-4
 4991 0002 85B0     	 sub sp,sp,#20
 4992              	.LCFI195:
 4993              	 .cfi_def_cfa_offset 24
 4994 0004 00AF     	 add r7,sp,#0
 4995              	.LCFI196:
 4996              	 .cfi_def_cfa_register 7
 4997 0006 7860     	 str r0,[r7,#4]
2753:../Dave/Generated/FREERTOS/queue.c ****         UBaseType_t ux;
2754:../Dave/Generated/FREERTOS/queue.c ****         const char * pcReturn = NULL; /*lint !e971 Unqualified char types are allowed for strings a
 4998              	 .loc 1 2754 0
 4999 0008 0023     	 movs r3,#0
 5000 000a BB60     	 str r3,[r7,#8]
2755:../Dave/Generated/FREERTOS/queue.c **** 
2756:../Dave/Generated/FREERTOS/queue.c ****         /* Note there is nothing here to protect against another task adding or
2757:../Dave/Generated/FREERTOS/queue.c ****          * removing entries from the registry while it is being searched. */
2758:../Dave/Generated/FREERTOS/queue.c **** 
2759:../Dave/Generated/FREERTOS/queue.c ****         for( ux = ( UBaseType_t ) 0U; ux < ( UBaseType_t ) configQUEUE_REGISTRY_SIZE; ux++ )
 5001              	 .loc 1 2759 0
 5002 000c 0023     	 movs r3,#0
 5003 000e FB60     	 str r3,[r7,#12]
 5004 0010 10E0     	 b .L355
 5005              	.L358:
2760:../Dave/Generated/FREERTOS/queue.c ****         {
2761:../Dave/Generated/FREERTOS/queue.c ****             if( xQueueRegistry[ ux ].xHandle == xQueue )
 5006              	 .loc 1 2761 0
 5007 0012 0D4A     	 ldr r2,.L360
 5008 0014 FB68     	 ldr r3,[r7,#12]
 5009 0016 DB00     	 lsls r3,r3,#3
 5010 0018 1344     	 add r3,r3,r2
 5011 001a 5A68     	 ldr r2,[r3,#4]
 5012 001c 7B68     	 ldr r3,[r7,#4]
 5013 001e 9A42     	 cmp r2,r3
 5014 0020 05D1     	 bne .L356
2762:../Dave/Generated/FREERTOS/queue.c ****             {
2763:../Dave/Generated/FREERTOS/queue.c ****                 pcReturn = xQueueRegistry[ ux ].pcQueueName;
 5015              	 .loc 1 2763 0
 5016 0022 094A     	 ldr r2,.L360
 5017 0024 FB68     	 ldr r3,[r7,#12]
 5018 0026 52F83330 	 ldr r3,[r2,r3,lsl#3]
 5019 002a BB60     	 str r3,[r7,#8]
2764:../Dave/Generated/FREERTOS/queue.c ****                 break;
 5020              	 .loc 1 2764 0
 5021 002c 05E0     	 b .L357
 5022              	.L356:
2759:../Dave/Generated/FREERTOS/queue.c ****         {
 5023              	 .loc 1 2759 0 discriminator 2
 5024 002e FB68     	 ldr r3,[r7,#12]
 5025 0030 0133     	 adds r3,r3,#1
 5026 0032 FB60     	 str r3,[r7,#12]
 5027              	.L355:
2759:../Dave/Generated/FREERTOS/queue.c ****         {
 5028              	 .loc 1 2759 0 is_stmt 0 discriminator 1
 5029 0034 FB68     	 ldr r3,[r7,#12]
 5030 0036 072B     	 cmp r3,#7
 5031 0038 EBD9     	 bls .L358
 5032              	.L357:
2765:../Dave/Generated/FREERTOS/queue.c ****             }
2766:../Dave/Generated/FREERTOS/queue.c ****             else
2767:../Dave/Generated/FREERTOS/queue.c ****             {
2768:../Dave/Generated/FREERTOS/queue.c ****                 mtCOVERAGE_TEST_MARKER();
2769:../Dave/Generated/FREERTOS/queue.c ****             }
2770:../Dave/Generated/FREERTOS/queue.c ****         }
2771:../Dave/Generated/FREERTOS/queue.c **** 
2772:../Dave/Generated/FREERTOS/queue.c ****         return pcReturn;
 5033              	 .loc 1 2772 0 is_stmt 1
 5034 003a BB68     	 ldr r3,[r7,#8]
2773:../Dave/Generated/FREERTOS/queue.c ****     } /*lint !e818 xQueue cannot be a pointer to const because it is a typedef. */
 5035              	 .loc 1 2773 0
 5036 003c 1846     	 mov r0,r3
 5037 003e 1437     	 adds r7,r7,#20
 5038              	.LCFI197:
 5039              	 .cfi_def_cfa_offset 4
 5040 0040 BD46     	 mov sp,r7
 5041              	.LCFI198:
 5042              	 .cfi_def_cfa_register 13
 5043              	 
 5044 0042 5DF8047B 	 ldr r7,[sp],#4
 5045              	.LCFI199:
 5046              	 .cfi_restore 7
 5047              	 .cfi_def_cfa_offset 0
 5048 0046 7047     	 bx lr
 5049              	.L361:
 5050              	 .align 2
 5051              	.L360:
 5052 0048 00000000 	 .word xQueueRegistry
 5053              	 .cfi_endproc
 5054              	.LFE174:
 5056              	 .section .text.vQueueUnregisterQueue,"ax",%progbits
 5057              	 .align 2
 5058              	 .global vQueueUnregisterQueue
 5059              	 .thumb
 5060              	 .thumb_func
 5062              	vQueueUnregisterQueue:
 5063              	.LFB175:
2774:../Dave/Generated/FREERTOS/queue.c **** 
2775:../Dave/Generated/FREERTOS/queue.c **** #endif /* configQUEUE_REGISTRY_SIZE */
2776:../Dave/Generated/FREERTOS/queue.c **** /*-----------------------------------------------------------*/
2777:../Dave/Generated/FREERTOS/queue.c **** 
2778:../Dave/Generated/FREERTOS/queue.c **** #if ( configQUEUE_REGISTRY_SIZE > 0 )
2779:../Dave/Generated/FREERTOS/queue.c **** 
2780:../Dave/Generated/FREERTOS/queue.c ****     void vQueueUnregisterQueue( QueueHandle_t xQueue )
2781:../Dave/Generated/FREERTOS/queue.c ****     {
 5064              	 .loc 1 2781 0
 5065              	 .cfi_startproc
 5066              	 
 5067              	 
 5068              	 
 5069 0000 80B4     	 push {r7}
 5070              	.LCFI200:
 5071              	 .cfi_def_cfa_offset 4
 5072              	 .cfi_offset 7,-4
 5073 0002 85B0     	 sub sp,sp,#20
 5074              	.LCFI201:
 5075              	 .cfi_def_cfa_offset 24
 5076 0004 00AF     	 add r7,sp,#0
 5077              	.LCFI202:
 5078              	 .cfi_def_cfa_register 7
 5079 0006 7860     	 str r0,[r7,#4]
2782:../Dave/Generated/FREERTOS/queue.c ****         UBaseType_t ux;
2783:../Dave/Generated/FREERTOS/queue.c **** 
2784:../Dave/Generated/FREERTOS/queue.c ****         /* See if the handle of the queue being unregistered in actually in the
2785:../Dave/Generated/FREERTOS/queue.c ****          * registry. */
2786:../Dave/Generated/FREERTOS/queue.c ****         for( ux = ( UBaseType_t ) 0U; ux < ( UBaseType_t ) configQUEUE_REGISTRY_SIZE; ux++ )
 5080              	 .loc 1 2786 0
 5081 0008 0023     	 movs r3,#0
 5082 000a FB60     	 str r3,[r7,#12]
 5083 000c 16E0     	 b .L363
 5084              	.L366:
2787:../Dave/Generated/FREERTOS/queue.c ****         {
2788:../Dave/Generated/FREERTOS/queue.c ****             if( xQueueRegistry[ ux ].xHandle == xQueue )
 5085              	 .loc 1 2788 0
 5086 000e 0F4A     	 ldr r2,.L367
 5087 0010 FB68     	 ldr r3,[r7,#12]
 5088 0012 DB00     	 lsls r3,r3,#3
 5089 0014 1344     	 add r3,r3,r2
 5090 0016 5A68     	 ldr r2,[r3,#4]
 5091 0018 7B68     	 ldr r3,[r7,#4]
 5092 001a 9A42     	 cmp r2,r3
 5093 001c 0BD1     	 bne .L364
2789:../Dave/Generated/FREERTOS/queue.c ****             {
2790:../Dave/Generated/FREERTOS/queue.c ****                 /* Set the name to NULL to show that this slot if free again. */
2791:../Dave/Generated/FREERTOS/queue.c ****                 xQueueRegistry[ ux ].pcQueueName = NULL;
 5094              	 .loc 1 2791 0
 5095 001e 0B4A     	 ldr r2,.L367
 5096 0020 FB68     	 ldr r3,[r7,#12]
 5097 0022 0021     	 movs r1,#0
 5098 0024 42F83310 	 str r1,[r2,r3,lsl#3]
2792:../Dave/Generated/FREERTOS/queue.c **** 
2793:../Dave/Generated/FREERTOS/queue.c ****                 /* Set the handle to NULL to ensure the same queue handle cannot
2794:../Dave/Generated/FREERTOS/queue.c ****                  * appear in the registry twice if it is added, removed, then
2795:../Dave/Generated/FREERTOS/queue.c ****                  * added again. */
2796:../Dave/Generated/FREERTOS/queue.c ****                 xQueueRegistry[ ux ].xHandle = ( QueueHandle_t ) 0;
 5099              	 .loc 1 2796 0
 5100 0028 084A     	 ldr r2,.L367
 5101 002a FB68     	 ldr r3,[r7,#12]
 5102 002c DB00     	 lsls r3,r3,#3
 5103 002e 1344     	 add r3,r3,r2
 5104 0030 0022     	 movs r2,#0
 5105 0032 5A60     	 str r2,[r3,#4]
2797:../Dave/Generated/FREERTOS/queue.c ****                 break;
 5106              	 .loc 1 2797 0
 5107 0034 05E0     	 b .L362
 5108              	.L364:
2786:../Dave/Generated/FREERTOS/queue.c ****         {
 5109              	 .loc 1 2786 0 discriminator 2
 5110 0036 FB68     	 ldr r3,[r7,#12]
 5111 0038 0133     	 adds r3,r3,#1
 5112 003a FB60     	 str r3,[r7,#12]
 5113              	.L363:
2786:../Dave/Generated/FREERTOS/queue.c ****         {
 5114              	 .loc 1 2786 0 is_stmt 0 discriminator 1
 5115 003c FB68     	 ldr r3,[r7,#12]
 5116 003e 072B     	 cmp r3,#7
 5117 0040 E5D9     	 bls .L366
 5118              	.L362:
2798:../Dave/Generated/FREERTOS/queue.c ****             }
2799:../Dave/Generated/FREERTOS/queue.c ****             else
2800:../Dave/Generated/FREERTOS/queue.c ****             {
2801:../Dave/Generated/FREERTOS/queue.c ****                 mtCOVERAGE_TEST_MARKER();
2802:../Dave/Generated/FREERTOS/queue.c ****             }
2803:../Dave/Generated/FREERTOS/queue.c ****         }
2804:../Dave/Generated/FREERTOS/queue.c ****     } /*lint !e818 xQueue could not be pointer to const because it is a typedef. */
 5119              	 .loc 1 2804 0 is_stmt 1
 5120 0042 1437     	 adds r7,r7,#20
 5121              	.LCFI203:
 5122              	 .cfi_def_cfa_offset 4
 5123 0044 BD46     	 mov sp,r7
 5124              	.LCFI204:
 5125              	 .cfi_def_cfa_register 13
 5126              	 
 5127 0046 5DF8047B 	 ldr r7,[sp],#4
 5128              	.LCFI205:
 5129              	 .cfi_restore 7
 5130              	 .cfi_def_cfa_offset 0
 5131 004a 7047     	 bx lr
 5132              	.L368:
 5133              	 .align 2
 5134              	.L367:
 5135 004c 00000000 	 .word xQueueRegistry
 5136              	 .cfi_endproc
 5137              	.LFE175:
 5139              	 .section .text.vQueueWaitForMessageRestricted,"ax",%progbits
 5140              	 .align 2
 5141              	 .global vQueueWaitForMessageRestricted
 5142              	 .thumb
 5143              	 .thumb_func
 5145              	vQueueWaitForMessageRestricted:
 5146              	.LFB176:
2805:../Dave/Generated/FREERTOS/queue.c **** 
2806:../Dave/Generated/FREERTOS/queue.c **** #endif /* configQUEUE_REGISTRY_SIZE */
2807:../Dave/Generated/FREERTOS/queue.c **** /*-----------------------------------------------------------*/
2808:../Dave/Generated/FREERTOS/queue.c **** 
2809:../Dave/Generated/FREERTOS/queue.c **** #if ( configUSE_TIMERS == 1 )
2810:../Dave/Generated/FREERTOS/queue.c **** 
2811:../Dave/Generated/FREERTOS/queue.c ****     void vQueueWaitForMessageRestricted( QueueHandle_t xQueue,
2812:../Dave/Generated/FREERTOS/queue.c ****                                          TickType_t xTicksToWait,
2813:../Dave/Generated/FREERTOS/queue.c ****                                          const BaseType_t xWaitIndefinitely )
2814:../Dave/Generated/FREERTOS/queue.c ****     {
 5147              	 .loc 1 2814 0
 5148              	 .cfi_startproc
 5149              	 
 5150              	 
 5151 0000 80B5     	 push {r7,lr}
 5152              	.LCFI206:
 5153              	 .cfi_def_cfa_offset 8
 5154              	 .cfi_offset 7,-8
 5155              	 .cfi_offset 14,-4
 5156 0002 86B0     	 sub sp,sp,#24
 5157              	.LCFI207:
 5158              	 .cfi_def_cfa_offset 32
 5159 0004 00AF     	 add r7,sp,#0
 5160              	.LCFI208:
 5161              	 .cfi_def_cfa_register 7
 5162 0006 F860     	 str r0,[r7,#12]
 5163 0008 B960     	 str r1,[r7,#8]
 5164 000a 7A60     	 str r2,[r7,#4]
2815:../Dave/Generated/FREERTOS/queue.c ****         Queue_t * const pxQueue = xQueue;
 5165              	 .loc 1 2815 0
 5166 000c FB68     	 ldr r3,[r7,#12]
 5167 000e 7B61     	 str r3,[r7,#20]
2816:../Dave/Generated/FREERTOS/queue.c **** 
2817:../Dave/Generated/FREERTOS/queue.c ****         /* This function should not be called by application code hence the
2818:../Dave/Generated/FREERTOS/queue.c ****          * 'Restricted' in its name.  It is not part of the public API.  It is
2819:../Dave/Generated/FREERTOS/queue.c ****          * designed for use by kernel code, and has special calling requirements.
2820:../Dave/Generated/FREERTOS/queue.c ****          * It can result in vListInsert() being called on a list that can only
2821:../Dave/Generated/FREERTOS/queue.c ****          * possibly ever have one item in it, so the list will be fast, but even
2822:../Dave/Generated/FREERTOS/queue.c ****          * so it should be called with the scheduler locked and not from a critical
2823:../Dave/Generated/FREERTOS/queue.c ****          * section. */
2824:../Dave/Generated/FREERTOS/queue.c **** 
2825:../Dave/Generated/FREERTOS/queue.c ****         /* Only do anything if there are no messages in the queue.  This function
2826:../Dave/Generated/FREERTOS/queue.c ****          *  will not actually cause the task to block, just place it on a blocked
2827:../Dave/Generated/FREERTOS/queue.c ****          *  list.  It will not block until the scheduler is unlocked - at which
2828:../Dave/Generated/FREERTOS/queue.c ****          *  time a yield will be performed.  If an item is added to the queue while
2829:../Dave/Generated/FREERTOS/queue.c ****          *  the queue is locked, and the calling task blocks on the queue, then the
2830:../Dave/Generated/FREERTOS/queue.c ****          *  calling task will be immediately unblocked when the queue is unlocked. */
2831:../Dave/Generated/FREERTOS/queue.c ****         prvLockQueue( pxQueue );
 5168              	 .loc 1 2831 0
 5169 0010 FFF7FEFF 	 bl vPortEnterCritical
 5170 0014 7B69     	 ldr r3,[r7,#20]
 5171 0016 93F84430 	 ldrb r3,[r3,#68]
 5172 001a DBB2     	 uxtb r3,r3
 5173 001c 5BB2     	 sxtb r3,r3
 5174 001e B3F1FF3F 	 cmp r3,#-1
 5175 0022 03D1     	 bne .L370
 5176              	 .loc 1 2831 0 is_stmt 0 discriminator 1
 5177 0024 7B69     	 ldr r3,[r7,#20]
 5178 0026 0022     	 movs r2,#0
 5179 0028 83F84420 	 strb r2,[r3,#68]
 5180              	.L370:
 5181              	 .loc 1 2831 0 discriminator 3
 5182 002c 7B69     	 ldr r3,[r7,#20]
 5183 002e 93F84530 	 ldrb r3,[r3,#69]
 5184 0032 DBB2     	 uxtb r3,r3
 5185 0034 5BB2     	 sxtb r3,r3
 5186 0036 B3F1FF3F 	 cmp r3,#-1
 5187 003a 03D1     	 bne .L371
 5188              	 .loc 1 2831 0 discriminator 4
 5189 003c 7B69     	 ldr r3,[r7,#20]
 5190 003e 0022     	 movs r2,#0
 5191 0040 83F84520 	 strb r2,[r3,#69]
 5192              	.L371:
 5193              	 .loc 1 2831 0 discriminator 6
 5194 0044 FFF7FEFF 	 bl vPortExitCritical
2832:../Dave/Generated/FREERTOS/queue.c **** 
2833:../Dave/Generated/FREERTOS/queue.c ****         if( pxQueue->uxMessagesWaiting == ( UBaseType_t ) 0U )
 5195              	 .loc 1 2833 0 is_stmt 1 discriminator 6
 5196 0048 7B69     	 ldr r3,[r7,#20]
 5197 004a 9B6B     	 ldr r3,[r3,#56]
 5198 004c 002B     	 cmp r3,#0
 5199 004e 06D1     	 bne .L372
2834:../Dave/Generated/FREERTOS/queue.c ****         {
2835:../Dave/Generated/FREERTOS/queue.c ****             /* There is nothing in the queue, block for the specified period. */
2836:../Dave/Generated/FREERTOS/queue.c ****             vTaskPlaceOnEventListRestricted( &( pxQueue->xTasksWaitingToReceive ), xTicksToWait, xW
 5200              	 .loc 1 2836 0
 5201 0050 7B69     	 ldr r3,[r7,#20]
 5202 0052 2433     	 adds r3,r3,#36
 5203 0054 1846     	 mov r0,r3
 5204 0056 B968     	 ldr r1,[r7,#8]
 5205 0058 7A68     	 ldr r2,[r7,#4]
 5206 005a FFF7FEFF 	 bl vTaskPlaceOnEventListRestricted
 5207              	.L372:
2837:../Dave/Generated/FREERTOS/queue.c ****         }
2838:../Dave/Generated/FREERTOS/queue.c ****         else
2839:../Dave/Generated/FREERTOS/queue.c ****         {
2840:../Dave/Generated/FREERTOS/queue.c ****             mtCOVERAGE_TEST_MARKER();
2841:../Dave/Generated/FREERTOS/queue.c ****         }
2842:../Dave/Generated/FREERTOS/queue.c **** 
2843:../Dave/Generated/FREERTOS/queue.c ****         prvUnlockQueue( pxQueue );
 5208              	 .loc 1 2843 0
 5209 005e 7869     	 ldr r0,[r7,#20]
 5210 0060 FFF7FEFF 	 bl prvUnlockQueue
2844:../Dave/Generated/FREERTOS/queue.c ****     }
 5211              	 .loc 1 2844 0
 5212 0064 1837     	 adds r7,r7,#24
 5213              	.LCFI209:
 5214              	 .cfi_def_cfa_offset 8
 5215 0066 BD46     	 mov sp,r7
 5216              	.LCFI210:
 5217              	 .cfi_def_cfa_register 13
 5218              	 
 5219 0068 80BD     	 pop {r7,pc}
 5220              	 .cfi_endproc
 5221              	.LFE176:
 5223 006a 00BF     	 .section .text.xQueueCreateSet,"ax",%progbits
 5224              	 .align 2
 5225              	 .global xQueueCreateSet
 5226              	 .thumb
 5227              	 .thumb_func
 5229              	xQueueCreateSet:
 5230              	.LFB177:
2845:../Dave/Generated/FREERTOS/queue.c **** 
2846:../Dave/Generated/FREERTOS/queue.c **** #endif /* configUSE_TIMERS */
2847:../Dave/Generated/FREERTOS/queue.c **** /*-----------------------------------------------------------*/
2848:../Dave/Generated/FREERTOS/queue.c **** 
2849:../Dave/Generated/FREERTOS/queue.c **** #if ( ( configUSE_QUEUE_SETS == 1 ) && ( configSUPPORT_DYNAMIC_ALLOCATION == 1 ) )
2850:../Dave/Generated/FREERTOS/queue.c **** 
2851:../Dave/Generated/FREERTOS/queue.c ****     QueueSetHandle_t xQueueCreateSet( const UBaseType_t uxEventQueueLength )
2852:../Dave/Generated/FREERTOS/queue.c ****     {
 5231              	 .loc 1 2852 0
 5232              	 .cfi_startproc
 5233              	 
 5234              	 
 5235 0000 80B5     	 push {r7,lr}
 5236              	.LCFI211:
 5237              	 .cfi_def_cfa_offset 8
 5238              	 .cfi_offset 7,-8
 5239              	 .cfi_offset 14,-4
 5240 0002 84B0     	 sub sp,sp,#16
 5241              	.LCFI212:
 5242              	 .cfi_def_cfa_offset 24
 5243 0004 00AF     	 add r7,sp,#0
 5244              	.LCFI213:
 5245              	 .cfi_def_cfa_register 7
 5246 0006 7860     	 str r0,[r7,#4]
2853:../Dave/Generated/FREERTOS/queue.c ****         QueueSetHandle_t pxQueue;
2854:../Dave/Generated/FREERTOS/queue.c **** 
2855:../Dave/Generated/FREERTOS/queue.c ****         pxQueue = xQueueGenericCreate( uxEventQueueLength, ( UBaseType_t ) sizeof( Queue_t * ), que
 5247              	 .loc 1 2855 0
 5248 0008 7868     	 ldr r0,[r7,#4]
 5249 000a 0421     	 movs r1,#4
 5250 000c 0022     	 movs r2,#0
 5251 000e FFF7FEFF 	 bl xQueueGenericCreate
 5252 0012 F860     	 str r0,[r7,#12]
2856:../Dave/Generated/FREERTOS/queue.c **** 
2857:../Dave/Generated/FREERTOS/queue.c ****         return pxQueue;
 5253              	 .loc 1 2857 0
 5254 0014 FB68     	 ldr r3,[r7,#12]
2858:../Dave/Generated/FREERTOS/queue.c ****     }
 5255              	 .loc 1 2858 0
 5256 0016 1846     	 mov r0,r3
 5257 0018 1037     	 adds r7,r7,#16
 5258              	.LCFI214:
 5259              	 .cfi_def_cfa_offset 8
 5260 001a BD46     	 mov sp,r7
 5261              	.LCFI215:
 5262              	 .cfi_def_cfa_register 13
 5263              	 
 5264 001c 80BD     	 pop {r7,pc}
 5265              	 .cfi_endproc
 5266              	.LFE177:
 5268 001e 00BF     	 .section .text.xQueueAddToSet,"ax",%progbits
 5269              	 .align 2
 5270              	 .global xQueueAddToSet
 5271              	 .thumb
 5272              	 .thumb_func
 5274              	xQueueAddToSet:
 5275              	.LFB178:
2859:../Dave/Generated/FREERTOS/queue.c **** 
2860:../Dave/Generated/FREERTOS/queue.c **** #endif /* configUSE_QUEUE_SETS */
2861:../Dave/Generated/FREERTOS/queue.c **** /*-----------------------------------------------------------*/
2862:../Dave/Generated/FREERTOS/queue.c **** 
2863:../Dave/Generated/FREERTOS/queue.c **** #if ( configUSE_QUEUE_SETS == 1 )
2864:../Dave/Generated/FREERTOS/queue.c **** 
2865:../Dave/Generated/FREERTOS/queue.c ****     BaseType_t xQueueAddToSet( QueueSetMemberHandle_t xQueueOrSemaphore,
2866:../Dave/Generated/FREERTOS/queue.c ****                                QueueSetHandle_t xQueueSet )
2867:../Dave/Generated/FREERTOS/queue.c ****     {
 5276              	 .loc 1 2867 0
 5277              	 .cfi_startproc
 5278              	 
 5279              	 
 5280 0000 80B5     	 push {r7,lr}
 5281              	.LCFI216:
 5282              	 .cfi_def_cfa_offset 8
 5283              	 .cfi_offset 7,-8
 5284              	 .cfi_offset 14,-4
 5285 0002 84B0     	 sub sp,sp,#16
 5286              	.LCFI217:
 5287              	 .cfi_def_cfa_offset 24
 5288 0004 00AF     	 add r7,sp,#0
 5289              	.LCFI218:
 5290              	 .cfi_def_cfa_register 7
 5291 0006 7860     	 str r0,[r7,#4]
 5292 0008 3960     	 str r1,[r7]
2868:../Dave/Generated/FREERTOS/queue.c ****         BaseType_t xReturn;
2869:../Dave/Generated/FREERTOS/queue.c **** 
2870:../Dave/Generated/FREERTOS/queue.c ****         taskENTER_CRITICAL();
 5293              	 .loc 1 2870 0
 5294 000a FFF7FEFF 	 bl vPortEnterCritical
2871:../Dave/Generated/FREERTOS/queue.c ****         {
2872:../Dave/Generated/FREERTOS/queue.c ****             if( ( ( Queue_t * ) xQueueOrSemaphore )->pxQueueSetContainer != NULL )
 5295              	 .loc 1 2872 0
 5296 000e 7B68     	 ldr r3,[r7,#4]
 5297 0010 9B6C     	 ldr r3,[r3,#72]
 5298 0012 002B     	 cmp r3,#0
 5299 0014 02D0     	 beq .L376
2873:../Dave/Generated/FREERTOS/queue.c ****             {
2874:../Dave/Generated/FREERTOS/queue.c ****                 /* Cannot add a queue/semaphore to more than one queue set. */
2875:../Dave/Generated/FREERTOS/queue.c ****                 xReturn = pdFAIL;
 5300              	 .loc 1 2875 0
 5301 0016 0023     	 movs r3,#0
 5302 0018 FB60     	 str r3,[r7,#12]
 5303 001a 0BE0     	 b .L377
 5304              	.L376:
2876:../Dave/Generated/FREERTOS/queue.c ****             }
2877:../Dave/Generated/FREERTOS/queue.c ****             else if( ( ( Queue_t * ) xQueueOrSemaphore )->uxMessagesWaiting != ( UBaseType_t ) 0 )
 5305              	 .loc 1 2877 0
 5306 001c 7B68     	 ldr r3,[r7,#4]
 5307 001e 9B6B     	 ldr r3,[r3,#56]
 5308 0020 002B     	 cmp r3,#0
 5309 0022 02D0     	 beq .L378
2878:../Dave/Generated/FREERTOS/queue.c ****             {
2879:../Dave/Generated/FREERTOS/queue.c ****                 /* Cannot add a queue/semaphore to a queue set if there are already
2880:../Dave/Generated/FREERTOS/queue.c ****                  * items in the queue/semaphore. */
2881:../Dave/Generated/FREERTOS/queue.c ****                 xReturn = pdFAIL;
 5310              	 .loc 1 2881 0
 5311 0024 0023     	 movs r3,#0
 5312 0026 FB60     	 str r3,[r7,#12]
 5313 0028 04E0     	 b .L377
 5314              	.L378:
2882:../Dave/Generated/FREERTOS/queue.c ****             }
2883:../Dave/Generated/FREERTOS/queue.c ****             else
2884:../Dave/Generated/FREERTOS/queue.c ****             {
2885:../Dave/Generated/FREERTOS/queue.c ****                 ( ( Queue_t * ) xQueueOrSemaphore )->pxQueueSetContainer = xQueueSet;
 5315              	 .loc 1 2885 0
 5316 002a 7B68     	 ldr r3,[r7,#4]
 5317 002c 3A68     	 ldr r2,[r7]
 5318 002e 9A64     	 str r2,[r3,#72]
2886:../Dave/Generated/FREERTOS/queue.c ****                 xReturn = pdPASS;
 5319              	 .loc 1 2886 0
 5320 0030 0123     	 movs r3,#1
 5321 0032 FB60     	 str r3,[r7,#12]
 5322              	.L377:
2887:../Dave/Generated/FREERTOS/queue.c ****             }
2888:../Dave/Generated/FREERTOS/queue.c ****         }
2889:../Dave/Generated/FREERTOS/queue.c ****         taskEXIT_CRITICAL();
 5323              	 .loc 1 2889 0
 5324 0034 FFF7FEFF 	 bl vPortExitCritical
2890:../Dave/Generated/FREERTOS/queue.c **** 
2891:../Dave/Generated/FREERTOS/queue.c ****         return xReturn;
 5325              	 .loc 1 2891 0
 5326 0038 FB68     	 ldr r3,[r7,#12]
2892:../Dave/Generated/FREERTOS/queue.c ****     }
 5327              	 .loc 1 2892 0
 5328 003a 1846     	 mov r0,r3
 5329 003c 1037     	 adds r7,r7,#16
 5330              	.LCFI219:
 5331              	 .cfi_def_cfa_offset 8
 5332 003e BD46     	 mov sp,r7
 5333              	.LCFI220:
 5334              	 .cfi_def_cfa_register 13
 5335              	 
 5336 0040 80BD     	 pop {r7,pc}
 5337              	 .cfi_endproc
 5338              	.LFE178:
 5340 0042 00BF     	 .section .text.xQueueRemoveFromSet,"ax",%progbits
 5341              	 .align 2
 5342              	 .global xQueueRemoveFromSet
 5343              	 .thumb
 5344              	 .thumb_func
 5346              	xQueueRemoveFromSet:
 5347              	.LFB179:
2893:../Dave/Generated/FREERTOS/queue.c **** 
2894:../Dave/Generated/FREERTOS/queue.c **** #endif /* configUSE_QUEUE_SETS */
2895:../Dave/Generated/FREERTOS/queue.c **** /*-----------------------------------------------------------*/
2896:../Dave/Generated/FREERTOS/queue.c **** 
2897:../Dave/Generated/FREERTOS/queue.c **** #if ( configUSE_QUEUE_SETS == 1 )
2898:../Dave/Generated/FREERTOS/queue.c **** 
2899:../Dave/Generated/FREERTOS/queue.c ****     BaseType_t xQueueRemoveFromSet( QueueSetMemberHandle_t xQueueOrSemaphore,
2900:../Dave/Generated/FREERTOS/queue.c ****                                     QueueSetHandle_t xQueueSet )
2901:../Dave/Generated/FREERTOS/queue.c ****     {
 5348              	 .loc 1 2901 0
 5349              	 .cfi_startproc
 5350              	 
 5351              	 
 5352 0000 80B5     	 push {r7,lr}
 5353              	.LCFI221:
 5354              	 .cfi_def_cfa_offset 8
 5355              	 .cfi_offset 7,-8
 5356              	 .cfi_offset 14,-4
 5357 0002 84B0     	 sub sp,sp,#16
 5358              	.LCFI222:
 5359              	 .cfi_def_cfa_offset 24
 5360 0004 00AF     	 add r7,sp,#0
 5361              	.LCFI223:
 5362              	 .cfi_def_cfa_register 7
 5363 0006 7860     	 str r0,[r7,#4]
 5364 0008 3960     	 str r1,[r7]
2902:../Dave/Generated/FREERTOS/queue.c ****         BaseType_t xReturn;
2903:../Dave/Generated/FREERTOS/queue.c ****         Queue_t * const pxQueueOrSemaphore = ( Queue_t * ) xQueueOrSemaphore;
 5365              	 .loc 1 2903 0
 5366 000a 7B68     	 ldr r3,[r7,#4]
 5367 000c BB60     	 str r3,[r7,#8]
2904:../Dave/Generated/FREERTOS/queue.c **** 
2905:../Dave/Generated/FREERTOS/queue.c ****         if( pxQueueOrSemaphore->pxQueueSetContainer != xQueueSet )
 5368              	 .loc 1 2905 0
 5369 000e BB68     	 ldr r3,[r7,#8]
 5370 0010 9A6C     	 ldr r2,[r3,#72]
 5371 0012 3B68     	 ldr r3,[r7]
 5372 0014 9A42     	 cmp r2,r3
 5373 0016 02D0     	 beq .L381
2906:../Dave/Generated/FREERTOS/queue.c ****         {
2907:../Dave/Generated/FREERTOS/queue.c ****             /* The queue was not a member of the set. */
2908:../Dave/Generated/FREERTOS/queue.c ****             xReturn = pdFAIL;
 5374              	 .loc 1 2908 0
 5375 0018 0023     	 movs r3,#0
 5376 001a FB60     	 str r3,[r7,#12]
 5377 001c 0FE0     	 b .L382
 5378              	.L381:
2909:../Dave/Generated/FREERTOS/queue.c ****         }
2910:../Dave/Generated/FREERTOS/queue.c ****         else if( pxQueueOrSemaphore->uxMessagesWaiting != ( UBaseType_t ) 0 )
 5379              	 .loc 1 2910 0
 5380 001e BB68     	 ldr r3,[r7,#8]
 5381 0020 9B6B     	 ldr r3,[r3,#56]
 5382 0022 002B     	 cmp r3,#0
 5383 0024 02D0     	 beq .L383
2911:../Dave/Generated/FREERTOS/queue.c ****         {
2912:../Dave/Generated/FREERTOS/queue.c ****             /* It is dangerous to remove a queue from a set when the queue is
2913:../Dave/Generated/FREERTOS/queue.c ****              * not empty because the queue set will still hold pending events for
2914:../Dave/Generated/FREERTOS/queue.c ****              * the queue. */
2915:../Dave/Generated/FREERTOS/queue.c ****             xReturn = pdFAIL;
 5384              	 .loc 1 2915 0
 5385 0026 0023     	 movs r3,#0
 5386 0028 FB60     	 str r3,[r7,#12]
 5387 002a 08E0     	 b .L382
 5388              	.L383:
2916:../Dave/Generated/FREERTOS/queue.c ****         }
2917:../Dave/Generated/FREERTOS/queue.c ****         else
2918:../Dave/Generated/FREERTOS/queue.c ****         {
2919:../Dave/Generated/FREERTOS/queue.c ****             taskENTER_CRITICAL();
 5389              	 .loc 1 2919 0
 5390 002c FFF7FEFF 	 bl vPortEnterCritical
2920:../Dave/Generated/FREERTOS/queue.c ****             {
2921:../Dave/Generated/FREERTOS/queue.c ****                 /* The queue is no longer contained in the set. */
2922:../Dave/Generated/FREERTOS/queue.c ****                 pxQueueOrSemaphore->pxQueueSetContainer = NULL;
 5391              	 .loc 1 2922 0
 5392 0030 BB68     	 ldr r3,[r7,#8]
 5393 0032 0022     	 movs r2,#0
 5394 0034 9A64     	 str r2,[r3,#72]
2923:../Dave/Generated/FREERTOS/queue.c ****             }
2924:../Dave/Generated/FREERTOS/queue.c ****             taskEXIT_CRITICAL();
 5395              	 .loc 1 2924 0
 5396 0036 FFF7FEFF 	 bl vPortExitCritical
2925:../Dave/Generated/FREERTOS/queue.c ****             xReturn = pdPASS;
 5397              	 .loc 1 2925 0
 5398 003a 0123     	 movs r3,#1
 5399 003c FB60     	 str r3,[r7,#12]
 5400              	.L382:
2926:../Dave/Generated/FREERTOS/queue.c ****         }
2927:../Dave/Generated/FREERTOS/queue.c **** 
2928:../Dave/Generated/FREERTOS/queue.c ****         return xReturn;
 5401              	 .loc 1 2928 0
 5402 003e FB68     	 ldr r3,[r7,#12]
2929:../Dave/Generated/FREERTOS/queue.c ****     } /*lint !e818 xQueueSet could not be declared as pointing to const as it is a typedef. */
 5403              	 .loc 1 2929 0
 5404 0040 1846     	 mov r0,r3
 5405 0042 1037     	 adds r7,r7,#16
 5406              	.LCFI224:
 5407              	 .cfi_def_cfa_offset 8
 5408 0044 BD46     	 mov sp,r7
 5409              	.LCFI225:
 5410              	 .cfi_def_cfa_register 13
 5411              	 
 5412 0046 80BD     	 pop {r7,pc}
 5413              	 .cfi_endproc
 5414              	.LFE179:
 5416              	 .section .text.xQueueSelectFromSet,"ax",%progbits
 5417              	 .align 2
 5418              	 .global xQueueSelectFromSet
 5419              	 .thumb
 5420              	 .thumb_func
 5422              	xQueueSelectFromSet:
 5423              	.LFB180:
2930:../Dave/Generated/FREERTOS/queue.c **** 
2931:../Dave/Generated/FREERTOS/queue.c **** #endif /* configUSE_QUEUE_SETS */
2932:../Dave/Generated/FREERTOS/queue.c **** /*-----------------------------------------------------------*/
2933:../Dave/Generated/FREERTOS/queue.c **** 
2934:../Dave/Generated/FREERTOS/queue.c **** #if ( configUSE_QUEUE_SETS == 1 )
2935:../Dave/Generated/FREERTOS/queue.c **** 
2936:../Dave/Generated/FREERTOS/queue.c ****     QueueSetMemberHandle_t xQueueSelectFromSet( QueueSetHandle_t xQueueSet,
2937:../Dave/Generated/FREERTOS/queue.c ****                                                 TickType_t const xTicksToWait )
2938:../Dave/Generated/FREERTOS/queue.c ****     {
 5424              	 .loc 1 2938 0
 5425              	 .cfi_startproc
 5426              	 
 5427              	 
 5428 0000 80B5     	 push {r7,lr}
 5429              	.LCFI226:
 5430              	 .cfi_def_cfa_offset 8
 5431              	 .cfi_offset 7,-8
 5432              	 .cfi_offset 14,-4
 5433 0002 84B0     	 sub sp,sp,#16
 5434              	.LCFI227:
 5435              	 .cfi_def_cfa_offset 24
 5436 0004 00AF     	 add r7,sp,#0
 5437              	.LCFI228:
 5438              	 .cfi_def_cfa_register 7
 5439 0006 7860     	 str r0,[r7,#4]
 5440 0008 3960     	 str r1,[r7]
2939:../Dave/Generated/FREERTOS/queue.c ****         QueueSetMemberHandle_t xReturn = NULL;
 5441              	 .loc 1 2939 0
 5442 000a 0023     	 movs r3,#0
 5443 000c FB60     	 str r3,[r7,#12]
2940:../Dave/Generated/FREERTOS/queue.c **** 
2941:../Dave/Generated/FREERTOS/queue.c ****         ( void ) xQueueReceive( ( QueueHandle_t ) xQueueSet, &xReturn, xTicksToWait ); /*lint !e961
 5444              	 .loc 1 2941 0
 5445 000e 07F10C03 	 add r3,r7,#12
 5446 0012 7868     	 ldr r0,[r7,#4]
 5447 0014 1946     	 mov r1,r3
 5448 0016 3A68     	 ldr r2,[r7]
 5449 0018 FFF7FEFF 	 bl xQueueReceive
2942:../Dave/Generated/FREERTOS/queue.c ****         return xReturn;
 5450              	 .loc 1 2942 0
 5451 001c FB68     	 ldr r3,[r7,#12]
2943:../Dave/Generated/FREERTOS/queue.c ****     }
 5452              	 .loc 1 2943 0
 5453 001e 1846     	 mov r0,r3
 5454 0020 1037     	 adds r7,r7,#16
 5455              	.LCFI229:
 5456              	 .cfi_def_cfa_offset 8
 5457 0022 BD46     	 mov sp,r7
 5458              	.LCFI230:
 5459              	 .cfi_def_cfa_register 13
 5460              	 
 5461 0024 80BD     	 pop {r7,pc}
 5462              	 .cfi_endproc
 5463              	.LFE180:
 5465 0026 00BF     	 .section .text.xQueueSelectFromSetFromISR,"ax",%progbits
 5466              	 .align 2
 5467              	 .global xQueueSelectFromSetFromISR
 5468              	 .thumb
 5469              	 .thumb_func
 5471              	xQueueSelectFromSetFromISR:
 5472              	.LFB181:
2944:../Dave/Generated/FREERTOS/queue.c **** 
2945:../Dave/Generated/FREERTOS/queue.c **** #endif /* configUSE_QUEUE_SETS */
2946:../Dave/Generated/FREERTOS/queue.c **** /*-----------------------------------------------------------*/
2947:../Dave/Generated/FREERTOS/queue.c **** 
2948:../Dave/Generated/FREERTOS/queue.c **** #if ( configUSE_QUEUE_SETS == 1 )
2949:../Dave/Generated/FREERTOS/queue.c **** 
2950:../Dave/Generated/FREERTOS/queue.c ****     QueueSetMemberHandle_t xQueueSelectFromSetFromISR( QueueSetHandle_t xQueueSet )
2951:../Dave/Generated/FREERTOS/queue.c ****     {
 5473              	 .loc 1 2951 0
 5474              	 .cfi_startproc
 5475              	 
 5476              	 
 5477 0000 80B5     	 push {r7,lr}
 5478              	.LCFI231:
 5479              	 .cfi_def_cfa_offset 8
 5480              	 .cfi_offset 7,-8
 5481              	 .cfi_offset 14,-4
 5482 0002 84B0     	 sub sp,sp,#16
 5483              	.LCFI232:
 5484              	 .cfi_def_cfa_offset 24
 5485 0004 00AF     	 add r7,sp,#0
 5486              	.LCFI233:
 5487              	 .cfi_def_cfa_register 7
 5488 0006 7860     	 str r0,[r7,#4]
2952:../Dave/Generated/FREERTOS/queue.c ****         QueueSetMemberHandle_t xReturn = NULL;
 5489              	 .loc 1 2952 0
 5490 0008 0023     	 movs r3,#0
 5491 000a FB60     	 str r3,[r7,#12]
2953:../Dave/Generated/FREERTOS/queue.c **** 
2954:../Dave/Generated/FREERTOS/queue.c ****         ( void ) xQueueReceiveFromISR( ( QueueHandle_t ) xQueueSet, &xReturn, NULL ); /*lint !e961 
 5492              	 .loc 1 2954 0
 5493 000c 07F10C03 	 add r3,r7,#12
 5494 0010 7868     	 ldr r0,[r7,#4]
 5495 0012 1946     	 mov r1,r3
 5496 0014 0022     	 movs r2,#0
 5497 0016 FFF7FEFF 	 bl xQueueReceiveFromISR
2955:../Dave/Generated/FREERTOS/queue.c ****         return xReturn;
 5498              	 .loc 1 2955 0
 5499 001a FB68     	 ldr r3,[r7,#12]
2956:../Dave/Generated/FREERTOS/queue.c ****     }
 5500              	 .loc 1 2956 0
 5501 001c 1846     	 mov r0,r3
 5502 001e 1037     	 adds r7,r7,#16
 5503              	.LCFI234:
 5504              	 .cfi_def_cfa_offset 8
 5505 0020 BD46     	 mov sp,r7
 5506              	.LCFI235:
 5507              	 .cfi_def_cfa_register 13
 5508              	 
 5509 0022 80BD     	 pop {r7,pc}
 5510              	 .cfi_endproc
 5511              	.LFE181:
 5513              	 .section .text.prvNotifyQueueSetContainer,"ax",%progbits
 5514              	 .align 2
 5515              	 .thumb
 5516              	 .thumb_func
 5518              	prvNotifyQueueSetContainer:
 5519              	.LFB182:
2957:../Dave/Generated/FREERTOS/queue.c **** 
2958:../Dave/Generated/FREERTOS/queue.c **** #endif /* configUSE_QUEUE_SETS */
2959:../Dave/Generated/FREERTOS/queue.c **** /*-----------------------------------------------------------*/
2960:../Dave/Generated/FREERTOS/queue.c **** 
2961:../Dave/Generated/FREERTOS/queue.c **** #if ( configUSE_QUEUE_SETS == 1 )
2962:../Dave/Generated/FREERTOS/queue.c **** 
2963:../Dave/Generated/FREERTOS/queue.c ****     static BaseType_t prvNotifyQueueSetContainer( const Queue_t * const pxQueue )
2964:../Dave/Generated/FREERTOS/queue.c ****     {
 5520              	 .loc 1 2964 0
 5521              	 .cfi_startproc
 5522              	 
 5523              	 
 5524 0000 80B5     	 push {r7,lr}
 5525              	.LCFI236:
 5526              	 .cfi_def_cfa_offset 8
 5527              	 .cfi_offset 7,-8
 5528              	 .cfi_offset 14,-4
 5529 0002 88B0     	 sub sp,sp,#32
 5530              	.LCFI237:
 5531              	 .cfi_def_cfa_offset 40
 5532 0004 00AF     	 add r7,sp,#0
 5533              	.LCFI238:
 5534              	 .cfi_def_cfa_register 7
 5535 0006 7860     	 str r0,[r7,#4]
2965:../Dave/Generated/FREERTOS/queue.c ****         Queue_t * pxQueueSetContainer = pxQueue->pxQueueSetContainer;
 5536              	 .loc 1 2965 0
 5537 0008 7B68     	 ldr r3,[r7,#4]
 5538 000a 9B6C     	 ldr r3,[r3,#72]
 5539 000c BB61     	 str r3,[r7,#24]
2966:../Dave/Generated/FREERTOS/queue.c ****         BaseType_t xReturn = pdFALSE;
 5540              	 .loc 1 2966 0
 5541 000e 0023     	 movs r3,#0
 5542 0010 FB61     	 str r3,[r7,#28]
2967:../Dave/Generated/FREERTOS/queue.c **** 
2968:../Dave/Generated/FREERTOS/queue.c ****         /* This function must be called form a critical section. */
2969:../Dave/Generated/FREERTOS/queue.c **** 
2970:../Dave/Generated/FREERTOS/queue.c ****         configASSERT( pxQueueSetContainer );
 5543              	 .loc 1 2970 0
 5544 0012 BB69     	 ldr r3,[r7,#24]
 5545 0014 002B     	 cmp r3,#0
 5546 0016 09D1     	 bne .L390
 5547              	.LBB265:
 5548              	.LBB266:
 197:C:/Infineon/Tools/DAVE IDE/4.5.0.202105191637/eclipse/workspace/xmc4800-CE/Dave/Generated/FREERTOS/portable/GCC\portmacro.h ****         (
 5549              	 .loc 2 197 0 discriminator 1
 5550              	
 5551 0018 4FF0FC03 	 mov r3,#252
 5552 001c 83F31188 	 msr basepri,r3
 5553 0020 BFF36F8F 	 isb 
 5554 0024 BFF34F8F 	 dsb 
 5555              	
 5556              	
 5557              	 .thumb
 5558 0028 3B61     	 str r3,[r7,#16]
 5559              	.L391:
 5560              	.LBE266:
 5561              	.LBE265:
 5562              	 .loc 1 2970 0 discriminator 1
 5563 002a FEE7     	 b .L391
 5564              	.L390:
2971:../Dave/Generated/FREERTOS/queue.c ****         configASSERT( pxQueueSetContainer->uxMessagesWaiting < pxQueueSetContainer->uxLength );
 5565              	 .loc 1 2971 0
 5566 002c BB69     	 ldr r3,[r7,#24]
 5567 002e 9A6B     	 ldr r2,[r3,#56]
 5568 0030 BB69     	 ldr r3,[r7,#24]
 5569 0032 DB6B     	 ldr r3,[r3,#60]
 5570 0034 9A42     	 cmp r2,r3
 5571 0036 09D3     	 bcc .L392
 5572              	.LBB267:
 5573              	.LBB268:
 197:C:/Infineon/Tools/DAVE IDE/4.5.0.202105191637/eclipse/workspace/xmc4800-CE/Dave/Generated/FREERTOS/portable/GCC\portmacro.h ****         (
 5574              	 .loc 2 197 0 discriminator 1
 5575              	
 5576 0038 4FF0FC03 	 mov r3,#252
 5577 003c 83F31188 	 msr basepri,r3
 5578 0040 BFF36F8F 	 isb 
 5579 0044 BFF34F8F 	 dsb 
 5580              	
 5581              	
 5582              	 .thumb
 5583 0048 FB60     	 str r3,[r7,#12]
 5584              	.L393:
 5585              	.LBE268:
 5586              	.LBE267:
 5587              	 .loc 1 2971 0 discriminator 2
 5588 004a FEE7     	 b .L393
 5589              	.L392:
2972:../Dave/Generated/FREERTOS/queue.c **** 
2973:../Dave/Generated/FREERTOS/queue.c ****         if( pxQueueSetContainer->uxMessagesWaiting < pxQueueSetContainer->uxLength )
 5590              	 .loc 1 2973 0
 5591 004c BB69     	 ldr r3,[r7,#24]
 5592 004e 9A6B     	 ldr r2,[r3,#56]
 5593 0050 BB69     	 ldr r3,[r7,#24]
 5594 0052 DB6B     	 ldr r3,[r3,#60]
 5595 0054 9A42     	 cmp r2,r3
 5596 0056 34D2     	 bcs .L394
 5597              	.LBB269:
2974:../Dave/Generated/FREERTOS/queue.c ****         {
2975:../Dave/Generated/FREERTOS/queue.c ****             const int8_t cTxLock = pxQueueSetContainer->cTxLock;
 5598              	 .loc 1 2975 0
 5599 0058 BB69     	 ldr r3,[r7,#24]
 5600 005a 93F84530 	 ldrb r3,[r3,#69]
 5601 005e FB75     	 strb r3,[r7,#23]
2976:../Dave/Generated/FREERTOS/queue.c **** 
2977:../Dave/Generated/FREERTOS/queue.c ****             traceQUEUE_SET_SEND( pxQueueSetContainer );
2978:../Dave/Generated/FREERTOS/queue.c **** 
2979:../Dave/Generated/FREERTOS/queue.c ****             /* The data copied is the handle of the queue that contains data. */
2980:../Dave/Generated/FREERTOS/queue.c ****             xReturn = prvCopyDataToQueue( pxQueueSetContainer, &pxQueue, queueSEND_TO_BACK );
 5602              	 .loc 1 2980 0
 5603 0060 3B1D     	 adds r3,r7,#4
 5604 0062 B869     	 ldr r0,[r7,#24]
 5605 0064 1946     	 mov r1,r3
 5606 0066 0022     	 movs r2,#0
 5607 0068 FFF7FEFF 	 bl prvCopyDataToQueue
 5608 006c F861     	 str r0,[r7,#28]
2981:../Dave/Generated/FREERTOS/queue.c **** 
2982:../Dave/Generated/FREERTOS/queue.c ****             if( cTxLock == queueUNLOCKED )
 5609              	 .loc 1 2982 0
 5610 006e 97F91730 	 ldrsb r3,[r7,#23]
 5611 0072 B3F1FF3F 	 cmp r3,#-1
 5612 0076 0ED1     	 bne .L395
2983:../Dave/Generated/FREERTOS/queue.c ****             {
2984:../Dave/Generated/FREERTOS/queue.c ****                 if( listLIST_IS_EMPTY( &( pxQueueSetContainer->xTasksWaitingToReceive ) ) == pdFALS
 5613              	 .loc 1 2984 0
 5614 0078 BB69     	 ldr r3,[r7,#24]
 5615 007a 5B6A     	 ldr r3,[r3,#36]
 5616 007c 002B     	 cmp r3,#0
 5617 007e 20D0     	 beq .L396
2985:../Dave/Generated/FREERTOS/queue.c ****                 {
2986:../Dave/Generated/FREERTOS/queue.c ****                     if( xTaskRemoveFromEventList( &( pxQueueSetContainer->xTasksWaitingToReceive ) 
 5618              	 .loc 1 2986 0
 5619 0080 BB69     	 ldr r3,[r7,#24]
 5620 0082 2433     	 adds r3,r3,#36
 5621 0084 1846     	 mov r0,r3
 5622 0086 FFF7FEFF 	 bl xTaskRemoveFromEventList
 5623 008a 0346     	 mov r3,r0
 5624 008c 002B     	 cmp r3,#0
 5625 008e 18D0     	 beq .L396
2987:../Dave/Generated/FREERTOS/queue.c ****                     {
2988:../Dave/Generated/FREERTOS/queue.c ****                         /* The task waiting has a higher priority. */
2989:../Dave/Generated/FREERTOS/queue.c ****                         xReturn = pdTRUE;
 5626              	 .loc 1 2989 0
 5627 0090 0123     	 movs r3,#1
 5628 0092 FB61     	 str r3,[r7,#28]
 5629 0094 15E0     	 b .L396
 5630              	.L395:
2990:../Dave/Generated/FREERTOS/queue.c ****                     }
2991:../Dave/Generated/FREERTOS/queue.c ****                     else
2992:../Dave/Generated/FREERTOS/queue.c ****                     {
2993:../Dave/Generated/FREERTOS/queue.c ****                         mtCOVERAGE_TEST_MARKER();
2994:../Dave/Generated/FREERTOS/queue.c ****                     }
2995:../Dave/Generated/FREERTOS/queue.c ****                 }
2996:../Dave/Generated/FREERTOS/queue.c ****                 else
2997:../Dave/Generated/FREERTOS/queue.c ****                 {
2998:../Dave/Generated/FREERTOS/queue.c ****                     mtCOVERAGE_TEST_MARKER();
2999:../Dave/Generated/FREERTOS/queue.c ****                 }
3000:../Dave/Generated/FREERTOS/queue.c ****             }
3001:../Dave/Generated/FREERTOS/queue.c ****             else
3002:../Dave/Generated/FREERTOS/queue.c ****             {
3003:../Dave/Generated/FREERTOS/queue.c ****                 configASSERT( cTxLock != queueINT8_MAX );
 5631              	 .loc 1 3003 0
 5632 0096 97F91730 	 ldrsb r3,[r7,#23]
 5633 009a 7F2B     	 cmp r3,#127
 5634 009c 09D1     	 bne .L397
 5635              	.LBB270:
 5636              	.LBB271:
 197:C:/Infineon/Tools/DAVE IDE/4.5.0.202105191637/eclipse/workspace/xmc4800-CE/Dave/Generated/FREERTOS/portable/GCC\portmacro.h ****         (
 5637              	 .loc 2 197 0 discriminator 1
 5638              	
 5639 009e 4FF0FC03 	 mov r3,#252
 5640 00a2 83F31188 	 msr basepri,r3
 5641 00a6 BFF36F8F 	 isb 
 5642 00aa BFF34F8F 	 dsb 
 5643              	
 5644              	
 5645              	 .thumb
 5646 00ae BB60     	 str r3,[r7,#8]
 5647              	.L398:
 5648              	.LBE271:
 5649              	.LBE270:
 5650              	 .loc 1 3003 0 discriminator 5
 5651 00b0 FEE7     	 b .L398
 5652              	.L397:
3004:../Dave/Generated/FREERTOS/queue.c **** 
3005:../Dave/Generated/FREERTOS/queue.c ****                 pxQueueSetContainer->cTxLock = ( int8_t ) ( cTxLock + 1 );
 5653              	 .loc 1 3005 0
 5654 00b2 FB7D     	 ldrb r3,[r7,#23]
 5655 00b4 0133     	 adds r3,r3,#1
 5656 00b6 DBB2     	 uxtb r3,r3
 5657 00b8 DAB2     	 uxtb r2,r3
 5658 00ba BB69     	 ldr r3,[r7,#24]
 5659 00bc 83F84520 	 strb r2,[r3,#69]
 5660              	.LBE269:
 5661 00c0 FFE7     	 b .L394
 5662              	.L396:
 5663              	.L394:
3006:../Dave/Generated/FREERTOS/queue.c ****             }
3007:../Dave/Generated/FREERTOS/queue.c ****         }
3008:../Dave/Generated/FREERTOS/queue.c ****         else
3009:../Dave/Generated/FREERTOS/queue.c ****         {
3010:../Dave/Generated/FREERTOS/queue.c ****             mtCOVERAGE_TEST_MARKER();
3011:../Dave/Generated/FREERTOS/queue.c ****         }
3012:../Dave/Generated/FREERTOS/queue.c **** 
3013:../Dave/Generated/FREERTOS/queue.c ****         return xReturn;
 5664              	 .loc 1 3013 0
 5665 00c2 FB69     	 ldr r3,[r7,#28]
3014:../Dave/Generated/FREERTOS/queue.c ****     }
 5666              	 .loc 1 3014 0
 5667 00c4 1846     	 mov r0,r3
 5668 00c6 2037     	 adds r7,r7,#32
 5669              	.LCFI239:
 5670              	 .cfi_def_cfa_offset 8
 5671 00c8 BD46     	 mov sp,r7
 5672              	.LCFI240:
 5673              	 .cfi_def_cfa_register 13
 5674              	 
 5675 00ca 80BD     	 pop {r7,pc}
 5676              	 .cfi_endproc
 5677              	.LFE182:
 5679              	 .text
 5680              	.Letext0:
 5681              	 .file 3 "c:\\infineon\\tools\\dave ide\\4.5.0.202105191637\\eclipse\\arm-gcc-49\\lib\\gcc\\arm-none-eabi\\4.9.3\\include\\stddef.h"
 5682              	 .file 4 "c:\\infineon\\tools\\dave ide\\4.5.0.202105191637\\eclipse\\arm-gcc-49\\arm-none-eabi\\include\\machine\\_default_types.h"
 5683              	 .file 5 "c:\\infineon\\tools\\dave ide\\4.5.0.202105191637\\eclipse\\arm-gcc-49\\arm-none-eabi\\include\\stdint.h"
 5684              	 .file 6 "../Dave/Generated/FREERTOS/FreeRTOS.h"
 5685              	 .file 7 "../Dave/Generated/FREERTOS/list.h"
 5686              	 .file 8 "../Dave/Generated/FREERTOS/task.h"
 5687              	 .file 9 "../Dave/Generated/FREERTOS/queue.h"
 5688              	 .file 10 "C:/Infineon/Tools/DAVE IDE/4.5.0.202105191637/eclipse/workspace/xmc4800-CE/Libraries/CMSIS/Include/cmsis_gcc.h"
 5689              	 .file 11 "C:/Infineon/Tools/DAVE IDE/4.5.0.202105191637/eclipse/workspace/xmc4800-CE/Libraries/CMSIS/Include/core_cm4.h"
DEFINED SYMBOLS
                            *ABS*:00000000 queue.c
                            *COM*:00000040 xQueueRegistry
    {standard input}:21     .text.xQueueGenericReset:00000000 $t
    {standard input}:26     .text.xQueueGenericReset:00000000 xQueueGenericReset
    {standard input}:172    .text.xQueueGenericReset:000000cc $d
    {standard input}:177    .text.xQueueGenericCreateStatic:00000000 $t
    {standard input}:182    .text.xQueueGenericCreateStatic:00000000 xQueueGenericCreateStatic
    {standard input}:557    .text.prvInitialiseNewQueue:00000000 prvInitialiseNewQueue
    {standard input}:388    .text.xQueueGenericCreate:00000000 $t
    {standard input}:393    .text.xQueueGenericCreate:00000000 xQueueGenericCreate
    {standard input}:553    .text.prvInitialiseNewQueue:00000000 $t
    {standard input}:626    .text.prvInitialiseMutex:00000000 $t
    {standard input}:630    .text.prvInitialiseMutex:00000000 prvInitialiseMutex
    {standard input}:1346   .text.xQueueGenericSend:00000000 xQueueGenericSend
    {standard input}:684    .text.xQueueCreateMutex:00000000 $t
    {standard input}:689    .text.xQueueCreateMutex:00000000 xQueueCreateMutex
    {standard input}:739    .text.xQueueCreateMutexStatic:00000000 $t
    {standard input}:744    .text.xQueueCreateMutexStatic:00000000 xQueueCreateMutexStatic
    {standard input}:797    .text.xQueueGetMutexHolder:00000000 $t
    {standard input}:802    .text.xQueueGetMutexHolder:00000000 xQueueGetMutexHolder
    {standard input}:858    .text.xQueueGetMutexHolderFromISR:00000000 $t
    {standard input}:863    .text.xQueueGetMutexHolderFromISR:00000000 xQueueGetMutexHolderFromISR
    {standard input}:938    .text.xQueueGiveMutexRecursive:00000000 $t
    {standard input}:943    .text.xQueueGiveMutexRecursive:00000000 xQueueGiveMutexRecursive
    {standard input}:1037   .text.xQueueTakeMutexRecursive:00000000 $t
    {standard input}:1042   .text.xQueueTakeMutexRecursive:00000000 xQueueTakeMutexRecursive
    {standard input}:2652   .text.xQueueSemaphoreTake:00000000 xQueueSemaphoreTake
    {standard input}:1137   .text.xQueueCreateCountingSemaphoreStatic:00000000 $t
    {standard input}:1142   .text.xQueueCreateCountingSemaphoreStatic:00000000 xQueueCreateCountingSemaphoreStatic
    {standard input}:1241   .text.xQueueCreateCountingSemaphore:00000000 $t
    {standard input}:1246   .text.xQueueCreateCountingSemaphore:00000000 xQueueCreateCountingSemaphore
    {standard input}:1341   .text.xQueueGenericSend:00000000 $t
    {standard input}:4243   .text.prvCopyDataToQueue:00000000 prvCopyDataToQueue
    {standard input}:5518   .text.prvNotifyQueueSetContainer:00000000 prvNotifyQueueSetContainer
    {standard input}:4756   .text.prvIsQueueFull:00000000 prvIsQueueFull
    {standard input}:4472   .text.prvUnlockQueue:00000000 prvUnlockQueue
    {standard input}:1747   .text.xQueueGenericSend:00000234 $d
    {standard input}:1752   .text.xQueueGenericSendFromISR:00000000 $t
    {standard input}:1757   .text.xQueueGenericSendFromISR:00000000 xQueueGenericSendFromISR
    {standard input}:2056   .text.xQueueGiveFromISR:00000000 $t
    {standard input}:2061   .text.xQueueGiveFromISR:00000000 xQueueGiveFromISR
    {standard input}:2327   .text.xQueueReceive:00000000 $t
    {standard input}:2332   .text.xQueueReceive:00000000 xQueueReceive
    {standard input}:4400   .text.prvCopyDataFromQueue:00000000 prvCopyDataFromQueue
    {standard input}:4618   .text.prvIsQueueEmpty:00000000 prvIsQueueEmpty
    {standard input}:2642   .text.xQueueReceive:000001bc $d
    {standard input}:2647   .text.xQueueSemaphoreTake:00000000 $t
    {standard input}:4184   .text.prvGetDisinheritPriorityAfterTimeout:00000000 prvGetDisinheritPriorityAfterTimeout
    {standard input}:3015   .text.xQueueSemaphoreTake:00000210 $d
    {standard input}:3020   .text.xQueuePeek:00000000 $t
    {standard input}:3025   .text.xQueuePeek:00000000 xQueuePeek
    {standard input}:3338   .text.xQueuePeek:000001c0 $d
    {standard input}:3343   .text.xQueueReceiveFromISR:00000000 $t
    {standard input}:3348   .text.xQueueReceiveFromISR:00000000 xQueueReceiveFromISR
    {standard input}:3572   .text.xQueuePeekFromISR:00000000 $t
    {standard input}:3577   .text.xQueuePeekFromISR:00000000 xQueuePeekFromISR
    {standard input}:3758   .text.uxQueueMessagesWaiting:00000000 $t
    {standard input}:3763   .text.uxQueueMessagesWaiting:00000000 uxQueueMessagesWaiting
    {standard input}:3827   .text.uxQueueSpacesAvailable:00000000 $t
    {standard input}:3832   .text.uxQueueSpacesAvailable:00000000 uxQueueSpacesAvailable
    {standard input}:3902   .text.uxQueueMessagesWaitingFromISR:00000000 $t
    {standard input}:3907   .text.uxQueueMessagesWaitingFromISR:00000000 uxQueueMessagesWaitingFromISR
    {standard input}:3974   .text.vQueueDelete:00000000 $t
    {standard input}:3979   .text.vQueueDelete:00000000 vQueueDelete
    {standard input}:5062   .text.vQueueUnregisterQueue:00000000 vQueueUnregisterQueue
    {standard input}:4047   .text.uxQueueGetQueueNumber:00000000 $t
    {standard input}:4052   .text.uxQueueGetQueueNumber:00000000 uxQueueGetQueueNumber
    {standard input}:4091   .text.vQueueSetQueueNumber:00000000 $t
    {standard input}:4096   .text.vQueueSetQueueNumber:00000000 vQueueSetQueueNumber
    {standard input}:4136   .text.ucQueueGetQueueType:00000000 $t
    {standard input}:4141   .text.ucQueueGetQueueType:00000000 ucQueueGetQueueType
    {standard input}:4180   .text.prvGetDisinheritPriorityAfterTimeout:00000000 $t
    {standard input}:4239   .text.prvCopyDataToQueue:00000000 $t
    {standard input}:4396   .text.prvCopyDataFromQueue:00000000 $t
    {standard input}:4468   .text.prvUnlockQueue:00000000 $t
    {standard input}:4614   .text.prvIsQueueEmpty:00000000 $t
    {standard input}:4670   .text.xQueueIsQueueEmptyFromISR:00000000 $t
    {standard input}:4675   .text.xQueueIsQueueEmptyFromISR:00000000 xQueueIsQueueEmptyFromISR
    {standard input}:4752   .text.prvIsQueueFull:00000000 $t
    {standard input}:4810   .text.xQueueIsQueueFullFromISR:00000000 $t
    {standard input}:4815   .text.xQueueIsQueueFullFromISR:00000000 xQueueIsQueueFullFromISR
    {standard input}:4894   .text.vQueueAddToRegistry:00000000 $t
    {standard input}:4899   .text.vQueueAddToRegistry:00000000 vQueueAddToRegistry
    {standard input}:4970   .text.vQueueAddToRegistry:0000004c $d
    {standard input}:4975   .text.pcQueueGetName:00000000 $t
    {standard input}:4980   .text.pcQueueGetName:00000000 pcQueueGetName
    {standard input}:5052   .text.pcQueueGetName:00000048 $d
    {standard input}:5057   .text.vQueueUnregisterQueue:00000000 $t
    {standard input}:5135   .text.vQueueUnregisterQueue:0000004c $d
    {standard input}:5140   .text.vQueueWaitForMessageRestricted:00000000 $t
    {standard input}:5145   .text.vQueueWaitForMessageRestricted:00000000 vQueueWaitForMessageRestricted
    {standard input}:5224   .text.xQueueCreateSet:00000000 $t
    {standard input}:5229   .text.xQueueCreateSet:00000000 xQueueCreateSet
    {standard input}:5269   .text.xQueueAddToSet:00000000 $t
    {standard input}:5274   .text.xQueueAddToSet:00000000 xQueueAddToSet
    {standard input}:5341   .text.xQueueRemoveFromSet:00000000 $t
    {standard input}:5346   .text.xQueueRemoveFromSet:00000000 xQueueRemoveFromSet
    {standard input}:5417   .text.xQueueSelectFromSet:00000000 $t
    {standard input}:5422   .text.xQueueSelectFromSet:00000000 xQueueSelectFromSet
    {standard input}:5466   .text.xQueueSelectFromSetFromISR:00000000 $t
    {standard input}:5471   .text.xQueueSelectFromSetFromISR:00000000 xQueueSelectFromSetFromISR
    {standard input}:5514   .text.prvNotifyQueueSetContainer:00000000 $t
                     .debug_frame:00000010 $d

UNDEFINED SYMBOLS
vPortEnterCritical
xTaskRemoveFromEventList
vListInitialise
vPortExitCritical
pvPortMalloc
xTaskGetCurrentTaskHandle
xTaskGetSchedulerState
vTaskInternalSetTimeOutState
vTaskSuspendAll
xTaskCheckForTimeOut
vTaskPlaceOnEventList
xTaskResumeAll
vPortValidateInterruptPriority
pvTaskIncrementMutexHeldCount
xTaskPriorityInherit
vTaskPriorityDisinheritAfterTimeout
vPortFree
xTaskPriorityDisinherit
memcpy
vTaskMissedYield
vTaskPlaceOnEventListRestricted
