   1              	 .syntax unified
   2              	 .cpu cortex-m4
   3              	 .eabi_attribute 27,3
   4              	 .fpu fpv4-sp-d16
   5              	 .eabi_attribute 20,1
   6              	 .eabi_attribute 21,1
   7              	 .eabi_attribute 23,3
   8              	 .eabi_attribute 24,1
   9              	 .eabi_attribute 25,1
  10              	 .eabi_attribute 26,1
  11              	 .eabi_attribute 30,6
  12              	 .eabi_attribute 34,1
  13              	 .eabi_attribute 18,4
  14              	 .thumb
  15              	 .file "queue.c"
  16              	 .text
  17              	.Ltext0:
  18              	 .cfi_sections .debug_frame
  19              	 .comm xQueueRegistry,64,4
  20              	 .section .text.xQueueGenericReset,"ax",%progbits
  21              	 .align 2
  22              	 .global xQueueGenericReset
  23              	 .thumb
  24              	 .thumb_func
  26              	xQueueGenericReset:
  27              	.LFB137:
  28              	 .file 1 "../Dave/Generated/FREERTOS/queue.c"
   1:../Dave/Generated/FREERTOS/queue.c **** /*
   2:../Dave/Generated/FREERTOS/queue.c ****  * FreeRTOS Kernel V10.4.3
   3:../Dave/Generated/FREERTOS/queue.c ****  * Copyright (C) 2020 Amazon.com, Inc. or its affiliates.  All Rights Reserved.
   4:../Dave/Generated/FREERTOS/queue.c ****  *
   5:../Dave/Generated/FREERTOS/queue.c ****  * Permission is hereby granted, free of charge, to any person obtaining a copy of
   6:../Dave/Generated/FREERTOS/queue.c ****  * this software and associated documentation files (the "Software"), to deal in
   7:../Dave/Generated/FREERTOS/queue.c ****  * the Software without restriction, including without limitation the rights to
   8:../Dave/Generated/FREERTOS/queue.c ****  * use, copy, modify, merge, publish, distribute, sublicense, and/or sell copies of
   9:../Dave/Generated/FREERTOS/queue.c ****  * the Software, and to permit persons to whom the Software is furnished to do so,
  10:../Dave/Generated/FREERTOS/queue.c ****  * subject to the following conditions:
  11:../Dave/Generated/FREERTOS/queue.c ****  *
  12:../Dave/Generated/FREERTOS/queue.c ****  * The above copyright notice and this permission notice shall be included in all
  13:../Dave/Generated/FREERTOS/queue.c ****  * copies or substantial portions of the Software.
  14:../Dave/Generated/FREERTOS/queue.c ****  *
  15:../Dave/Generated/FREERTOS/queue.c ****  * THE SOFTWARE IS PROVIDED "AS IS", WITHOUT WARRANTY OF ANY KIND, EXPRESS OR
  16:../Dave/Generated/FREERTOS/queue.c ****  * IMPLIED, INCLUDING BUT NOT LIMITED TO THE WARRANTIES OF MERCHANTABILITY, FITNESS
  17:../Dave/Generated/FREERTOS/queue.c ****  * FOR A PARTICULAR PURPOSE AND NONINFRINGEMENT. IN NO EVENT SHALL THE AUTHORS OR
  18:../Dave/Generated/FREERTOS/queue.c ****  * COPYRIGHT HOLDERS BE LIABLE FOR ANY CLAIM, DAMAGES OR OTHER LIABILITY, WHETHER
  19:../Dave/Generated/FREERTOS/queue.c ****  * IN AN ACTION OF CONTRACT, TORT OR OTHERWISE, ARISING FROM, OUT OF OR IN
  20:../Dave/Generated/FREERTOS/queue.c ****  * CONNECTION WITH THE SOFTWARE OR THE USE OR OTHER DEALINGS IN THE SOFTWARE.
  21:../Dave/Generated/FREERTOS/queue.c ****  *
  22:../Dave/Generated/FREERTOS/queue.c ****  * https://www.FreeRTOS.org
  23:../Dave/Generated/FREERTOS/queue.c ****  * https://github.com/FreeRTOS
  24:../Dave/Generated/FREERTOS/queue.c ****  *
  25:../Dave/Generated/FREERTOS/queue.c ****  */
  26:../Dave/Generated/FREERTOS/queue.c **** 
  27:../Dave/Generated/FREERTOS/queue.c **** #include <stdlib.h>
  28:../Dave/Generated/FREERTOS/queue.c **** #include <string.h>
  29:../Dave/Generated/FREERTOS/queue.c **** 
  30:../Dave/Generated/FREERTOS/queue.c **** /* Defining MPU_WRAPPERS_INCLUDED_FROM_API_FILE prevents task.h from redefining
  31:../Dave/Generated/FREERTOS/queue.c ****  * all the API functions to use the MPU wrappers.  That should only be done when
  32:../Dave/Generated/FREERTOS/queue.c ****  * task.h is included from an application file. */
  33:../Dave/Generated/FREERTOS/queue.c **** #define MPU_WRAPPERS_INCLUDED_FROM_API_FILE
  34:../Dave/Generated/FREERTOS/queue.c **** 
  35:../Dave/Generated/FREERTOS/queue.c **** #include "FreeRTOS.h"
  36:../Dave/Generated/FREERTOS/queue.c **** #include "task.h"
  37:../Dave/Generated/FREERTOS/queue.c **** #include "queue.h"
  38:../Dave/Generated/FREERTOS/queue.c **** 
  39:../Dave/Generated/FREERTOS/queue.c **** #if ( configUSE_CO_ROUTINES == 1 )
  40:../Dave/Generated/FREERTOS/queue.c ****     #include "croutine.h"
  41:../Dave/Generated/FREERTOS/queue.c **** #endif
  42:../Dave/Generated/FREERTOS/queue.c **** 
  43:../Dave/Generated/FREERTOS/queue.c **** /* Lint e9021, e961 and e750 are suppressed as a MISRA exception justified
  44:../Dave/Generated/FREERTOS/queue.c ****  * because the MPU ports require MPU_WRAPPERS_INCLUDED_FROM_API_FILE to be defined
  45:../Dave/Generated/FREERTOS/queue.c ****  * for the header files above, but not in this file, in order to generate the
  46:../Dave/Generated/FREERTOS/queue.c ****  * correct privileged Vs unprivileged linkage and placement. */
  47:../Dave/Generated/FREERTOS/queue.c **** #undef MPU_WRAPPERS_INCLUDED_FROM_API_FILE /*lint !e961 !e750 !e9021. */
  48:../Dave/Generated/FREERTOS/queue.c **** 
  49:../Dave/Generated/FREERTOS/queue.c **** 
  50:../Dave/Generated/FREERTOS/queue.c **** /* Constants used with the cRxLock and cTxLock structure members. */
  51:../Dave/Generated/FREERTOS/queue.c **** #define queueUNLOCKED             ( ( int8_t ) -1 )
  52:../Dave/Generated/FREERTOS/queue.c **** #define queueLOCKED_UNMODIFIED    ( ( int8_t ) 0 )
  53:../Dave/Generated/FREERTOS/queue.c **** #define queueINT8_MAX             ( ( int8_t ) 127 )
  54:../Dave/Generated/FREERTOS/queue.c **** 
  55:../Dave/Generated/FREERTOS/queue.c **** /* When the Queue_t structure is used to represent a base queue its pcHead and
  56:../Dave/Generated/FREERTOS/queue.c ****  * pcTail members are used as pointers into the queue storage area.  When the
  57:../Dave/Generated/FREERTOS/queue.c ****  * Queue_t structure is used to represent a mutex pcHead and pcTail pointers are
  58:../Dave/Generated/FREERTOS/queue.c ****  * not necessary, and the pcHead pointer is set to NULL to indicate that the
  59:../Dave/Generated/FREERTOS/queue.c ****  * structure instead holds a pointer to the mutex holder (if any).  Map alternative
  60:../Dave/Generated/FREERTOS/queue.c ****  * names to the pcHead and structure member to ensure the readability of the code
  61:../Dave/Generated/FREERTOS/queue.c ****  * is maintained.  The QueuePointers_t and SemaphoreData_t types are used to form
  62:../Dave/Generated/FREERTOS/queue.c ****  * a union as their usage is mutually exclusive dependent on what the queue is
  63:../Dave/Generated/FREERTOS/queue.c ****  * being used for. */
  64:../Dave/Generated/FREERTOS/queue.c **** #define uxQueueType               pcHead
  65:../Dave/Generated/FREERTOS/queue.c **** #define queueQUEUE_IS_MUTEX       NULL
  66:../Dave/Generated/FREERTOS/queue.c **** 
  67:../Dave/Generated/FREERTOS/queue.c **** typedef struct QueuePointers
  68:../Dave/Generated/FREERTOS/queue.c **** {
  69:../Dave/Generated/FREERTOS/queue.c ****     int8_t * pcTail;     /*< Points to the byte at the end of the queue storage area.  Once more by
  70:../Dave/Generated/FREERTOS/queue.c ****     int8_t * pcReadFrom; /*< Points to the last place that a queued item was read from when the str
  71:../Dave/Generated/FREERTOS/queue.c **** } QueuePointers_t;
  72:../Dave/Generated/FREERTOS/queue.c **** 
  73:../Dave/Generated/FREERTOS/queue.c **** typedef struct SemaphoreData
  74:../Dave/Generated/FREERTOS/queue.c **** {
  75:../Dave/Generated/FREERTOS/queue.c ****     TaskHandle_t xMutexHolder;        /*< The handle of the task that holds the mutex. */
  76:../Dave/Generated/FREERTOS/queue.c ****     UBaseType_t uxRecursiveCallCount; /*< Maintains a count of the number of times a recursive mute
  77:../Dave/Generated/FREERTOS/queue.c **** } SemaphoreData_t;
  78:../Dave/Generated/FREERTOS/queue.c **** 
  79:../Dave/Generated/FREERTOS/queue.c **** /* Semaphores do not actually store or copy data, so have an item size of
  80:../Dave/Generated/FREERTOS/queue.c ****  * zero. */
  81:../Dave/Generated/FREERTOS/queue.c **** #define queueSEMAPHORE_QUEUE_ITEM_LENGTH    ( ( UBaseType_t ) 0 )
  82:../Dave/Generated/FREERTOS/queue.c **** #define queueMUTEX_GIVE_BLOCK_TIME          ( ( TickType_t ) 0U )
  83:../Dave/Generated/FREERTOS/queue.c **** 
  84:../Dave/Generated/FREERTOS/queue.c **** #if ( configUSE_PREEMPTION == 0 )
  85:../Dave/Generated/FREERTOS/queue.c **** 
  86:../Dave/Generated/FREERTOS/queue.c **** /* If the cooperative scheduler is being used then a yield should not be
  87:../Dave/Generated/FREERTOS/queue.c ****  * performed just because a higher priority task has been woken. */
  88:../Dave/Generated/FREERTOS/queue.c ****     #define queueYIELD_IF_USING_PREEMPTION()
  89:../Dave/Generated/FREERTOS/queue.c **** #else
  90:../Dave/Generated/FREERTOS/queue.c ****     #define queueYIELD_IF_USING_PREEMPTION()    portYIELD_WITHIN_API()
  91:../Dave/Generated/FREERTOS/queue.c **** #endif
  92:../Dave/Generated/FREERTOS/queue.c **** 
  93:../Dave/Generated/FREERTOS/queue.c **** /*
  94:../Dave/Generated/FREERTOS/queue.c ****  * Definition of the queue used by the scheduler.
  95:../Dave/Generated/FREERTOS/queue.c ****  * Items are queued by copy, not reference.  See the following link for the
  96:../Dave/Generated/FREERTOS/queue.c ****  * rationale: https://www.FreeRTOS.org/Embedded-RTOS-Queues.html
  97:../Dave/Generated/FREERTOS/queue.c ****  */
  98:../Dave/Generated/FREERTOS/queue.c **** typedef struct QueueDefinition /* The old naming convention is used to prevent breaking kernel awar
  99:../Dave/Generated/FREERTOS/queue.c **** {
 100:../Dave/Generated/FREERTOS/queue.c ****     int8_t * pcHead;           /*< Points to the beginning of the queue storage area. */
 101:../Dave/Generated/FREERTOS/queue.c ****     int8_t * pcWriteTo;        /*< Points to the free next place in the storage area. */
 102:../Dave/Generated/FREERTOS/queue.c **** 
 103:../Dave/Generated/FREERTOS/queue.c ****     union
 104:../Dave/Generated/FREERTOS/queue.c ****     {
 105:../Dave/Generated/FREERTOS/queue.c ****         QueuePointers_t xQueue;     /*< Data required exclusively when this structure is used as a 
 106:../Dave/Generated/FREERTOS/queue.c ****         SemaphoreData_t xSemaphore; /*< Data required exclusively when this structure is used as a 
 107:../Dave/Generated/FREERTOS/queue.c ****     } u;
 108:../Dave/Generated/FREERTOS/queue.c **** 
 109:../Dave/Generated/FREERTOS/queue.c ****     List_t xTasksWaitingToSend;             /*< List of tasks that are blocked waiting to post onto
 110:../Dave/Generated/FREERTOS/queue.c ****     List_t xTasksWaitingToReceive;          /*< List of tasks that are blocked waiting to read from
 111:../Dave/Generated/FREERTOS/queue.c **** 
 112:../Dave/Generated/FREERTOS/queue.c ****     volatile UBaseType_t uxMessagesWaiting; /*< The number of items currently in the queue. */
 113:../Dave/Generated/FREERTOS/queue.c ****     UBaseType_t uxLength;                   /*< The length of the queue defined as the number of it
 114:../Dave/Generated/FREERTOS/queue.c ****     UBaseType_t uxItemSize;                 /*< The size of each items that the queue will hold. */
 115:../Dave/Generated/FREERTOS/queue.c **** 
 116:../Dave/Generated/FREERTOS/queue.c ****     volatile int8_t cRxLock;                /*< Stores the number of items received from the queue 
 117:../Dave/Generated/FREERTOS/queue.c ****     volatile int8_t cTxLock;                /*< Stores the number of items transmitted to the queue
 118:../Dave/Generated/FREERTOS/queue.c **** 
 119:../Dave/Generated/FREERTOS/queue.c ****     #if ( ( configSUPPORT_STATIC_ALLOCATION == 1 ) && ( configSUPPORT_DYNAMIC_ALLOCATION == 1 ) )
 120:../Dave/Generated/FREERTOS/queue.c ****         uint8_t ucStaticallyAllocated; /*< Set to pdTRUE if the memory used by the queue was static
 121:../Dave/Generated/FREERTOS/queue.c ****     #endif
 122:../Dave/Generated/FREERTOS/queue.c **** 
 123:../Dave/Generated/FREERTOS/queue.c ****     #if ( configUSE_QUEUE_SETS == 1 )
 124:../Dave/Generated/FREERTOS/queue.c ****         struct QueueDefinition * pxQueueSetContainer;
 125:../Dave/Generated/FREERTOS/queue.c ****     #endif
 126:../Dave/Generated/FREERTOS/queue.c **** 
 127:../Dave/Generated/FREERTOS/queue.c ****     #if ( configUSE_TRACE_FACILITY == 1 )
 128:../Dave/Generated/FREERTOS/queue.c ****         UBaseType_t uxQueueNumber;
 129:../Dave/Generated/FREERTOS/queue.c ****         uint8_t ucQueueType;
 130:../Dave/Generated/FREERTOS/queue.c ****     #endif
 131:../Dave/Generated/FREERTOS/queue.c **** } xQUEUE;
 132:../Dave/Generated/FREERTOS/queue.c **** 
 133:../Dave/Generated/FREERTOS/queue.c **** /* The old xQUEUE name is maintained above then typedefed to the new Queue_t
 134:../Dave/Generated/FREERTOS/queue.c ****  * name below to enable the use of older kernel aware debuggers. */
 135:../Dave/Generated/FREERTOS/queue.c **** typedef xQUEUE Queue_t;
 136:../Dave/Generated/FREERTOS/queue.c **** 
 137:../Dave/Generated/FREERTOS/queue.c **** /*-----------------------------------------------------------*/
 138:../Dave/Generated/FREERTOS/queue.c **** 
 139:../Dave/Generated/FREERTOS/queue.c **** /*
 140:../Dave/Generated/FREERTOS/queue.c ****  * The queue registry is just a means for kernel aware debuggers to locate
 141:../Dave/Generated/FREERTOS/queue.c ****  * queue structures.  It has no other purpose so is an optional component.
 142:../Dave/Generated/FREERTOS/queue.c ****  */
 143:../Dave/Generated/FREERTOS/queue.c **** #if ( configQUEUE_REGISTRY_SIZE > 0 )
 144:../Dave/Generated/FREERTOS/queue.c **** 
 145:../Dave/Generated/FREERTOS/queue.c **** /* The type stored within the queue registry array.  This allows a name
 146:../Dave/Generated/FREERTOS/queue.c ****  * to be assigned to each queue making kernel aware debugging a little
 147:../Dave/Generated/FREERTOS/queue.c ****  * more user friendly. */
 148:../Dave/Generated/FREERTOS/queue.c ****     typedef struct QUEUE_REGISTRY_ITEM
 149:../Dave/Generated/FREERTOS/queue.c ****     {
 150:../Dave/Generated/FREERTOS/queue.c ****         const char * pcQueueName; /*lint !e971 Unqualified char types are allowed for strings and s
 151:../Dave/Generated/FREERTOS/queue.c ****         QueueHandle_t xHandle;
 152:../Dave/Generated/FREERTOS/queue.c ****     } xQueueRegistryItem;
 153:../Dave/Generated/FREERTOS/queue.c **** 
 154:../Dave/Generated/FREERTOS/queue.c **** /* The old xQueueRegistryItem name is maintained above then typedefed to the
 155:../Dave/Generated/FREERTOS/queue.c ****  * new xQueueRegistryItem name below to enable the use of older kernel aware
 156:../Dave/Generated/FREERTOS/queue.c ****  * debuggers. */
 157:../Dave/Generated/FREERTOS/queue.c ****     typedef xQueueRegistryItem QueueRegistryItem_t;
 158:../Dave/Generated/FREERTOS/queue.c **** 
 159:../Dave/Generated/FREERTOS/queue.c **** /* The queue registry is simply an array of QueueRegistryItem_t structures.
 160:../Dave/Generated/FREERTOS/queue.c ****  * The pcQueueName member of a structure being NULL is indicative of the
 161:../Dave/Generated/FREERTOS/queue.c ****  * array position being vacant. */
 162:../Dave/Generated/FREERTOS/queue.c ****     PRIVILEGED_DATA QueueRegistryItem_t xQueueRegistry[ configQUEUE_REGISTRY_SIZE ];
 163:../Dave/Generated/FREERTOS/queue.c **** 
 164:../Dave/Generated/FREERTOS/queue.c **** #endif /* configQUEUE_REGISTRY_SIZE */
 165:../Dave/Generated/FREERTOS/queue.c **** 
 166:../Dave/Generated/FREERTOS/queue.c **** /*
 167:../Dave/Generated/FREERTOS/queue.c ****  * Unlocks a queue locked by a call to prvLockQueue.  Locking a queue does not
 168:../Dave/Generated/FREERTOS/queue.c ****  * prevent an ISR from adding or removing items to the queue, but does prevent
 169:../Dave/Generated/FREERTOS/queue.c ****  * an ISR from removing tasks from the queue event lists.  If an ISR finds a
 170:../Dave/Generated/FREERTOS/queue.c ****  * queue is locked it will instead increment the appropriate queue lock count
 171:../Dave/Generated/FREERTOS/queue.c ****  * to indicate that a task may require unblocking.  When the queue in unlocked
 172:../Dave/Generated/FREERTOS/queue.c ****  * these lock counts are inspected, and the appropriate action taken.
 173:../Dave/Generated/FREERTOS/queue.c ****  */
 174:../Dave/Generated/FREERTOS/queue.c **** static void prvUnlockQueue( Queue_t * const pxQueue ) PRIVILEGED_FUNCTION;
 175:../Dave/Generated/FREERTOS/queue.c **** 
 176:../Dave/Generated/FREERTOS/queue.c **** /*
 177:../Dave/Generated/FREERTOS/queue.c ****  * Uses a critical section to determine if there is any data in a queue.
 178:../Dave/Generated/FREERTOS/queue.c ****  *
 179:../Dave/Generated/FREERTOS/queue.c ****  * @return pdTRUE if the queue contains no items, otherwise pdFALSE.
 180:../Dave/Generated/FREERTOS/queue.c ****  */
 181:../Dave/Generated/FREERTOS/queue.c **** static BaseType_t prvIsQueueEmpty( const Queue_t * pxQueue ) PRIVILEGED_FUNCTION;
 182:../Dave/Generated/FREERTOS/queue.c **** 
 183:../Dave/Generated/FREERTOS/queue.c **** /*
 184:../Dave/Generated/FREERTOS/queue.c ****  * Uses a critical section to determine if there is any space in a queue.
 185:../Dave/Generated/FREERTOS/queue.c ****  *
 186:../Dave/Generated/FREERTOS/queue.c ****  * @return pdTRUE if there is no space, otherwise pdFALSE;
 187:../Dave/Generated/FREERTOS/queue.c ****  */
 188:../Dave/Generated/FREERTOS/queue.c **** static BaseType_t prvIsQueueFull( const Queue_t * pxQueue ) PRIVILEGED_FUNCTION;
 189:../Dave/Generated/FREERTOS/queue.c **** 
 190:../Dave/Generated/FREERTOS/queue.c **** /*
 191:../Dave/Generated/FREERTOS/queue.c ****  * Copies an item into the queue, either at the front of the queue or the
 192:../Dave/Generated/FREERTOS/queue.c ****  * back of the queue.
 193:../Dave/Generated/FREERTOS/queue.c ****  */
 194:../Dave/Generated/FREERTOS/queue.c **** static BaseType_t prvCopyDataToQueue( Queue_t * const pxQueue,
 195:../Dave/Generated/FREERTOS/queue.c ****                                       const void * pvItemToQueue,
 196:../Dave/Generated/FREERTOS/queue.c ****                                       const BaseType_t xPosition ) PRIVILEGED_FUNCTION;
 197:../Dave/Generated/FREERTOS/queue.c **** 
 198:../Dave/Generated/FREERTOS/queue.c **** /*
 199:../Dave/Generated/FREERTOS/queue.c ****  * Copies an item out of a queue.
 200:../Dave/Generated/FREERTOS/queue.c ****  */
 201:../Dave/Generated/FREERTOS/queue.c **** static void prvCopyDataFromQueue( Queue_t * const pxQueue,
 202:../Dave/Generated/FREERTOS/queue.c ****                                   void * const pvBuffer ) PRIVILEGED_FUNCTION;
 203:../Dave/Generated/FREERTOS/queue.c **** 
 204:../Dave/Generated/FREERTOS/queue.c **** #if ( configUSE_QUEUE_SETS == 1 )
 205:../Dave/Generated/FREERTOS/queue.c **** 
 206:../Dave/Generated/FREERTOS/queue.c **** /*
 207:../Dave/Generated/FREERTOS/queue.c ****  * Checks to see if a queue is a member of a queue set, and if so, notifies
 208:../Dave/Generated/FREERTOS/queue.c ****  * the queue set that the queue contains data.
 209:../Dave/Generated/FREERTOS/queue.c ****  */
 210:../Dave/Generated/FREERTOS/queue.c ****     static BaseType_t prvNotifyQueueSetContainer( const Queue_t * const pxQueue ) PRIVILEGED_FUNCTI
 211:../Dave/Generated/FREERTOS/queue.c **** #endif
 212:../Dave/Generated/FREERTOS/queue.c **** 
 213:../Dave/Generated/FREERTOS/queue.c **** /*
 214:../Dave/Generated/FREERTOS/queue.c ****  * Called after a Queue_t structure has been allocated either statically or
 215:../Dave/Generated/FREERTOS/queue.c ****  * dynamically to fill in the structure's members.
 216:../Dave/Generated/FREERTOS/queue.c ****  */
 217:../Dave/Generated/FREERTOS/queue.c **** static void prvInitialiseNewQueue( const UBaseType_t uxQueueLength,
 218:../Dave/Generated/FREERTOS/queue.c ****                                    const UBaseType_t uxItemSize,
 219:../Dave/Generated/FREERTOS/queue.c ****                                    uint8_t * pucQueueStorage,
 220:../Dave/Generated/FREERTOS/queue.c ****                                    const uint8_t ucQueueType,
 221:../Dave/Generated/FREERTOS/queue.c ****                                    Queue_t * pxNewQueue ) PRIVILEGED_FUNCTION;
 222:../Dave/Generated/FREERTOS/queue.c **** 
 223:../Dave/Generated/FREERTOS/queue.c **** /*
 224:../Dave/Generated/FREERTOS/queue.c ****  * Mutexes are a special type of queue.  When a mutex is created, first the
 225:../Dave/Generated/FREERTOS/queue.c ****  * queue is created, then prvInitialiseMutex() is called to configure the queue
 226:../Dave/Generated/FREERTOS/queue.c ****  * as a mutex.
 227:../Dave/Generated/FREERTOS/queue.c ****  */
 228:../Dave/Generated/FREERTOS/queue.c **** #if ( configUSE_MUTEXES == 1 )
 229:../Dave/Generated/FREERTOS/queue.c ****     static void prvInitialiseMutex( Queue_t * pxNewQueue ) PRIVILEGED_FUNCTION;
 230:../Dave/Generated/FREERTOS/queue.c **** #endif
 231:../Dave/Generated/FREERTOS/queue.c **** 
 232:../Dave/Generated/FREERTOS/queue.c **** #if ( configUSE_MUTEXES == 1 )
 233:../Dave/Generated/FREERTOS/queue.c **** 
 234:../Dave/Generated/FREERTOS/queue.c **** /*
 235:../Dave/Generated/FREERTOS/queue.c ****  * If a task waiting for a mutex causes the mutex holder to inherit a
 236:../Dave/Generated/FREERTOS/queue.c ****  * priority, but the waiting task times out, then the holder should
 237:../Dave/Generated/FREERTOS/queue.c ****  * disinherit the priority - but only down to the highest priority of any
 238:../Dave/Generated/FREERTOS/queue.c ****  * other tasks that are waiting for the same mutex.  This function returns
 239:../Dave/Generated/FREERTOS/queue.c ****  * that priority.
 240:../Dave/Generated/FREERTOS/queue.c ****  */
 241:../Dave/Generated/FREERTOS/queue.c ****     static UBaseType_t prvGetDisinheritPriorityAfterTimeout( const Queue_t * const pxQueue ) PRIVIL
 242:../Dave/Generated/FREERTOS/queue.c **** #endif
 243:../Dave/Generated/FREERTOS/queue.c **** /*-----------------------------------------------------------*/
 244:../Dave/Generated/FREERTOS/queue.c **** 
 245:../Dave/Generated/FREERTOS/queue.c **** /*
 246:../Dave/Generated/FREERTOS/queue.c ****  * Macro to mark a queue as locked.  Locking a queue prevents an ISR from
 247:../Dave/Generated/FREERTOS/queue.c ****  * accessing the queue event lists.
 248:../Dave/Generated/FREERTOS/queue.c ****  */
 249:../Dave/Generated/FREERTOS/queue.c **** #define prvLockQueue( pxQueue )                            \
 250:../Dave/Generated/FREERTOS/queue.c ****     taskENTER_CRITICAL();                                  \
 251:../Dave/Generated/FREERTOS/queue.c ****     {                                                      \
 252:../Dave/Generated/FREERTOS/queue.c ****         if( ( pxQueue )->cRxLock == queueUNLOCKED )        \
 253:../Dave/Generated/FREERTOS/queue.c ****         {                                                  \
 254:../Dave/Generated/FREERTOS/queue.c ****             ( pxQueue )->cRxLock = queueLOCKED_UNMODIFIED; \
 255:../Dave/Generated/FREERTOS/queue.c ****         }                                                  \
 256:../Dave/Generated/FREERTOS/queue.c ****         if( ( pxQueue )->cTxLock == queueUNLOCKED )        \
 257:../Dave/Generated/FREERTOS/queue.c ****         {                                                  \
 258:../Dave/Generated/FREERTOS/queue.c ****             ( pxQueue )->cTxLock = queueLOCKED_UNMODIFIED; \
 259:../Dave/Generated/FREERTOS/queue.c ****         }                                                  \
 260:../Dave/Generated/FREERTOS/queue.c ****     }                                                      \
 261:../Dave/Generated/FREERTOS/queue.c ****     taskEXIT_CRITICAL()
 262:../Dave/Generated/FREERTOS/queue.c **** /*-----------------------------------------------------------*/
 263:../Dave/Generated/FREERTOS/queue.c **** 
 264:../Dave/Generated/FREERTOS/queue.c **** BaseType_t xQueueGenericReset( QueueHandle_t xQueue,
 265:../Dave/Generated/FREERTOS/queue.c ****                                BaseType_t xNewQueue )
 266:../Dave/Generated/FREERTOS/queue.c **** {
  29              	 .loc 1 266 0
  30              	 .cfi_startproc
  31              	 
  32              	 
  33 0000 80B5     	 push {r7,lr}
  34              	.LCFI0:
  35              	 .cfi_def_cfa_offset 8
  36              	 .cfi_offset 7,-8
  37              	 .cfi_offset 14,-4
  38 0002 84B0     	 sub sp,sp,#16
  39              	.LCFI1:
  40              	 .cfi_def_cfa_offset 24
  41 0004 00AF     	 add r7,sp,#0
  42              	.LCFI2:
  43              	 .cfi_def_cfa_register 7
  44 0006 7860     	 str r0,[r7,#4]
  45 0008 3960     	 str r1,[r7]
 267:../Dave/Generated/FREERTOS/queue.c ****     Queue_t * const pxQueue = xQueue;
  46              	 .loc 1 267 0
  47 000a 7B68     	 ldr r3,[r7,#4]
  48 000c FB60     	 str r3,[r7,#12]
 268:../Dave/Generated/FREERTOS/queue.c **** 
 269:../Dave/Generated/FREERTOS/queue.c ****     configASSERT( pxQueue );
  49              	 .loc 1 269 0
  50 000e FB68     	 ldr r3,[r7,#12]
  51 0010 002B     	 cmp r3,#0
  52 0012 09D1     	 bne .L2
  53              	.LBB136:
  54              	.LBB137:
  55              	 .file 2 "C:/Infineon/Tools/DAVE IDE/4.5.0.202105191637/eclipse/workspace/xmc4800-CE/Dave/Generated/FREERTOS/portable/GCC/portmacro.h"
   1:C:/Infineon/Tools/DAVE IDE/4.5.0.202105191637/eclipse/workspace/xmc4800-CE/Dave/Generated/FREERTOS/portable/GCC\portmacro.h **** /*
   2:C:/Infineon/Tools/DAVE IDE/4.5.0.202105191637/eclipse/workspace/xmc4800-CE/Dave/Generated/FREERTOS/portable/GCC\portmacro.h ****  * FreeRTOS Kernel V10.4.3
   3:C:/Infineon/Tools/DAVE IDE/4.5.0.202105191637/eclipse/workspace/xmc4800-CE/Dave/Generated/FREERTOS/portable/GCC\portmacro.h ****  * Copyright (C) 2020 Amazon.com, Inc. or its affiliates.  All Rights Reserved.
   4:C:/Infineon/Tools/DAVE IDE/4.5.0.202105191637/eclipse/workspace/xmc4800-CE/Dave/Generated/FREERTOS/portable/GCC\portmacro.h ****  *
   5:C:/Infineon/Tools/DAVE IDE/4.5.0.202105191637/eclipse/workspace/xmc4800-CE/Dave/Generated/FREERTOS/portable/GCC\portmacro.h ****  * Permission is hereby granted, free of charge, to any person obtaining a copy of
   6:C:/Infineon/Tools/DAVE IDE/4.5.0.202105191637/eclipse/workspace/xmc4800-CE/Dave/Generated/FREERTOS/portable/GCC\portmacro.h ****  * this software and associated documentation files (the "Software"), to deal in
   7:C:/Infineon/Tools/DAVE IDE/4.5.0.202105191637/eclipse/workspace/xmc4800-CE/Dave/Generated/FREERTOS/portable/GCC\portmacro.h ****  * the Software without restriction, including without limitation the rights to
   8:C:/Infineon/Tools/DAVE IDE/4.5.0.202105191637/eclipse/workspace/xmc4800-CE/Dave/Generated/FREERTOS/portable/GCC\portmacro.h ****  * use, copy, modify, merge, publish, distribute, sublicense, and/or sell copies of
   9:C:/Infineon/Tools/DAVE IDE/4.5.0.202105191637/eclipse/workspace/xmc4800-CE/Dave/Generated/FREERTOS/portable/GCC\portmacro.h ****  * the Software, and to permit persons to whom the Software is furnished to do so,
  10:C:/Infineon/Tools/DAVE IDE/4.5.0.202105191637/eclipse/workspace/xmc4800-CE/Dave/Generated/FREERTOS/portable/GCC\portmacro.h ****  * subject to the following conditions:
  11:C:/Infineon/Tools/DAVE IDE/4.5.0.202105191637/eclipse/workspace/xmc4800-CE/Dave/Generated/FREERTOS/portable/GCC\portmacro.h ****  *
  12:C:/Infineon/Tools/DAVE IDE/4.5.0.202105191637/eclipse/workspace/xmc4800-CE/Dave/Generated/FREERTOS/portable/GCC\portmacro.h ****  * The above copyright notice and this permission notice shall be included in all
  13:C:/Infineon/Tools/DAVE IDE/4.5.0.202105191637/eclipse/workspace/xmc4800-CE/Dave/Generated/FREERTOS/portable/GCC\portmacro.h ****  * copies or substantial portions of the Software.
  14:C:/Infineon/Tools/DAVE IDE/4.5.0.202105191637/eclipse/workspace/xmc4800-CE/Dave/Generated/FREERTOS/portable/GCC\portmacro.h ****  *
  15:C:/Infineon/Tools/DAVE IDE/4.5.0.202105191637/eclipse/workspace/xmc4800-CE/Dave/Generated/FREERTOS/portable/GCC\portmacro.h ****  * THE SOFTWARE IS PROVIDED "AS IS", WITHOUT WARRANTY OF ANY KIND, EXPRESS OR
  16:C:/Infineon/Tools/DAVE IDE/4.5.0.202105191637/eclipse/workspace/xmc4800-CE/Dave/Generated/FREERTOS/portable/GCC\portmacro.h ****  * IMPLIED, INCLUDING BUT NOT LIMITED TO THE WARRANTIES OF MERCHANTABILITY, FITNESS
  17:C:/Infineon/Tools/DAVE IDE/4.5.0.202105191637/eclipse/workspace/xmc4800-CE/Dave/Generated/FREERTOS/portable/GCC\portmacro.h ****  * FOR A PARTICULAR PURPOSE AND NONINFRINGEMENT. IN NO EVENT SHALL THE AUTHORS OR
  18:C:/Infineon/Tools/DAVE IDE/4.5.0.202105191637/eclipse/workspace/xmc4800-CE/Dave/Generated/FREERTOS/portable/GCC\portmacro.h ****  * COPYRIGHT HOLDERS BE LIABLE FOR ANY CLAIM, DAMAGES OR OTHER LIABILITY, WHETHER
  19:C:/Infineon/Tools/DAVE IDE/4.5.0.202105191637/eclipse/workspace/xmc4800-CE/Dave/Generated/FREERTOS/portable/GCC\portmacro.h ****  * IN AN ACTION OF CONTRACT, TORT OR OTHERWISE, ARISING FROM, OUT OF OR IN
  20:C:/Infineon/Tools/DAVE IDE/4.5.0.202105191637/eclipse/workspace/xmc4800-CE/Dave/Generated/FREERTOS/portable/GCC\portmacro.h ****  * CONNECTION WITH THE SOFTWARE OR THE USE OR OTHER DEALINGS IN THE SOFTWARE.
  21:C:/Infineon/Tools/DAVE IDE/4.5.0.202105191637/eclipse/workspace/xmc4800-CE/Dave/Generated/FREERTOS/portable/GCC\portmacro.h ****  *
  22:C:/Infineon/Tools/DAVE IDE/4.5.0.202105191637/eclipse/workspace/xmc4800-CE/Dave/Generated/FREERTOS/portable/GCC\portmacro.h ****  * https://www.FreeRTOS.org
  23:C:/Infineon/Tools/DAVE IDE/4.5.0.202105191637/eclipse/workspace/xmc4800-CE/Dave/Generated/FREERTOS/portable/GCC\portmacro.h ****  * https://github.com/FreeRTOS
  24:C:/Infineon/Tools/DAVE IDE/4.5.0.202105191637/eclipse/workspace/xmc4800-CE/Dave/Generated/FREERTOS/portable/GCC\portmacro.h ****  *
  25:C:/Infineon/Tools/DAVE IDE/4.5.0.202105191637/eclipse/workspace/xmc4800-CE/Dave/Generated/FREERTOS/portable/GCC\portmacro.h ****  * 1 tab == 4 spaces!
  26:C:/Infineon/Tools/DAVE IDE/4.5.0.202105191637/eclipse/workspace/xmc4800-CE/Dave/Generated/FREERTOS/portable/GCC\portmacro.h ****  */
  27:C:/Infineon/Tools/DAVE IDE/4.5.0.202105191637/eclipse/workspace/xmc4800-CE/Dave/Generated/FREERTOS/portable/GCC\portmacro.h **** 
  28:C:/Infineon/Tools/DAVE IDE/4.5.0.202105191637/eclipse/workspace/xmc4800-CE/Dave/Generated/FREERTOS/portable/GCC\portmacro.h **** 
  29:C:/Infineon/Tools/DAVE IDE/4.5.0.202105191637/eclipse/workspace/xmc4800-CE/Dave/Generated/FREERTOS/portable/GCC\portmacro.h **** #ifndef PORTMACRO_H
  30:C:/Infineon/Tools/DAVE IDE/4.5.0.202105191637/eclipse/workspace/xmc4800-CE/Dave/Generated/FREERTOS/portable/GCC\portmacro.h ****     #define PORTMACRO_H
  31:C:/Infineon/Tools/DAVE IDE/4.5.0.202105191637/eclipse/workspace/xmc4800-CE/Dave/Generated/FREERTOS/portable/GCC\portmacro.h **** 
  32:C:/Infineon/Tools/DAVE IDE/4.5.0.202105191637/eclipse/workspace/xmc4800-CE/Dave/Generated/FREERTOS/portable/GCC\portmacro.h ****     #ifdef __cplusplus
  33:C:/Infineon/Tools/DAVE IDE/4.5.0.202105191637/eclipse/workspace/xmc4800-CE/Dave/Generated/FREERTOS/portable/GCC\portmacro.h ****         extern "C" {
  34:C:/Infineon/Tools/DAVE IDE/4.5.0.202105191637/eclipse/workspace/xmc4800-CE/Dave/Generated/FREERTOS/portable/GCC\portmacro.h ****     #endif
  35:C:/Infineon/Tools/DAVE IDE/4.5.0.202105191637/eclipse/workspace/xmc4800-CE/Dave/Generated/FREERTOS/portable/GCC\portmacro.h **** 
  36:C:/Infineon/Tools/DAVE IDE/4.5.0.202105191637/eclipse/workspace/xmc4800-CE/Dave/Generated/FREERTOS/portable/GCC\portmacro.h **** /*-----------------------------------------------------------
  37:C:/Infineon/Tools/DAVE IDE/4.5.0.202105191637/eclipse/workspace/xmc4800-CE/Dave/Generated/FREERTOS/portable/GCC\portmacro.h ****  * Port specific definitions.
  38:C:/Infineon/Tools/DAVE IDE/4.5.0.202105191637/eclipse/workspace/xmc4800-CE/Dave/Generated/FREERTOS/portable/GCC\portmacro.h ****  *
  39:C:/Infineon/Tools/DAVE IDE/4.5.0.202105191637/eclipse/workspace/xmc4800-CE/Dave/Generated/FREERTOS/portable/GCC\portmacro.h ****  * The settings in this file configure FreeRTOS correctly for the
  40:C:/Infineon/Tools/DAVE IDE/4.5.0.202105191637/eclipse/workspace/xmc4800-CE/Dave/Generated/FREERTOS/portable/GCC\portmacro.h ****  * given hardware and compiler.
  41:C:/Infineon/Tools/DAVE IDE/4.5.0.202105191637/eclipse/workspace/xmc4800-CE/Dave/Generated/FREERTOS/portable/GCC\portmacro.h ****  *
  42:C:/Infineon/Tools/DAVE IDE/4.5.0.202105191637/eclipse/workspace/xmc4800-CE/Dave/Generated/FREERTOS/portable/GCC\portmacro.h ****  * These settings should not be altered.
  43:C:/Infineon/Tools/DAVE IDE/4.5.0.202105191637/eclipse/workspace/xmc4800-CE/Dave/Generated/FREERTOS/portable/GCC\portmacro.h ****  *-----------------------------------------------------------
  44:C:/Infineon/Tools/DAVE IDE/4.5.0.202105191637/eclipse/workspace/xmc4800-CE/Dave/Generated/FREERTOS/portable/GCC\portmacro.h ****  */
  45:C:/Infineon/Tools/DAVE IDE/4.5.0.202105191637/eclipse/workspace/xmc4800-CE/Dave/Generated/FREERTOS/portable/GCC\portmacro.h **** 
  46:C:/Infineon/Tools/DAVE IDE/4.5.0.202105191637/eclipse/workspace/xmc4800-CE/Dave/Generated/FREERTOS/portable/GCC\portmacro.h **** /* Type definitions. */
  47:C:/Infineon/Tools/DAVE IDE/4.5.0.202105191637/eclipse/workspace/xmc4800-CE/Dave/Generated/FREERTOS/portable/GCC\portmacro.h ****     #define portCHAR          char
  48:C:/Infineon/Tools/DAVE IDE/4.5.0.202105191637/eclipse/workspace/xmc4800-CE/Dave/Generated/FREERTOS/portable/GCC\portmacro.h ****     #define portFLOAT         float
  49:C:/Infineon/Tools/DAVE IDE/4.5.0.202105191637/eclipse/workspace/xmc4800-CE/Dave/Generated/FREERTOS/portable/GCC\portmacro.h ****     #define portDOUBLE        double
  50:C:/Infineon/Tools/DAVE IDE/4.5.0.202105191637/eclipse/workspace/xmc4800-CE/Dave/Generated/FREERTOS/portable/GCC\portmacro.h ****     #define portLONG          long
  51:C:/Infineon/Tools/DAVE IDE/4.5.0.202105191637/eclipse/workspace/xmc4800-CE/Dave/Generated/FREERTOS/portable/GCC\portmacro.h ****     #define portSHORT         short
  52:C:/Infineon/Tools/DAVE IDE/4.5.0.202105191637/eclipse/workspace/xmc4800-CE/Dave/Generated/FREERTOS/portable/GCC\portmacro.h ****     #define portSTACK_TYPE    uint32_t
  53:C:/Infineon/Tools/DAVE IDE/4.5.0.202105191637/eclipse/workspace/xmc4800-CE/Dave/Generated/FREERTOS/portable/GCC\portmacro.h ****     #define portBASE_TYPE     long
  54:C:/Infineon/Tools/DAVE IDE/4.5.0.202105191637/eclipse/workspace/xmc4800-CE/Dave/Generated/FREERTOS/portable/GCC\portmacro.h **** 
  55:C:/Infineon/Tools/DAVE IDE/4.5.0.202105191637/eclipse/workspace/xmc4800-CE/Dave/Generated/FREERTOS/portable/GCC\portmacro.h ****     typedef portSTACK_TYPE   StackType_t;
  56:C:/Infineon/Tools/DAVE IDE/4.5.0.202105191637/eclipse/workspace/xmc4800-CE/Dave/Generated/FREERTOS/portable/GCC\portmacro.h ****     typedef long             BaseType_t;
  57:C:/Infineon/Tools/DAVE IDE/4.5.0.202105191637/eclipse/workspace/xmc4800-CE/Dave/Generated/FREERTOS/portable/GCC\portmacro.h ****     typedef unsigned long    UBaseType_t;
  58:C:/Infineon/Tools/DAVE IDE/4.5.0.202105191637/eclipse/workspace/xmc4800-CE/Dave/Generated/FREERTOS/portable/GCC\portmacro.h **** 
  59:C:/Infineon/Tools/DAVE IDE/4.5.0.202105191637/eclipse/workspace/xmc4800-CE/Dave/Generated/FREERTOS/portable/GCC\portmacro.h ****     #if ( configUSE_16_BIT_TICKS == 1 )
  60:C:/Infineon/Tools/DAVE IDE/4.5.0.202105191637/eclipse/workspace/xmc4800-CE/Dave/Generated/FREERTOS/portable/GCC\portmacro.h ****         typedef uint16_t     TickType_t;
  61:C:/Infineon/Tools/DAVE IDE/4.5.0.202105191637/eclipse/workspace/xmc4800-CE/Dave/Generated/FREERTOS/portable/GCC\portmacro.h ****         #define portMAX_DELAY              ( TickType_t ) 0xffff
  62:C:/Infineon/Tools/DAVE IDE/4.5.0.202105191637/eclipse/workspace/xmc4800-CE/Dave/Generated/FREERTOS/portable/GCC\portmacro.h ****     #else
  63:C:/Infineon/Tools/DAVE IDE/4.5.0.202105191637/eclipse/workspace/xmc4800-CE/Dave/Generated/FREERTOS/portable/GCC\portmacro.h ****         typedef uint32_t     TickType_t;
  64:C:/Infineon/Tools/DAVE IDE/4.5.0.202105191637/eclipse/workspace/xmc4800-CE/Dave/Generated/FREERTOS/portable/GCC\portmacro.h ****         #define portMAX_DELAY              ( TickType_t ) 0xffffffffUL
  65:C:/Infineon/Tools/DAVE IDE/4.5.0.202105191637/eclipse/workspace/xmc4800-CE/Dave/Generated/FREERTOS/portable/GCC\portmacro.h **** 
  66:C:/Infineon/Tools/DAVE IDE/4.5.0.202105191637/eclipse/workspace/xmc4800-CE/Dave/Generated/FREERTOS/portable/GCC\portmacro.h **** /* 32-bit tick type on a 32-bit architecture, so reads of the tick count do
  67:C:/Infineon/Tools/DAVE IDE/4.5.0.202105191637/eclipse/workspace/xmc4800-CE/Dave/Generated/FREERTOS/portable/GCC\portmacro.h ****  * not need to be guarded with a critical section. */
  68:C:/Infineon/Tools/DAVE IDE/4.5.0.202105191637/eclipse/workspace/xmc4800-CE/Dave/Generated/FREERTOS/portable/GCC\portmacro.h ****         #define portTICK_TYPE_IS_ATOMIC    1
  69:C:/Infineon/Tools/DAVE IDE/4.5.0.202105191637/eclipse/workspace/xmc4800-CE/Dave/Generated/FREERTOS/portable/GCC\portmacro.h ****     #endif
  70:C:/Infineon/Tools/DAVE IDE/4.5.0.202105191637/eclipse/workspace/xmc4800-CE/Dave/Generated/FREERTOS/portable/GCC\portmacro.h **** /*-----------------------------------------------------------*/
  71:C:/Infineon/Tools/DAVE IDE/4.5.0.202105191637/eclipse/workspace/xmc4800-CE/Dave/Generated/FREERTOS/portable/GCC\portmacro.h **** 
  72:C:/Infineon/Tools/DAVE IDE/4.5.0.202105191637/eclipse/workspace/xmc4800-CE/Dave/Generated/FREERTOS/portable/GCC\portmacro.h **** /* Architecture specifics. */
  73:C:/Infineon/Tools/DAVE IDE/4.5.0.202105191637/eclipse/workspace/xmc4800-CE/Dave/Generated/FREERTOS/portable/GCC\portmacro.h ****     #define portSTACK_GROWTH      ( -1 )
  74:C:/Infineon/Tools/DAVE IDE/4.5.0.202105191637/eclipse/workspace/xmc4800-CE/Dave/Generated/FREERTOS/portable/GCC\portmacro.h ****     #define portTICK_PERIOD_MS    ( ( TickType_t ) 1000 / configTICK_RATE_HZ )
  75:C:/Infineon/Tools/DAVE IDE/4.5.0.202105191637/eclipse/workspace/xmc4800-CE/Dave/Generated/FREERTOS/portable/GCC\portmacro.h ****     #define portBYTE_ALIGNMENT    8
  76:C:/Infineon/Tools/DAVE IDE/4.5.0.202105191637/eclipse/workspace/xmc4800-CE/Dave/Generated/FREERTOS/portable/GCC\portmacro.h ****     #define portDONT_DISCARD      __attribute__( ( used ) )
  77:C:/Infineon/Tools/DAVE IDE/4.5.0.202105191637/eclipse/workspace/xmc4800-CE/Dave/Generated/FREERTOS/portable/GCC\portmacro.h **** /*-----------------------------------------------------------*/
  78:C:/Infineon/Tools/DAVE IDE/4.5.0.202105191637/eclipse/workspace/xmc4800-CE/Dave/Generated/FREERTOS/portable/GCC\portmacro.h **** 
  79:C:/Infineon/Tools/DAVE IDE/4.5.0.202105191637/eclipse/workspace/xmc4800-CE/Dave/Generated/FREERTOS/portable/GCC\portmacro.h **** /* Scheduler utilities. */
  80:C:/Infineon/Tools/DAVE IDE/4.5.0.202105191637/eclipse/workspace/xmc4800-CE/Dave/Generated/FREERTOS/portable/GCC\portmacro.h ****     #define portYIELD()                                 \
  81:C:/Infineon/Tools/DAVE IDE/4.5.0.202105191637/eclipse/workspace/xmc4800-CE/Dave/Generated/FREERTOS/portable/GCC\portmacro.h ****     {                                                   \
  82:C:/Infineon/Tools/DAVE IDE/4.5.0.202105191637/eclipse/workspace/xmc4800-CE/Dave/Generated/FREERTOS/portable/GCC\portmacro.h ****         /* Set a PendSV to request a context switch. */ \
  83:C:/Infineon/Tools/DAVE IDE/4.5.0.202105191637/eclipse/workspace/xmc4800-CE/Dave/Generated/FREERTOS/portable/GCC\portmacro.h ****         portNVIC_INT_CTRL_REG = portNVIC_PENDSVSET_BIT; \
  84:C:/Infineon/Tools/DAVE IDE/4.5.0.202105191637/eclipse/workspace/xmc4800-CE/Dave/Generated/FREERTOS/portable/GCC\portmacro.h ****                                                         \
  85:C:/Infineon/Tools/DAVE IDE/4.5.0.202105191637/eclipse/workspace/xmc4800-CE/Dave/Generated/FREERTOS/portable/GCC\portmacro.h ****         /* Barriers are normally not required but do ensure the code is completely \
  86:C:/Infineon/Tools/DAVE IDE/4.5.0.202105191637/eclipse/workspace/xmc4800-CE/Dave/Generated/FREERTOS/portable/GCC\portmacro.h ****          * within the specified behaviour for the architecture. */ \
  87:C:/Infineon/Tools/DAVE IDE/4.5.0.202105191637/eclipse/workspace/xmc4800-CE/Dave/Generated/FREERTOS/portable/GCC\portmacro.h ****         __asm volatile ( "dsb" ::: "memory" );                     \
  88:C:/Infineon/Tools/DAVE IDE/4.5.0.202105191637/eclipse/workspace/xmc4800-CE/Dave/Generated/FREERTOS/portable/GCC\portmacro.h ****         __asm volatile ( "isb" );                                  \
  89:C:/Infineon/Tools/DAVE IDE/4.5.0.202105191637/eclipse/workspace/xmc4800-CE/Dave/Generated/FREERTOS/portable/GCC\portmacro.h ****     }
  90:C:/Infineon/Tools/DAVE IDE/4.5.0.202105191637/eclipse/workspace/xmc4800-CE/Dave/Generated/FREERTOS/portable/GCC\portmacro.h **** 
  91:C:/Infineon/Tools/DAVE IDE/4.5.0.202105191637/eclipse/workspace/xmc4800-CE/Dave/Generated/FREERTOS/portable/GCC\portmacro.h ****     #define portNVIC_INT_CTRL_REG     ( *( ( volatile uint32_t * ) 0xe000ed04 ) )
  92:C:/Infineon/Tools/DAVE IDE/4.5.0.202105191637/eclipse/workspace/xmc4800-CE/Dave/Generated/FREERTOS/portable/GCC\portmacro.h ****     #define portNVIC_PENDSVSET_BIT    ( 1UL << 28UL )
  93:C:/Infineon/Tools/DAVE IDE/4.5.0.202105191637/eclipse/workspace/xmc4800-CE/Dave/Generated/FREERTOS/portable/GCC\portmacro.h ****     #define portEND_SWITCHING_ISR( xSwitchRequired )    if( xSwitchRequired != pdFALSE ) portYIELD(
  94:C:/Infineon/Tools/DAVE IDE/4.5.0.202105191637/eclipse/workspace/xmc4800-CE/Dave/Generated/FREERTOS/portable/GCC\portmacro.h ****     #define portYIELD_FROM_ISR( x )                     portEND_SWITCHING_ISR( x )
  95:C:/Infineon/Tools/DAVE IDE/4.5.0.202105191637/eclipse/workspace/xmc4800-CE/Dave/Generated/FREERTOS/portable/GCC\portmacro.h **** /*-----------------------------------------------------------*/
  96:C:/Infineon/Tools/DAVE IDE/4.5.0.202105191637/eclipse/workspace/xmc4800-CE/Dave/Generated/FREERTOS/portable/GCC\portmacro.h **** 
  97:C:/Infineon/Tools/DAVE IDE/4.5.0.202105191637/eclipse/workspace/xmc4800-CE/Dave/Generated/FREERTOS/portable/GCC\portmacro.h **** /* Critical section management. */
  98:C:/Infineon/Tools/DAVE IDE/4.5.0.202105191637/eclipse/workspace/xmc4800-CE/Dave/Generated/FREERTOS/portable/GCC\portmacro.h ****     extern void vPortEnterCritical( void );
  99:C:/Infineon/Tools/DAVE IDE/4.5.0.202105191637/eclipse/workspace/xmc4800-CE/Dave/Generated/FREERTOS/portable/GCC\portmacro.h ****     extern void vPortExitCritical( void );
 100:C:/Infineon/Tools/DAVE IDE/4.5.0.202105191637/eclipse/workspace/xmc4800-CE/Dave/Generated/FREERTOS/portable/GCC\portmacro.h ****     #define portSET_INTERRUPT_MASK_FROM_ISR()         ulPortRaiseBASEPRI()
 101:C:/Infineon/Tools/DAVE IDE/4.5.0.202105191637/eclipse/workspace/xmc4800-CE/Dave/Generated/FREERTOS/portable/GCC\portmacro.h ****     #define portCLEAR_INTERRUPT_MASK_FROM_ISR( x )    vPortSetBASEPRI( x )
 102:C:/Infineon/Tools/DAVE IDE/4.5.0.202105191637/eclipse/workspace/xmc4800-CE/Dave/Generated/FREERTOS/portable/GCC\portmacro.h ****     #define portDISABLE_INTERRUPTS()                  vPortRaiseBASEPRI()
 103:C:/Infineon/Tools/DAVE IDE/4.5.0.202105191637/eclipse/workspace/xmc4800-CE/Dave/Generated/FREERTOS/portable/GCC\portmacro.h ****     #define portENABLE_INTERRUPTS()                   vPortSetBASEPRI( 0 )
 104:C:/Infineon/Tools/DAVE IDE/4.5.0.202105191637/eclipse/workspace/xmc4800-CE/Dave/Generated/FREERTOS/portable/GCC\portmacro.h ****     #define portENTER_CRITICAL()                      vPortEnterCritical()
 105:C:/Infineon/Tools/DAVE IDE/4.5.0.202105191637/eclipse/workspace/xmc4800-CE/Dave/Generated/FREERTOS/portable/GCC\portmacro.h ****     #define portEXIT_CRITICAL()                       vPortExitCritical()
 106:C:/Infineon/Tools/DAVE IDE/4.5.0.202105191637/eclipse/workspace/xmc4800-CE/Dave/Generated/FREERTOS/portable/GCC\portmacro.h **** 
 107:C:/Infineon/Tools/DAVE IDE/4.5.0.202105191637/eclipse/workspace/xmc4800-CE/Dave/Generated/FREERTOS/portable/GCC\portmacro.h **** /*-----------------------------------------------------------*/
 108:C:/Infineon/Tools/DAVE IDE/4.5.0.202105191637/eclipse/workspace/xmc4800-CE/Dave/Generated/FREERTOS/portable/GCC\portmacro.h **** 
 109:C:/Infineon/Tools/DAVE IDE/4.5.0.202105191637/eclipse/workspace/xmc4800-CE/Dave/Generated/FREERTOS/portable/GCC\portmacro.h **** /* Task function macros as described on the FreeRTOS.org WEB site.  These are
 110:C:/Infineon/Tools/DAVE IDE/4.5.0.202105191637/eclipse/workspace/xmc4800-CE/Dave/Generated/FREERTOS/portable/GCC\portmacro.h ****  * not necessary for to use this port.  They are defined so the common demo files
 111:C:/Infineon/Tools/DAVE IDE/4.5.0.202105191637/eclipse/workspace/xmc4800-CE/Dave/Generated/FREERTOS/portable/GCC\portmacro.h ****  * (which build with all the ports) will build. */
 112:C:/Infineon/Tools/DAVE IDE/4.5.0.202105191637/eclipse/workspace/xmc4800-CE/Dave/Generated/FREERTOS/portable/GCC\portmacro.h ****     #define portTASK_FUNCTION_PROTO( vFunction, pvParameters )    void vFunction( void * pvParamete
 113:C:/Infineon/Tools/DAVE IDE/4.5.0.202105191637/eclipse/workspace/xmc4800-CE/Dave/Generated/FREERTOS/portable/GCC\portmacro.h ****     #define portTASK_FUNCTION( vFunction, pvParameters )          void vFunction( void * pvParamete
 114:C:/Infineon/Tools/DAVE IDE/4.5.0.202105191637/eclipse/workspace/xmc4800-CE/Dave/Generated/FREERTOS/portable/GCC\portmacro.h **** /*-----------------------------------------------------------*/
 115:C:/Infineon/Tools/DAVE IDE/4.5.0.202105191637/eclipse/workspace/xmc4800-CE/Dave/Generated/FREERTOS/portable/GCC\portmacro.h **** 
 116:C:/Infineon/Tools/DAVE IDE/4.5.0.202105191637/eclipse/workspace/xmc4800-CE/Dave/Generated/FREERTOS/portable/GCC\portmacro.h **** /* Tickless idle/low power functionality. */
 117:C:/Infineon/Tools/DAVE IDE/4.5.0.202105191637/eclipse/workspace/xmc4800-CE/Dave/Generated/FREERTOS/portable/GCC\portmacro.h ****     #ifndef portSUPPRESS_TICKS_AND_SLEEP
 118:C:/Infineon/Tools/DAVE IDE/4.5.0.202105191637/eclipse/workspace/xmc4800-CE/Dave/Generated/FREERTOS/portable/GCC\portmacro.h ****         extern void vPortSuppressTicksAndSleep( TickType_t xExpectedIdleTime );
 119:C:/Infineon/Tools/DAVE IDE/4.5.0.202105191637/eclipse/workspace/xmc4800-CE/Dave/Generated/FREERTOS/portable/GCC\portmacro.h ****         #define portSUPPRESS_TICKS_AND_SLEEP( xExpectedIdleTime )    vPortSuppressTicksAndSleep( xE
 120:C:/Infineon/Tools/DAVE IDE/4.5.0.202105191637/eclipse/workspace/xmc4800-CE/Dave/Generated/FREERTOS/portable/GCC\portmacro.h ****     #endif
 121:C:/Infineon/Tools/DAVE IDE/4.5.0.202105191637/eclipse/workspace/xmc4800-CE/Dave/Generated/FREERTOS/portable/GCC\portmacro.h **** /*-----------------------------------------------------------*/
 122:C:/Infineon/Tools/DAVE IDE/4.5.0.202105191637/eclipse/workspace/xmc4800-CE/Dave/Generated/FREERTOS/portable/GCC\portmacro.h **** 
 123:C:/Infineon/Tools/DAVE IDE/4.5.0.202105191637/eclipse/workspace/xmc4800-CE/Dave/Generated/FREERTOS/portable/GCC\portmacro.h **** /* Architecture specific optimisations. */
 124:C:/Infineon/Tools/DAVE IDE/4.5.0.202105191637/eclipse/workspace/xmc4800-CE/Dave/Generated/FREERTOS/portable/GCC\portmacro.h ****     #ifndef configUSE_PORT_OPTIMISED_TASK_SELECTION
 125:C:/Infineon/Tools/DAVE IDE/4.5.0.202105191637/eclipse/workspace/xmc4800-CE/Dave/Generated/FREERTOS/portable/GCC\portmacro.h ****         #define configUSE_PORT_OPTIMISED_TASK_SELECTION    1
 126:C:/Infineon/Tools/DAVE IDE/4.5.0.202105191637/eclipse/workspace/xmc4800-CE/Dave/Generated/FREERTOS/portable/GCC\portmacro.h ****     #endif
 127:C:/Infineon/Tools/DAVE IDE/4.5.0.202105191637/eclipse/workspace/xmc4800-CE/Dave/Generated/FREERTOS/portable/GCC\portmacro.h **** 
 128:C:/Infineon/Tools/DAVE IDE/4.5.0.202105191637/eclipse/workspace/xmc4800-CE/Dave/Generated/FREERTOS/portable/GCC\portmacro.h ****     #if configUSE_PORT_OPTIMISED_TASK_SELECTION == 1
 129:C:/Infineon/Tools/DAVE IDE/4.5.0.202105191637/eclipse/workspace/xmc4800-CE/Dave/Generated/FREERTOS/portable/GCC\portmacro.h **** 
 130:C:/Infineon/Tools/DAVE IDE/4.5.0.202105191637/eclipse/workspace/xmc4800-CE/Dave/Generated/FREERTOS/portable/GCC\portmacro.h **** /* Generic helper function. */
 131:C:/Infineon/Tools/DAVE IDE/4.5.0.202105191637/eclipse/workspace/xmc4800-CE/Dave/Generated/FREERTOS/portable/GCC\portmacro.h ****         __attribute__( ( always_inline ) ) static inline uint8_t ucPortCountLeadingZeros( uint32_t 
 132:C:/Infineon/Tools/DAVE IDE/4.5.0.202105191637/eclipse/workspace/xmc4800-CE/Dave/Generated/FREERTOS/portable/GCC\portmacro.h ****         {
 133:C:/Infineon/Tools/DAVE IDE/4.5.0.202105191637/eclipse/workspace/xmc4800-CE/Dave/Generated/FREERTOS/portable/GCC\portmacro.h ****             uint8_t ucReturn;
 134:C:/Infineon/Tools/DAVE IDE/4.5.0.202105191637/eclipse/workspace/xmc4800-CE/Dave/Generated/FREERTOS/portable/GCC\portmacro.h **** 
 135:C:/Infineon/Tools/DAVE IDE/4.5.0.202105191637/eclipse/workspace/xmc4800-CE/Dave/Generated/FREERTOS/portable/GCC\portmacro.h ****             __asm volatile ( "clz %0, %1" : "=r" ( ucReturn ) : "r" ( ulBitmap ) : "memory" );
 136:C:/Infineon/Tools/DAVE IDE/4.5.0.202105191637/eclipse/workspace/xmc4800-CE/Dave/Generated/FREERTOS/portable/GCC\portmacro.h **** 
 137:C:/Infineon/Tools/DAVE IDE/4.5.0.202105191637/eclipse/workspace/xmc4800-CE/Dave/Generated/FREERTOS/portable/GCC\portmacro.h ****             return ucReturn;
 138:C:/Infineon/Tools/DAVE IDE/4.5.0.202105191637/eclipse/workspace/xmc4800-CE/Dave/Generated/FREERTOS/portable/GCC\portmacro.h ****         }
 139:C:/Infineon/Tools/DAVE IDE/4.5.0.202105191637/eclipse/workspace/xmc4800-CE/Dave/Generated/FREERTOS/portable/GCC\portmacro.h **** 
 140:C:/Infineon/Tools/DAVE IDE/4.5.0.202105191637/eclipse/workspace/xmc4800-CE/Dave/Generated/FREERTOS/portable/GCC\portmacro.h **** /* Check the configuration. */
 141:C:/Infineon/Tools/DAVE IDE/4.5.0.202105191637/eclipse/workspace/xmc4800-CE/Dave/Generated/FREERTOS/portable/GCC\portmacro.h ****         #if ( configMAX_PRIORITIES > 32 )
 142:C:/Infineon/Tools/DAVE IDE/4.5.0.202105191637/eclipse/workspace/xmc4800-CE/Dave/Generated/FREERTOS/portable/GCC\portmacro.h ****             #error configUSE_PORT_OPTIMISED_TASK_SELECTION can only be set to 1 when configMAX_PRIO
 143:C:/Infineon/Tools/DAVE IDE/4.5.0.202105191637/eclipse/workspace/xmc4800-CE/Dave/Generated/FREERTOS/portable/GCC\portmacro.h ****         #endif
 144:C:/Infineon/Tools/DAVE IDE/4.5.0.202105191637/eclipse/workspace/xmc4800-CE/Dave/Generated/FREERTOS/portable/GCC\portmacro.h **** 
 145:C:/Infineon/Tools/DAVE IDE/4.5.0.202105191637/eclipse/workspace/xmc4800-CE/Dave/Generated/FREERTOS/portable/GCC\portmacro.h **** /* Store/clear the ready priorities in a bit map. */
 146:C:/Infineon/Tools/DAVE IDE/4.5.0.202105191637/eclipse/workspace/xmc4800-CE/Dave/Generated/FREERTOS/portable/GCC\portmacro.h ****         #define portRECORD_READY_PRIORITY( uxPriority, uxReadyPriorities )    ( uxReadyPriorities )
 147:C:/Infineon/Tools/DAVE IDE/4.5.0.202105191637/eclipse/workspace/xmc4800-CE/Dave/Generated/FREERTOS/portable/GCC\portmacro.h ****         #define portRESET_READY_PRIORITY( uxPriority, uxReadyPriorities )     ( uxReadyPriorities )
 148:C:/Infineon/Tools/DAVE IDE/4.5.0.202105191637/eclipse/workspace/xmc4800-CE/Dave/Generated/FREERTOS/portable/GCC\portmacro.h **** 
 149:C:/Infineon/Tools/DAVE IDE/4.5.0.202105191637/eclipse/workspace/xmc4800-CE/Dave/Generated/FREERTOS/portable/GCC\portmacro.h **** /*-----------------------------------------------------------*/
 150:C:/Infineon/Tools/DAVE IDE/4.5.0.202105191637/eclipse/workspace/xmc4800-CE/Dave/Generated/FREERTOS/portable/GCC\portmacro.h **** 
 151:C:/Infineon/Tools/DAVE IDE/4.5.0.202105191637/eclipse/workspace/xmc4800-CE/Dave/Generated/FREERTOS/portable/GCC\portmacro.h ****         #define portGET_HIGHEST_PRIORITY( uxTopPriority, uxReadyPriorities )    uxTopPriority = ( 3
 152:C:/Infineon/Tools/DAVE IDE/4.5.0.202105191637/eclipse/workspace/xmc4800-CE/Dave/Generated/FREERTOS/portable/GCC\portmacro.h **** 
 153:C:/Infineon/Tools/DAVE IDE/4.5.0.202105191637/eclipse/workspace/xmc4800-CE/Dave/Generated/FREERTOS/portable/GCC\portmacro.h ****     #endif /* configUSE_PORT_OPTIMISED_TASK_SELECTION */
 154:C:/Infineon/Tools/DAVE IDE/4.5.0.202105191637/eclipse/workspace/xmc4800-CE/Dave/Generated/FREERTOS/portable/GCC\portmacro.h **** 
 155:C:/Infineon/Tools/DAVE IDE/4.5.0.202105191637/eclipse/workspace/xmc4800-CE/Dave/Generated/FREERTOS/portable/GCC\portmacro.h **** /*-----------------------------------------------------------*/
 156:C:/Infineon/Tools/DAVE IDE/4.5.0.202105191637/eclipse/workspace/xmc4800-CE/Dave/Generated/FREERTOS/portable/GCC\portmacro.h **** 
 157:C:/Infineon/Tools/DAVE IDE/4.5.0.202105191637/eclipse/workspace/xmc4800-CE/Dave/Generated/FREERTOS/portable/GCC\portmacro.h ****     #ifdef configASSERT
 158:C:/Infineon/Tools/DAVE IDE/4.5.0.202105191637/eclipse/workspace/xmc4800-CE/Dave/Generated/FREERTOS/portable/GCC\portmacro.h ****         void vPortValidateInterruptPriority( void );
 159:C:/Infineon/Tools/DAVE IDE/4.5.0.202105191637/eclipse/workspace/xmc4800-CE/Dave/Generated/FREERTOS/portable/GCC\portmacro.h ****         #define portASSERT_IF_INTERRUPT_PRIORITY_INVALID()    vPortValidateInterruptPriority()
 160:C:/Infineon/Tools/DAVE IDE/4.5.0.202105191637/eclipse/workspace/xmc4800-CE/Dave/Generated/FREERTOS/portable/GCC\portmacro.h ****     #endif
 161:C:/Infineon/Tools/DAVE IDE/4.5.0.202105191637/eclipse/workspace/xmc4800-CE/Dave/Generated/FREERTOS/portable/GCC\portmacro.h **** 
 162:C:/Infineon/Tools/DAVE IDE/4.5.0.202105191637/eclipse/workspace/xmc4800-CE/Dave/Generated/FREERTOS/portable/GCC\portmacro.h **** /* portNOP() is not required by this port. */
 163:C:/Infineon/Tools/DAVE IDE/4.5.0.202105191637/eclipse/workspace/xmc4800-CE/Dave/Generated/FREERTOS/portable/GCC\portmacro.h ****     #define portNOP()
 164:C:/Infineon/Tools/DAVE IDE/4.5.0.202105191637/eclipse/workspace/xmc4800-CE/Dave/Generated/FREERTOS/portable/GCC\portmacro.h **** 
 165:C:/Infineon/Tools/DAVE IDE/4.5.0.202105191637/eclipse/workspace/xmc4800-CE/Dave/Generated/FREERTOS/portable/GCC\portmacro.h ****     #define portINLINE              __inline
 166:C:/Infineon/Tools/DAVE IDE/4.5.0.202105191637/eclipse/workspace/xmc4800-CE/Dave/Generated/FREERTOS/portable/GCC\portmacro.h **** 
 167:C:/Infineon/Tools/DAVE IDE/4.5.0.202105191637/eclipse/workspace/xmc4800-CE/Dave/Generated/FREERTOS/portable/GCC\portmacro.h ****     #ifndef portFORCE_INLINE
 168:C:/Infineon/Tools/DAVE IDE/4.5.0.202105191637/eclipse/workspace/xmc4800-CE/Dave/Generated/FREERTOS/portable/GCC\portmacro.h ****         #define portFORCE_INLINE    inline __attribute__( ( always_inline ) )
 169:C:/Infineon/Tools/DAVE IDE/4.5.0.202105191637/eclipse/workspace/xmc4800-CE/Dave/Generated/FREERTOS/portable/GCC\portmacro.h ****     #endif
 170:C:/Infineon/Tools/DAVE IDE/4.5.0.202105191637/eclipse/workspace/xmc4800-CE/Dave/Generated/FREERTOS/portable/GCC\portmacro.h **** 
 171:C:/Infineon/Tools/DAVE IDE/4.5.0.202105191637/eclipse/workspace/xmc4800-CE/Dave/Generated/FREERTOS/portable/GCC\portmacro.h ****     portFORCE_INLINE static BaseType_t xPortIsInsideInterrupt( void )
 172:C:/Infineon/Tools/DAVE IDE/4.5.0.202105191637/eclipse/workspace/xmc4800-CE/Dave/Generated/FREERTOS/portable/GCC\portmacro.h ****     {
 173:C:/Infineon/Tools/DAVE IDE/4.5.0.202105191637/eclipse/workspace/xmc4800-CE/Dave/Generated/FREERTOS/portable/GCC\portmacro.h ****         uint32_t ulCurrentInterrupt;
 174:C:/Infineon/Tools/DAVE IDE/4.5.0.202105191637/eclipse/workspace/xmc4800-CE/Dave/Generated/FREERTOS/portable/GCC\portmacro.h ****         BaseType_t xReturn;
 175:C:/Infineon/Tools/DAVE IDE/4.5.0.202105191637/eclipse/workspace/xmc4800-CE/Dave/Generated/FREERTOS/portable/GCC\portmacro.h **** 
 176:C:/Infineon/Tools/DAVE IDE/4.5.0.202105191637/eclipse/workspace/xmc4800-CE/Dave/Generated/FREERTOS/portable/GCC\portmacro.h ****         /* Obtain the number of the currently executing interrupt. */
 177:C:/Infineon/Tools/DAVE IDE/4.5.0.202105191637/eclipse/workspace/xmc4800-CE/Dave/Generated/FREERTOS/portable/GCC\portmacro.h ****         __asm volatile ( "mrs %0, ipsr" : "=r" ( ulCurrentInterrupt )::"memory" );
 178:C:/Infineon/Tools/DAVE IDE/4.5.0.202105191637/eclipse/workspace/xmc4800-CE/Dave/Generated/FREERTOS/portable/GCC\portmacro.h **** 
 179:C:/Infineon/Tools/DAVE IDE/4.5.0.202105191637/eclipse/workspace/xmc4800-CE/Dave/Generated/FREERTOS/portable/GCC\portmacro.h ****         if( ulCurrentInterrupt == 0 )
 180:C:/Infineon/Tools/DAVE IDE/4.5.0.202105191637/eclipse/workspace/xmc4800-CE/Dave/Generated/FREERTOS/portable/GCC\portmacro.h ****         {
 181:C:/Infineon/Tools/DAVE IDE/4.5.0.202105191637/eclipse/workspace/xmc4800-CE/Dave/Generated/FREERTOS/portable/GCC\portmacro.h ****             xReturn = pdFALSE;
 182:C:/Infineon/Tools/DAVE IDE/4.5.0.202105191637/eclipse/workspace/xmc4800-CE/Dave/Generated/FREERTOS/portable/GCC\portmacro.h ****         }
 183:C:/Infineon/Tools/DAVE IDE/4.5.0.202105191637/eclipse/workspace/xmc4800-CE/Dave/Generated/FREERTOS/portable/GCC\portmacro.h ****         else
 184:C:/Infineon/Tools/DAVE IDE/4.5.0.202105191637/eclipse/workspace/xmc4800-CE/Dave/Generated/FREERTOS/portable/GCC\portmacro.h ****         {
 185:C:/Infineon/Tools/DAVE IDE/4.5.0.202105191637/eclipse/workspace/xmc4800-CE/Dave/Generated/FREERTOS/portable/GCC\portmacro.h ****             xReturn = pdTRUE;
 186:C:/Infineon/Tools/DAVE IDE/4.5.0.202105191637/eclipse/workspace/xmc4800-CE/Dave/Generated/FREERTOS/portable/GCC\portmacro.h ****         }
 187:C:/Infineon/Tools/DAVE IDE/4.5.0.202105191637/eclipse/workspace/xmc4800-CE/Dave/Generated/FREERTOS/portable/GCC\portmacro.h **** 
 188:C:/Infineon/Tools/DAVE IDE/4.5.0.202105191637/eclipse/workspace/xmc4800-CE/Dave/Generated/FREERTOS/portable/GCC\portmacro.h ****         return xReturn;
 189:C:/Infineon/Tools/DAVE IDE/4.5.0.202105191637/eclipse/workspace/xmc4800-CE/Dave/Generated/FREERTOS/portable/GCC\portmacro.h ****     }
 190:C:/Infineon/Tools/DAVE IDE/4.5.0.202105191637/eclipse/workspace/xmc4800-CE/Dave/Generated/FREERTOS/portable/GCC\portmacro.h **** 
 191:C:/Infineon/Tools/DAVE IDE/4.5.0.202105191637/eclipse/workspace/xmc4800-CE/Dave/Generated/FREERTOS/portable/GCC\portmacro.h **** /*-----------------------------------------------------------*/
 192:C:/Infineon/Tools/DAVE IDE/4.5.0.202105191637/eclipse/workspace/xmc4800-CE/Dave/Generated/FREERTOS/portable/GCC\portmacro.h **** 
 193:C:/Infineon/Tools/DAVE IDE/4.5.0.202105191637/eclipse/workspace/xmc4800-CE/Dave/Generated/FREERTOS/portable/GCC\portmacro.h ****     portFORCE_INLINE static void vPortRaiseBASEPRI( void )
 194:C:/Infineon/Tools/DAVE IDE/4.5.0.202105191637/eclipse/workspace/xmc4800-CE/Dave/Generated/FREERTOS/portable/GCC\portmacro.h ****     {
 195:C:/Infineon/Tools/DAVE IDE/4.5.0.202105191637/eclipse/workspace/xmc4800-CE/Dave/Generated/FREERTOS/portable/GCC\portmacro.h ****         uint32_t ulNewBASEPRI;
 196:C:/Infineon/Tools/DAVE IDE/4.5.0.202105191637/eclipse/workspace/xmc4800-CE/Dave/Generated/FREERTOS/portable/GCC\portmacro.h **** 
 197:C:/Infineon/Tools/DAVE IDE/4.5.0.202105191637/eclipse/workspace/xmc4800-CE/Dave/Generated/FREERTOS/portable/GCC\portmacro.h ****         __asm volatile
  56              	 .loc 2 197 0 discriminator 1
  57              	
  58 0014 4FF0FC03 	 mov r3,#252
  59 0018 83F31188 	 msr basepri,r3
  60 001c BFF36F8F 	 isb 
  61 0020 BFF34F8F 	 dsb 
  62              	
  63              	
  64              	 .thumb
  65 0024 BB60     	 str r3,[r7,#8]
  66              	.L3:
  67              	.LBE137:
  68              	.LBE136:
  69              	 .loc 1 269 0 discriminator 1
  70 0026 FEE7     	 b .L3
  71              	.L2:
 270:../Dave/Generated/FREERTOS/queue.c **** 
 271:../Dave/Generated/FREERTOS/queue.c ****     taskENTER_CRITICAL();
  72              	 .loc 1 271 0
  73 0028 FFF7FEFF 	 bl vPortEnterCritical
 272:../Dave/Generated/FREERTOS/queue.c ****     {
 273:../Dave/Generated/FREERTOS/queue.c ****         pxQueue->u.xQueue.pcTail = pxQueue->pcHead + ( pxQueue->uxLength * pxQueue->uxItemSize ); /
  74              	 .loc 1 273 0
  75 002c FB68     	 ldr r3,[r7,#12]
  76 002e 1A68     	 ldr r2,[r3]
  77 0030 FB68     	 ldr r3,[r7,#12]
  78 0032 DB6B     	 ldr r3,[r3,#60]
  79 0034 F968     	 ldr r1,[r7,#12]
  80 0036 096C     	 ldr r1,[r1,#64]
  81 0038 01FB03F3 	 mul r3,r1,r3
  82 003c 1A44     	 add r2,r2,r3
  83 003e FB68     	 ldr r3,[r7,#12]
  84 0040 9A60     	 str r2,[r3,#8]
 274:../Dave/Generated/FREERTOS/queue.c ****         pxQueue->uxMessagesWaiting = ( UBaseType_t ) 0U;
  85              	 .loc 1 274 0
  86 0042 FB68     	 ldr r3,[r7,#12]
  87 0044 0022     	 movs r2,#0
  88 0046 9A63     	 str r2,[r3,#56]
 275:../Dave/Generated/FREERTOS/queue.c ****         pxQueue->pcWriteTo = pxQueue->pcHead;
  89              	 .loc 1 275 0
  90 0048 FB68     	 ldr r3,[r7,#12]
  91 004a 1A68     	 ldr r2,[r3]
  92 004c FB68     	 ldr r3,[r7,#12]
  93 004e 5A60     	 str r2,[r3,#4]
 276:../Dave/Generated/FREERTOS/queue.c ****         pxQueue->u.xQueue.pcReadFrom = pxQueue->pcHead + ( ( pxQueue->uxLength - 1U ) * pxQueue->ux
  94              	 .loc 1 276 0
  95 0050 FB68     	 ldr r3,[r7,#12]
  96 0052 1A68     	 ldr r2,[r3]
  97 0054 FB68     	 ldr r3,[r7,#12]
  98 0056 DB6B     	 ldr r3,[r3,#60]
  99 0058 013B     	 subs r3,r3,#1
 100 005a F968     	 ldr r1,[r7,#12]
 101 005c 096C     	 ldr r1,[r1,#64]
 102 005e 01FB03F3 	 mul r3,r1,r3
 103 0062 1A44     	 add r2,r2,r3
 104 0064 FB68     	 ldr r3,[r7,#12]
 105 0066 DA60     	 str r2,[r3,#12]
 277:../Dave/Generated/FREERTOS/queue.c ****         pxQueue->cRxLock = queueUNLOCKED;
 106              	 .loc 1 277 0
 107 0068 FB68     	 ldr r3,[r7,#12]
 108 006a FF22     	 movs r2,#255
 109 006c 83F84420 	 strb r2,[r3,#68]
 278:../Dave/Generated/FREERTOS/queue.c ****         pxQueue->cTxLock = queueUNLOCKED;
 110              	 .loc 1 278 0
 111 0070 FB68     	 ldr r3,[r7,#12]
 112 0072 FF22     	 movs r2,#255
 113 0074 83F84520 	 strb r2,[r3,#69]
 279:../Dave/Generated/FREERTOS/queue.c **** 
 280:../Dave/Generated/FREERTOS/queue.c ****         if( xNewQueue == pdFALSE )
 114              	 .loc 1 280 0
 115 0078 3B68     	 ldr r3,[r7]
 116 007a 002B     	 cmp r3,#0
 117 007c 14D1     	 bne .L4
 281:../Dave/Generated/FREERTOS/queue.c ****         {
 282:../Dave/Generated/FREERTOS/queue.c ****             /* If there are tasks blocked waiting to read from the queue, then
 283:../Dave/Generated/FREERTOS/queue.c ****              * the tasks will remain blocked as after this function exits the queue
 284:../Dave/Generated/FREERTOS/queue.c ****              * will still be empty.  If there are tasks blocked waiting to write to
 285:../Dave/Generated/FREERTOS/queue.c ****              * the queue, then one should be unblocked as after this function exits
 286:../Dave/Generated/FREERTOS/queue.c ****              * it will be possible to write to it. */
 287:../Dave/Generated/FREERTOS/queue.c ****             if( listLIST_IS_EMPTY( &( pxQueue->xTasksWaitingToSend ) ) == pdFALSE )
 118              	 .loc 1 287 0
 119 007e FB68     	 ldr r3,[r7,#12]
 120 0080 1B69     	 ldr r3,[r3,#16]
 121 0082 002B     	 cmp r3,#0
 122 0084 1AD0     	 beq .L5
 288:../Dave/Generated/FREERTOS/queue.c ****             {
 289:../Dave/Generated/FREERTOS/queue.c ****                 if( xTaskRemoveFromEventList( &( pxQueue->xTasksWaitingToSend ) ) != pdFALSE )
 123              	 .loc 1 289 0
 124 0086 FB68     	 ldr r3,[r7,#12]
 125 0088 1033     	 adds r3,r3,#16
 126 008a 1846     	 mov r0,r3
 127 008c FFF7FEFF 	 bl xTaskRemoveFromEventList
 128 0090 0346     	 mov r3,r0
 129 0092 002B     	 cmp r3,#0
 130 0094 12D0     	 beq .L5
 290:../Dave/Generated/FREERTOS/queue.c ****                 {
 291:../Dave/Generated/FREERTOS/queue.c ****                     queueYIELD_IF_USING_PREEMPTION();
 131              	 .loc 1 291 0
 132 0096 0D4B     	 ldr r3,.L7
 133 0098 4FF08052 	 mov r2,#268435456
 134 009c 1A60     	 str r2,[r3]
 135              	
 136 009e BFF34F8F 	 dsb
 137              	
 138              	
 139 00a2 BFF36F8F 	 isb
 140              	
 141              	 .thumb
 142 00a6 09E0     	 b .L5
 143              	.L4:
 292:../Dave/Generated/FREERTOS/queue.c ****                 }
 293:../Dave/Generated/FREERTOS/queue.c ****                 else
 294:../Dave/Generated/FREERTOS/queue.c ****                 {
 295:../Dave/Generated/FREERTOS/queue.c ****                     mtCOVERAGE_TEST_MARKER();
 296:../Dave/Generated/FREERTOS/queue.c ****                 }
 297:../Dave/Generated/FREERTOS/queue.c ****             }
 298:../Dave/Generated/FREERTOS/queue.c ****             else
 299:../Dave/Generated/FREERTOS/queue.c ****             {
 300:../Dave/Generated/FREERTOS/queue.c ****                 mtCOVERAGE_TEST_MARKER();
 301:../Dave/Generated/FREERTOS/queue.c ****             }
 302:../Dave/Generated/FREERTOS/queue.c ****         }
 303:../Dave/Generated/FREERTOS/queue.c ****         else
 304:../Dave/Generated/FREERTOS/queue.c ****         {
 305:../Dave/Generated/FREERTOS/queue.c ****             /* Ensure the event queues start in the correct state. */
 306:../Dave/Generated/FREERTOS/queue.c ****             vListInitialise( &( pxQueue->xTasksWaitingToSend ) );
 144              	 .loc 1 306 0
 145 00a8 FB68     	 ldr r3,[r7,#12]
 146 00aa 1033     	 adds r3,r3,#16
 147 00ac 1846     	 mov r0,r3
 148 00ae FFF7FEFF 	 bl vListInitialise
 307:../Dave/Generated/FREERTOS/queue.c ****             vListInitialise( &( pxQueue->xTasksWaitingToReceive ) );
 149              	 .loc 1 307 0
 150 00b2 FB68     	 ldr r3,[r7,#12]
 151 00b4 2433     	 adds r3,r3,#36
 152 00b6 1846     	 mov r0,r3
 153 00b8 FFF7FEFF 	 bl vListInitialise
 154              	.L5:
 308:../Dave/Generated/FREERTOS/queue.c ****         }
 309:../Dave/Generated/FREERTOS/queue.c ****     }
 310:../Dave/Generated/FREERTOS/queue.c ****     taskEXIT_CRITICAL();
 155              	 .loc 1 310 0
 156 00bc FFF7FEFF 	 bl vPortExitCritical
 311:../Dave/Generated/FREERTOS/queue.c **** 
 312:../Dave/Generated/FREERTOS/queue.c ****     /* A value is returned for calling semantic consistency with previous
 313:../Dave/Generated/FREERTOS/queue.c ****      * versions. */
 314:../Dave/Generated/FREERTOS/queue.c ****     return pdPASS;
 157              	 .loc 1 314 0
 158 00c0 0123     	 movs r3,#1
 315:../Dave/Generated/FREERTOS/queue.c **** }
 159              	 .loc 1 315 0
 160 00c2 1846     	 mov r0,r3
 161 00c4 1037     	 adds r7,r7,#16
 162              	.LCFI3:
 163              	 .cfi_def_cfa_offset 8
 164 00c6 BD46     	 mov sp,r7
 165              	.LCFI4:
 166              	 .cfi_def_cfa_register 13
 167              	 
 168 00c8 80BD     	 pop {r7,pc}
 169              	.L8:
 170 00ca 00BF     	 .align 2
 171              	.L7:
 172 00cc 04ED00E0 	 .word -536810236
 173              	 .cfi_endproc
 174              	.LFE137:
 176              	 .section .text.xQueueGenericCreateStatic,"ax",%progbits
 177              	 .align 2
 178              	 .global xQueueGenericCreateStatic
 179              	 .thumb
 180              	 .thumb_func
 182              	xQueueGenericCreateStatic:
 183              	.LFB138:
 316:../Dave/Generated/FREERTOS/queue.c **** /*-----------------------------------------------------------*/
 317:../Dave/Generated/FREERTOS/queue.c **** 
 318:../Dave/Generated/FREERTOS/queue.c **** #if ( configSUPPORT_STATIC_ALLOCATION == 1 )
 319:../Dave/Generated/FREERTOS/queue.c **** 
 320:../Dave/Generated/FREERTOS/queue.c ****     QueueHandle_t xQueueGenericCreateStatic( const UBaseType_t uxQueueLength,
 321:../Dave/Generated/FREERTOS/queue.c ****                                              const UBaseType_t uxItemSize,
 322:../Dave/Generated/FREERTOS/queue.c ****                                              uint8_t * pucQueueStorage,
 323:../Dave/Generated/FREERTOS/queue.c ****                                              StaticQueue_t * pxStaticQueue,
 324:../Dave/Generated/FREERTOS/queue.c ****                                              const uint8_t ucQueueType )
 325:../Dave/Generated/FREERTOS/queue.c ****     {
 184              	 .loc 1 325 0
 185              	 .cfi_startproc
 186              	 
 187              	 
 188 0000 90B5     	 push {r4,r7,lr}
 189              	.LCFI5:
 190              	 .cfi_def_cfa_offset 12
 191              	 .cfi_offset 4,-12
 192              	 .cfi_offset 7,-8
 193              	 .cfi_offset 14,-4
 194 0002 8FB0     	 sub sp,sp,#60
 195              	.LCFI6:
 196              	 .cfi_def_cfa_offset 72
 197 0004 02AF     	 add r7,sp,#8
 198              	.LCFI7:
 199              	 .cfi_def_cfa 7,64
 200 0006 F860     	 str r0,[r7,#12]
 201 0008 B960     	 str r1,[r7,#8]
 202 000a 7A60     	 str r2,[r7,#4]
 203 000c 3B60     	 str r3,[r7]
 326:../Dave/Generated/FREERTOS/queue.c ****         Queue_t * pxNewQueue;
 327:../Dave/Generated/FREERTOS/queue.c **** 
 328:../Dave/Generated/FREERTOS/queue.c ****         configASSERT( uxQueueLength > ( UBaseType_t ) 0 );
 204              	 .loc 1 328 0
 205 000e FB68     	 ldr r3,[r7,#12]
 206 0010 002B     	 cmp r3,#0
 207 0012 09D1     	 bne .L10
 208              	.LBB138:
 209              	.LBB139:
 210              	 .loc 2 197 0 discriminator 1
 211              	
 212 0014 4FF0FC03 	 mov r3,#252
 213 0018 83F31188 	 msr basepri,r3
 214 001c BFF36F8F 	 isb 
 215 0020 BFF34F8F 	 dsb 
 216              	
 217              	
 218              	 .thumb
 219 0024 BB62     	 str r3,[r7,#40]
 220              	.L11:
 221              	.LBE139:
 222              	.LBE138:
 223              	 .loc 1 328 0 discriminator 1
 224 0026 FEE7     	 b .L11
 225              	.L10:
 329:../Dave/Generated/FREERTOS/queue.c **** 
 330:../Dave/Generated/FREERTOS/queue.c ****         /* The StaticQueue_t structure and the queue storage area must be
 331:../Dave/Generated/FREERTOS/queue.c ****          * supplied. */
 332:../Dave/Generated/FREERTOS/queue.c ****         configASSERT( pxStaticQueue != NULL );
 226              	 .loc 1 332 0
 227 0028 3B68     	 ldr r3,[r7]
 228 002a 002B     	 cmp r3,#0
 229 002c 09D1     	 bne .L12
 230              	.LBB140:
 231              	.LBB141:
 232              	 .loc 2 197 0 discriminator 1
 233              	
 234 002e 4FF0FC03 	 mov r3,#252
 235 0032 83F31188 	 msr basepri,r3
 236 0036 BFF36F8F 	 isb 
 237 003a BFF34F8F 	 dsb 
 238              	
 239              	
 240              	 .thumb
 241 003e 7B62     	 str r3,[r7,#36]
 242              	.L13:
 243              	.LBE141:
 244              	.LBE140:
 245              	 .loc 1 332 0 discriminator 2
 246 0040 FEE7     	 b .L13
 247              	.L12:
 333:../Dave/Generated/FREERTOS/queue.c **** 
 334:../Dave/Generated/FREERTOS/queue.c ****         /* A queue storage area should be provided if the item size is not 0, and
 335:../Dave/Generated/FREERTOS/queue.c ****          * should not be provided if the item size is 0. */
 336:../Dave/Generated/FREERTOS/queue.c ****         configASSERT( !( ( pucQueueStorage != NULL ) && ( uxItemSize == 0 ) ) );
 248              	 .loc 1 336 0
 249 0042 7B68     	 ldr r3,[r7,#4]
 250 0044 002B     	 cmp r3,#0
 251 0046 02D0     	 beq .L14
 252              	 .loc 1 336 0 is_stmt 0 discriminator 2
 253 0048 BB68     	 ldr r3,[r7,#8]
 254 004a 002B     	 cmp r3,#0
 255 004c 01D0     	 beq .L15
 256              	.L14:
 257              	 .loc 1 336 0 discriminator 3
 258 004e 0123     	 movs r3,#1
 259 0050 00E0     	 b .L16
 260              	.L15:
 261              	 .loc 1 336 0 discriminator 4
 262 0052 0023     	 movs r3,#0
 263              	.L16:
 264              	 .loc 1 336 0 discriminator 6
 265 0054 002B     	 cmp r3,#0
 266 0056 09D1     	 bne .L17
 267              	.LBB142:
 268              	.LBB143:
 269              	 .loc 2 197 0 is_stmt 1 discriminator 7
 270              	
 271 0058 4FF0FC03 	 mov r3,#252
 272 005c 83F31188 	 msr basepri,r3
 273 0060 BFF36F8F 	 isb 
 274 0064 BFF34F8F 	 dsb 
 275              	
 276              	
 277              	 .thumb
 278 0068 3B62     	 str r3,[r7,#32]
 279              	.L18:
 280              	.LBE143:
 281              	.LBE142:
 282              	 .loc 1 336 0 discriminator 3
 283 006a FEE7     	 b .L18
 284              	.L17:
 337:../Dave/Generated/FREERTOS/queue.c ****         configASSERT( !( ( pucQueueStorage == NULL ) && ( uxItemSize != 0 ) ) );
 285              	 .loc 1 337 0
 286 006c 7B68     	 ldr r3,[r7,#4]
 287 006e 002B     	 cmp r3,#0
 288 0070 02D1     	 bne .L19
 289              	 .loc 1 337 0 is_stmt 0 discriminator 2
 290 0072 BB68     	 ldr r3,[r7,#8]
 291 0074 002B     	 cmp r3,#0
 292 0076 01D1     	 bne .L20
 293              	.L19:
 294              	 .loc 1 337 0 discriminator 3
 295 0078 0123     	 movs r3,#1
 296 007a 00E0     	 b .L21
 297              	.L20:
 298              	 .loc 1 337 0 discriminator 4
 299 007c 0023     	 movs r3,#0
 300              	.L21:
 301              	 .loc 1 337 0 discriminator 6
 302 007e 002B     	 cmp r3,#0
 303 0080 09D1     	 bne .L22
 304              	.LBB144:
 305              	.LBB145:
 306              	 .loc 2 197 0 is_stmt 1 discriminator 7
 307              	
 308 0082 4FF0FC03 	 mov r3,#252
 309 0086 83F31188 	 msr basepri,r3
 310 008a BFF36F8F 	 isb 
 311 008e BFF34F8F 	 dsb 
 312              	
 313              	
 314              	 .thumb
 315 0092 FB61     	 str r3,[r7,#28]
 316              	.L23:
 317              	.LBE145:
 318              	.LBE144:
 319              	 .loc 1 337 0 discriminator 4
 320 0094 FEE7     	 b .L23
 321              	.L22:
 322              	.LBB146:
 338:../Dave/Generated/FREERTOS/queue.c **** 
 339:../Dave/Generated/FREERTOS/queue.c ****         #if ( configASSERT_DEFINED == 1 )
 340:../Dave/Generated/FREERTOS/queue.c ****             {
 341:../Dave/Generated/FREERTOS/queue.c ****                 /* Sanity check that the size of the structure used to declare a
 342:../Dave/Generated/FREERTOS/queue.c ****                  * variable of type StaticQueue_t or StaticSemaphore_t equals the size of
 343:../Dave/Generated/FREERTOS/queue.c ****                  * the real queue and semaphore structures. */
 344:../Dave/Generated/FREERTOS/queue.c ****                 volatile size_t xSize = sizeof( StaticQueue_t );
 323              	 .loc 1 344 0
 324 0096 5423     	 movs r3,#84
 325 0098 7B61     	 str r3,[r7,#20]
 345:../Dave/Generated/FREERTOS/queue.c ****                 configASSERT( xSize == sizeof( Queue_t ) );
 326              	 .loc 1 345 0
 327 009a 7B69     	 ldr r3,[r7,#20]
 328 009c 542B     	 cmp r3,#84
 329 009e 09D0     	 beq .L24
 330              	.LBB147:
 331              	.LBB148:
 332              	 .loc 2 197 0 discriminator 1
 333              	
 334 00a0 4FF0FC03 	 mov r3,#252
 335 00a4 83F31188 	 msr basepri,r3
 336 00a8 BFF36F8F 	 isb 
 337 00ac BFF34F8F 	 dsb 
 338              	
 339              	
 340              	 .thumb
 341 00b0 BB61     	 str r3,[r7,#24]
 342              	.L25:
 343              	.LBE148:
 344              	.LBE147:
 345              	 .loc 1 345 0 discriminator 5
 346 00b2 FEE7     	 b .L25
 347              	.L24:
 346:../Dave/Generated/FREERTOS/queue.c ****                 ( void ) xSize; /* Keeps lint quiet when configASSERT() is not defined. */
 348              	 .loc 1 346 0
 349 00b4 7B69     	 ldr r3,[r7,#20]
 350              	.LBE146:
 347:../Dave/Generated/FREERTOS/queue.c ****             }
 348:../Dave/Generated/FREERTOS/queue.c ****         #endif /* configASSERT_DEFINED */
 349:../Dave/Generated/FREERTOS/queue.c **** 
 350:../Dave/Generated/FREERTOS/queue.c ****         /* The address of a statically allocated queue was passed in, use it.
 351:../Dave/Generated/FREERTOS/queue.c ****          * The address of a statically allocated storage area was also passed in
 352:../Dave/Generated/FREERTOS/queue.c ****          * but is already set. */
 353:../Dave/Generated/FREERTOS/queue.c ****         pxNewQueue = ( Queue_t * ) pxStaticQueue; /*lint !e740 !e9087 Unusual cast is ok as the str
 351              	 .loc 1 353 0
 352 00b6 3B68     	 ldr r3,[r7]
 353 00b8 FB62     	 str r3,[r7,#44]
 354:../Dave/Generated/FREERTOS/queue.c **** 
 355:../Dave/Generated/FREERTOS/queue.c ****         if( pxNewQueue != NULL )
 354              	 .loc 1 355 0
 355 00ba FB6A     	 ldr r3,[r7,#44]
 356 00bc 002B     	 cmp r3,#0
 357 00be 0DD0     	 beq .L26
 356:../Dave/Generated/FREERTOS/queue.c ****         {
 357:../Dave/Generated/FREERTOS/queue.c ****             #if ( configSUPPORT_DYNAMIC_ALLOCATION == 1 )
 358:../Dave/Generated/FREERTOS/queue.c ****                 {
 359:../Dave/Generated/FREERTOS/queue.c ****                     /* Queues can be allocated wither statically or dynamically, so
 360:../Dave/Generated/FREERTOS/queue.c ****                      * note this queue was allocated statically in case the queue is
 361:../Dave/Generated/FREERTOS/queue.c ****                      * later deleted. */
 362:../Dave/Generated/FREERTOS/queue.c ****                     pxNewQueue->ucStaticallyAllocated = pdTRUE;
 358              	 .loc 1 362 0
 359 00c0 FB6A     	 ldr r3,[r7,#44]
 360 00c2 0122     	 movs r2,#1
 361 00c4 83F84620 	 strb r2,[r3,#70]
 363:../Dave/Generated/FREERTOS/queue.c ****                 }
 364:../Dave/Generated/FREERTOS/queue.c ****             #endif /* configSUPPORT_DYNAMIC_ALLOCATION */
 365:../Dave/Generated/FREERTOS/queue.c **** 
 366:../Dave/Generated/FREERTOS/queue.c ****             prvInitialiseNewQueue( uxQueueLength, uxItemSize, pucQueueStorage, ucQueueType, pxNewQu
 362              	 .loc 1 366 0
 363 00c8 97F84040 	 ldrb r4,[r7,#64]
 364 00cc FB6A     	 ldr r3,[r7,#44]
 365 00ce 0093     	 str r3,[sp]
 366 00d0 F868     	 ldr r0,[r7,#12]
 367 00d2 B968     	 ldr r1,[r7,#8]
 368 00d4 7A68     	 ldr r2,[r7,#4]
 369 00d6 2346     	 mov r3,r4
 370 00d8 FFF7FEFF 	 bl prvInitialiseNewQueue
 371              	.L26:
 367:../Dave/Generated/FREERTOS/queue.c ****         }
 368:../Dave/Generated/FREERTOS/queue.c ****         else
 369:../Dave/Generated/FREERTOS/queue.c ****         {
 370:../Dave/Generated/FREERTOS/queue.c ****             traceQUEUE_CREATE_FAILED( ucQueueType );
 371:../Dave/Generated/FREERTOS/queue.c ****             mtCOVERAGE_TEST_MARKER();
 372:../Dave/Generated/FREERTOS/queue.c ****         }
 373:../Dave/Generated/FREERTOS/queue.c **** 
 374:../Dave/Generated/FREERTOS/queue.c ****         return pxNewQueue;
 372              	 .loc 1 374 0
 373 00dc FB6A     	 ldr r3,[r7,#44]
 375:../Dave/Generated/FREERTOS/queue.c ****     }
 374              	 .loc 1 375 0
 375 00de 1846     	 mov r0,r3
 376 00e0 3437     	 adds r7,r7,#52
 377              	.LCFI8:
 378              	 .cfi_def_cfa_offset 12
 379 00e2 BD46     	 mov sp,r7
 380              	.LCFI9:
 381              	 .cfi_def_cfa_register 13
 382              	 
 383 00e4 90BD     	 pop {r4,r7,pc}
 384              	 .cfi_endproc
 385              	.LFE138:
 387 00e6 00BF     	 .section .text.xQueueGenericCreate,"ax",%progbits
 388              	 .align 2
 389              	 .global xQueueGenericCreate
 390              	 .thumb
 391              	 .thumb_func
 393              	xQueueGenericCreate:
 394              	.LFB139:
 376:../Dave/Generated/FREERTOS/queue.c **** 
 377:../Dave/Generated/FREERTOS/queue.c **** #endif /* configSUPPORT_STATIC_ALLOCATION */
 378:../Dave/Generated/FREERTOS/queue.c **** /*-----------------------------------------------------------*/
 379:../Dave/Generated/FREERTOS/queue.c **** 
 380:../Dave/Generated/FREERTOS/queue.c **** #if ( configSUPPORT_DYNAMIC_ALLOCATION == 1 )
 381:../Dave/Generated/FREERTOS/queue.c **** 
 382:../Dave/Generated/FREERTOS/queue.c ****     QueueHandle_t xQueueGenericCreate( const UBaseType_t uxQueueLength,
 383:../Dave/Generated/FREERTOS/queue.c ****                                        const UBaseType_t uxItemSize,
 384:../Dave/Generated/FREERTOS/queue.c ****                                        const uint8_t ucQueueType )
 385:../Dave/Generated/FREERTOS/queue.c ****     {
 395              	 .loc 1 385 0
 396              	 .cfi_startproc
 397              	 
 398              	 
 399 0000 90B5     	 push {r4,r7,lr}
 400              	.LCFI10:
 401              	 .cfi_def_cfa_offset 12
 402              	 .cfi_offset 4,-12
 403              	 .cfi_offset 7,-8
 404              	 .cfi_offset 14,-4
 405 0002 8DB0     	 sub sp,sp,#52
 406              	.LCFI11:
 407              	 .cfi_def_cfa_offset 64
 408 0004 02AF     	 add r7,sp,#8
 409              	.LCFI12:
 410              	 .cfi_def_cfa 7,56
 411 0006 F860     	 str r0,[r7,#12]
 412 0008 B960     	 str r1,[r7,#8]
 413 000a 1346     	 mov r3,r2
 414 000c FB71     	 strb r3,[r7,#7]
 386:../Dave/Generated/FREERTOS/queue.c ****         Queue_t * pxNewQueue;
 387:../Dave/Generated/FREERTOS/queue.c ****         size_t xQueueSizeInBytes;
 388:../Dave/Generated/FREERTOS/queue.c ****         uint8_t * pucQueueStorage;
 389:../Dave/Generated/FREERTOS/queue.c **** 
 390:../Dave/Generated/FREERTOS/queue.c ****         configASSERT( uxQueueLength > ( UBaseType_t ) 0 );
 415              	 .loc 1 390 0
 416 000e FB68     	 ldr r3,[r7,#12]
 417 0010 002B     	 cmp r3,#0
 418 0012 09D1     	 bne .L29
 419              	.LBB149:
 420              	.LBB150:
 421              	 .loc 2 197 0 discriminator 1
 422              	
 423 0014 4FF0FC03 	 mov r3,#252
 424 0018 83F31188 	 msr basepri,r3
 425 001c BFF36F8F 	 isb 
 426 0020 BFF34F8F 	 dsb 
 427              	
 428              	
 429              	 .thumb
 430 0024 BB61     	 str r3,[r7,#24]
 431              	.L30:
 432              	.LBE150:
 433              	.LBE149:
 434              	 .loc 1 390 0 discriminator 1
 435 0026 FEE7     	 b .L30
 436              	.L29:
 391:../Dave/Generated/FREERTOS/queue.c **** 
 392:../Dave/Generated/FREERTOS/queue.c ****         /* Allocate enough space to hold the maximum number of items that
 393:../Dave/Generated/FREERTOS/queue.c ****          * can be in the queue at any time.  It is valid for uxItemSize to be
 394:../Dave/Generated/FREERTOS/queue.c ****          * zero in the case the queue is used as a semaphore. */
 395:../Dave/Generated/FREERTOS/queue.c ****         xQueueSizeInBytes = ( size_t ) ( uxQueueLength * uxItemSize ); /*lint !e961 MISRA exception
 437              	 .loc 1 395 0
 438 0028 FB68     	 ldr r3,[r7,#12]
 439 002a BA68     	 ldr r2,[r7,#8]
 440 002c 02FB03F3 	 mul r3,r2,r3
 441 0030 7B62     	 str r3,[r7,#36]
 396:../Dave/Generated/FREERTOS/queue.c **** 
 397:../Dave/Generated/FREERTOS/queue.c ****         /* Check for multiplication overflow. */
 398:../Dave/Generated/FREERTOS/queue.c ****         configASSERT( ( uxItemSize == 0 ) || ( uxQueueLength == ( xQueueSizeInBytes / uxItemSize ) 
 442              	 .loc 1 398 0
 443 0032 BB68     	 ldr r3,[r7,#8]
 444 0034 002B     	 cmp r3,#0
 445 0036 06D0     	 beq .L31
 446              	 .loc 1 398 0 is_stmt 0 discriminator 2
 447 0038 7A6A     	 ldr r2,[r7,#36]
 448 003a BB68     	 ldr r3,[r7,#8]
 449 003c B2FBF3F2 	 udiv r2,r2,r3
 450 0040 FB68     	 ldr r3,[r7,#12]
 451 0042 9A42     	 cmp r2,r3
 452 0044 01D1     	 bne .L32
 453              	.L31:
 454              	 .loc 1 398 0 discriminator 3
 455 0046 0123     	 movs r3,#1
 456 0048 00E0     	 b .L33
 457              	.L32:
 458              	 .loc 1 398 0 discriminator 4
 459 004a 0023     	 movs r3,#0
 460              	.L33:
 461              	 .loc 1 398 0 discriminator 6
 462 004c 002B     	 cmp r3,#0
 463 004e 09D1     	 bne .L34
 464              	.LBB151:
 465              	.LBB152:
 466              	 .loc 2 197 0 is_stmt 1 discriminator 7
 467              	
 468 0050 4FF0FC03 	 mov r3,#252
 469 0054 83F31188 	 msr basepri,r3
 470 0058 BFF36F8F 	 isb 
 471 005c BFF34F8F 	 dsb 
 472              	
 473              	
 474              	 .thumb
 475 0060 7B61     	 str r3,[r7,#20]
 476              	.L35:
 477              	.LBE152:
 478              	.LBE151:
 479              	 .loc 1 398 0 discriminator 2
 480 0062 FEE7     	 b .L35
 481              	.L34:
 399:../Dave/Generated/FREERTOS/queue.c **** 
 400:../Dave/Generated/FREERTOS/queue.c ****         /* Check for addition overflow. */
 401:../Dave/Generated/FREERTOS/queue.c ****         configASSERT( ( sizeof( Queue_t ) + xQueueSizeInBytes ) >  xQueueSizeInBytes );
 482              	 .loc 1 401 0
 483 0064 7B6A     	 ldr r3,[r7,#36]
 484 0066 03F15402 	 add r2,r3,#84
 485 006a 7B6A     	 ldr r3,[r7,#36]
 486 006c 9A42     	 cmp r2,r3
 487 006e 09D8     	 bhi .L36
 488              	.LBB153:
 489              	.LBB154:
 490              	 .loc 2 197 0 discriminator 1
 491              	
 492 0070 4FF0FC03 	 mov r3,#252
 493 0074 83F31188 	 msr basepri,r3
 494 0078 BFF36F8F 	 isb 
 495 007c BFF34F8F 	 dsb 
 496              	
 497              	
 498              	 .thumb
 499 0080 3B61     	 str r3,[r7,#16]
 500              	.L37:
 501              	.LBE154:
 502              	.LBE153:
 503              	 .loc 1 401 0 discriminator 3
 504 0082 FEE7     	 b .L37
 505              	.L36:
 402:../Dave/Generated/FREERTOS/queue.c **** 
 403:../Dave/Generated/FREERTOS/queue.c ****         /* Allocate the queue and storage area.  Justification for MISRA
 404:../Dave/Generated/FREERTOS/queue.c ****          * deviation as follows:  pvPortMalloc() always ensures returned memory
 405:../Dave/Generated/FREERTOS/queue.c ****          * blocks are aligned per the requirements of the MCU stack.  In this case
 406:../Dave/Generated/FREERTOS/queue.c ****          * pvPortMalloc() must return a pointer that is guaranteed to meet the
 407:../Dave/Generated/FREERTOS/queue.c ****          * alignment requirements of the Queue_t structure - which in this case
 408:../Dave/Generated/FREERTOS/queue.c ****          * is an int8_t *.  Therefore, whenever the stack alignment requirements
 409:../Dave/Generated/FREERTOS/queue.c ****          * are greater than or equal to the pointer to char requirements the cast
 410:../Dave/Generated/FREERTOS/queue.c ****          * is safe.  In other cases alignment requirements are not strict (one or
 411:../Dave/Generated/FREERTOS/queue.c ****          * two bytes). */
 412:../Dave/Generated/FREERTOS/queue.c ****         pxNewQueue = ( Queue_t * ) pvPortMalloc( sizeof( Queue_t ) + xQueueSizeInBytes ); /*lint !e
 506              	 .loc 1 412 0
 507 0084 7B6A     	 ldr r3,[r7,#36]
 508 0086 5433     	 adds r3,r3,#84
 509 0088 1846     	 mov r0,r3
 510 008a FFF7FEFF 	 bl pvPortMalloc
 511 008e 3862     	 str r0,[r7,#32]
 413:../Dave/Generated/FREERTOS/queue.c **** 
 414:../Dave/Generated/FREERTOS/queue.c ****         if( pxNewQueue != NULL )
 512              	 .loc 1 414 0
 513 0090 3B6A     	 ldr r3,[r7,#32]
 514 0092 002B     	 cmp r3,#0
 515 0094 11D0     	 beq .L38
 415:../Dave/Generated/FREERTOS/queue.c ****         {
 416:../Dave/Generated/FREERTOS/queue.c ****             /* Jump past the queue structure to find the location of the queue
 417:../Dave/Generated/FREERTOS/queue.c ****              * storage area. */
 418:../Dave/Generated/FREERTOS/queue.c ****             pucQueueStorage = ( uint8_t * ) pxNewQueue;
 516              	 .loc 1 418 0
 517 0096 3B6A     	 ldr r3,[r7,#32]
 518 0098 FB61     	 str r3,[r7,#28]
 419:../Dave/Generated/FREERTOS/queue.c ****             pucQueueStorage += sizeof( Queue_t ); /*lint !e9016 Pointer arithmetic allowed on char 
 519              	 .loc 1 419 0
 520 009a FB69     	 ldr r3,[r7,#28]
 521 009c 5433     	 adds r3,r3,#84
 522 009e FB61     	 str r3,[r7,#28]
 420:../Dave/Generated/FREERTOS/queue.c **** 
 421:../Dave/Generated/FREERTOS/queue.c ****             #if ( configSUPPORT_STATIC_ALLOCATION == 1 )
 422:../Dave/Generated/FREERTOS/queue.c ****                 {
 423:../Dave/Generated/FREERTOS/queue.c ****                     /* Queues can be created either statically or dynamically, so
 424:../Dave/Generated/FREERTOS/queue.c ****                      * note this task was created dynamically in case it is later
 425:../Dave/Generated/FREERTOS/queue.c ****                      * deleted. */
 426:../Dave/Generated/FREERTOS/queue.c ****                     pxNewQueue->ucStaticallyAllocated = pdFALSE;
 523              	 .loc 1 426 0
 524 00a0 3B6A     	 ldr r3,[r7,#32]
 525 00a2 0022     	 movs r2,#0
 526 00a4 83F84620 	 strb r2,[r3,#70]
 427:../Dave/Generated/FREERTOS/queue.c ****                 }
 428:../Dave/Generated/FREERTOS/queue.c ****             #endif /* configSUPPORT_STATIC_ALLOCATION */
 429:../Dave/Generated/FREERTOS/queue.c **** 
 430:../Dave/Generated/FREERTOS/queue.c ****             prvInitialiseNewQueue( uxQueueLength, uxItemSize, pucQueueStorage, ucQueueType, pxNewQu
 527              	 .loc 1 430 0
 528 00a8 FC79     	 ldrb r4,[r7,#7]
 529 00aa 3B6A     	 ldr r3,[r7,#32]
 530 00ac 0093     	 str r3,[sp]
 531 00ae F868     	 ldr r0,[r7,#12]
 532 00b0 B968     	 ldr r1,[r7,#8]
 533 00b2 FA69     	 ldr r2,[r7,#28]
 534 00b4 2346     	 mov r3,r4
 535 00b6 FFF7FEFF 	 bl prvInitialiseNewQueue
 536              	.L38:
 431:../Dave/Generated/FREERTOS/queue.c ****         }
 432:../Dave/Generated/FREERTOS/queue.c ****         else
 433:../Dave/Generated/FREERTOS/queue.c ****         {
 434:../Dave/Generated/FREERTOS/queue.c ****             traceQUEUE_CREATE_FAILED( ucQueueType );
 435:../Dave/Generated/FREERTOS/queue.c ****             mtCOVERAGE_TEST_MARKER();
 436:../Dave/Generated/FREERTOS/queue.c ****         }
 437:../Dave/Generated/FREERTOS/queue.c **** 
 438:../Dave/Generated/FREERTOS/queue.c ****         return pxNewQueue;
 537              	 .loc 1 438 0
 538 00ba 3B6A     	 ldr r3,[r7,#32]
 439:../Dave/Generated/FREERTOS/queue.c ****     }
 539              	 .loc 1 439 0
 540 00bc 1846     	 mov r0,r3
 541 00be 2C37     	 adds r7,r7,#44
 542              	.LCFI13:
 543              	 .cfi_def_cfa_offset 12
 544 00c0 BD46     	 mov sp,r7
 545              	.LCFI14:
 546              	 .cfi_def_cfa_register 13
 547              	 
 548 00c2 90BD     	 pop {r4,r7,pc}
 549              	 .cfi_endproc
 550              	.LFE139:
 552              	 .section .text.prvInitialiseNewQueue,"ax",%progbits
 553              	 .align 2
 554              	 .thumb
 555              	 .thumb_func
 557              	prvInitialiseNewQueue:
 558              	.LFB140:
 440:../Dave/Generated/FREERTOS/queue.c **** 
 441:../Dave/Generated/FREERTOS/queue.c **** #endif /* configSUPPORT_STATIC_ALLOCATION */
 442:../Dave/Generated/FREERTOS/queue.c **** /*-----------------------------------------------------------*/
 443:../Dave/Generated/FREERTOS/queue.c **** 
 444:../Dave/Generated/FREERTOS/queue.c **** static void prvInitialiseNewQueue( const UBaseType_t uxQueueLength,
 445:../Dave/Generated/FREERTOS/queue.c ****                                    const UBaseType_t uxItemSize,
 446:../Dave/Generated/FREERTOS/queue.c ****                                    uint8_t * pucQueueStorage,
 447:../Dave/Generated/FREERTOS/queue.c ****                                    const uint8_t ucQueueType,
 448:../Dave/Generated/FREERTOS/queue.c ****                                    Queue_t * pxNewQueue )
 449:../Dave/Generated/FREERTOS/queue.c **** {
 559              	 .loc 1 449 0
 560              	 .cfi_startproc
 561              	 
 562              	 
 563 0000 80B5     	 push {r7,lr}
 564              	.LCFI15:
 565              	 .cfi_def_cfa_offset 8
 566              	 .cfi_offset 7,-8
 567              	 .cfi_offset 14,-4
 568 0002 84B0     	 sub sp,sp,#16
 569              	.LCFI16:
 570              	 .cfi_def_cfa_offset 24
 571 0004 00AF     	 add r7,sp,#0
 572              	.LCFI17:
 573              	 .cfi_def_cfa_register 7
 574 0006 F860     	 str r0,[r7,#12]
 575 0008 B960     	 str r1,[r7,#8]
 576 000a 7A60     	 str r2,[r7,#4]
 577 000c FB70     	 strb r3,[r7,#3]
 450:../Dave/Generated/FREERTOS/queue.c ****     /* Remove compiler warnings about unused parameters should
 451:../Dave/Generated/FREERTOS/queue.c ****      * configUSE_TRACE_FACILITY not be set to 1. */
 452:../Dave/Generated/FREERTOS/queue.c ****     ( void ) ucQueueType;
 453:../Dave/Generated/FREERTOS/queue.c **** 
 454:../Dave/Generated/FREERTOS/queue.c ****     if( uxItemSize == ( UBaseType_t ) 0 )
 578              	 .loc 1 454 0
 579 000e BB68     	 ldr r3,[r7,#8]
 580 0010 002B     	 cmp r3,#0
 581 0012 03D1     	 bne .L41
 455:../Dave/Generated/FREERTOS/queue.c ****     {
 456:../Dave/Generated/FREERTOS/queue.c ****         /* No RAM was allocated for the queue storage area, but PC head cannot
 457:../Dave/Generated/FREERTOS/queue.c ****          * be set to NULL because NULL is used as a key to say the queue is used as
 458:../Dave/Generated/FREERTOS/queue.c ****          * a mutex.  Therefore just set pcHead to point to the queue as a benign
 459:../Dave/Generated/FREERTOS/queue.c ****          * value that is known to be within the memory map. */
 460:../Dave/Generated/FREERTOS/queue.c ****         pxNewQueue->pcHead = ( int8_t * ) pxNewQueue;
 582              	 .loc 1 460 0
 583 0014 BB69     	 ldr r3,[r7,#24]
 584 0016 BA69     	 ldr r2,[r7,#24]
 585 0018 1A60     	 str r2,[r3]
 586 001a 02E0     	 b .L42
 587              	.L41:
 461:../Dave/Generated/FREERTOS/queue.c ****     }
 462:../Dave/Generated/FREERTOS/queue.c ****     else
 463:../Dave/Generated/FREERTOS/queue.c ****     {
 464:../Dave/Generated/FREERTOS/queue.c ****         /* Set the head to the start of the queue storage area. */
 465:../Dave/Generated/FREERTOS/queue.c ****         pxNewQueue->pcHead = ( int8_t * ) pucQueueStorage;
 588              	 .loc 1 465 0
 589 001c BB69     	 ldr r3,[r7,#24]
 590 001e 7A68     	 ldr r2,[r7,#4]
 591 0020 1A60     	 str r2,[r3]
 592              	.L42:
 466:../Dave/Generated/FREERTOS/queue.c ****     }
 467:../Dave/Generated/FREERTOS/queue.c **** 
 468:../Dave/Generated/FREERTOS/queue.c ****     /* Initialise the queue members as described where the queue type is
 469:../Dave/Generated/FREERTOS/queue.c ****      * defined. */
 470:../Dave/Generated/FREERTOS/queue.c ****     pxNewQueue->uxLength = uxQueueLength;
 593              	 .loc 1 470 0
 594 0022 BB69     	 ldr r3,[r7,#24]
 595 0024 FA68     	 ldr r2,[r7,#12]
 596 0026 DA63     	 str r2,[r3,#60]
 471:../Dave/Generated/FREERTOS/queue.c ****     pxNewQueue->uxItemSize = uxItemSize;
 597              	 .loc 1 471 0
 598 0028 BB69     	 ldr r3,[r7,#24]
 599 002a BA68     	 ldr r2,[r7,#8]
 600 002c 1A64     	 str r2,[r3,#64]
 472:../Dave/Generated/FREERTOS/queue.c ****     ( void ) xQueueGenericReset( pxNewQueue, pdTRUE );
 601              	 .loc 1 472 0
 602 002e B869     	 ldr r0,[r7,#24]
 603 0030 0121     	 movs r1,#1
 604 0032 FFF7FEFF 	 bl xQueueGenericReset
 473:../Dave/Generated/FREERTOS/queue.c **** 
 474:../Dave/Generated/FREERTOS/queue.c ****     #if ( configUSE_TRACE_FACILITY == 1 )
 475:../Dave/Generated/FREERTOS/queue.c ****         {
 476:../Dave/Generated/FREERTOS/queue.c ****             pxNewQueue->ucQueueType = ucQueueType;
 605              	 .loc 1 476 0
 606 0036 BB69     	 ldr r3,[r7,#24]
 607 0038 FA78     	 ldrb r2,[r7,#3]
 608 003a 83F85020 	 strb r2,[r3,#80]
 477:../Dave/Generated/FREERTOS/queue.c ****         }
 478:../Dave/Generated/FREERTOS/queue.c ****     #endif /* configUSE_TRACE_FACILITY */
 479:../Dave/Generated/FREERTOS/queue.c **** 
 480:../Dave/Generated/FREERTOS/queue.c ****     #if ( configUSE_QUEUE_SETS == 1 )
 481:../Dave/Generated/FREERTOS/queue.c ****         {
 482:../Dave/Generated/FREERTOS/queue.c ****             pxNewQueue->pxQueueSetContainer = NULL;
 609              	 .loc 1 482 0
 610 003e BB69     	 ldr r3,[r7,#24]
 611 0040 0022     	 movs r2,#0
 612 0042 9A64     	 str r2,[r3,#72]
 483:../Dave/Generated/FREERTOS/queue.c ****         }
 484:../Dave/Generated/FREERTOS/queue.c ****     #endif /* configUSE_QUEUE_SETS */
 485:../Dave/Generated/FREERTOS/queue.c **** 
 486:../Dave/Generated/FREERTOS/queue.c ****     traceQUEUE_CREATE( pxNewQueue );
 487:../Dave/Generated/FREERTOS/queue.c **** }
 613              	 .loc 1 487 0
 614 0044 1037     	 adds r7,r7,#16
 615              	.LCFI18:
 616              	 .cfi_def_cfa_offset 8
 617 0046 BD46     	 mov sp,r7
 618              	.LCFI19:
 619              	 .cfi_def_cfa_register 13
 620              	 
 621 0048 80BD     	 pop {r7,pc}
 622              	 .cfi_endproc
 623              	.LFE140:
 625 004a 00BF     	 .section .text.prvInitialiseMutex,"ax",%progbits
 626              	 .align 2
 627              	 .thumb
 628              	 .thumb_func
 630              	prvInitialiseMutex:
 631              	.LFB141:
 488:../Dave/Generated/FREERTOS/queue.c **** /*-----------------------------------------------------------*/
 489:../Dave/Generated/FREERTOS/queue.c **** 
 490:../Dave/Generated/FREERTOS/queue.c **** #if ( configUSE_MUTEXES == 1 )
 491:../Dave/Generated/FREERTOS/queue.c **** 
 492:../Dave/Generated/FREERTOS/queue.c ****     static void prvInitialiseMutex( Queue_t * pxNewQueue )
 493:../Dave/Generated/FREERTOS/queue.c ****     {
 632              	 .loc 1 493 0
 633              	 .cfi_startproc
 634              	 
 635              	 
 636 0000 80B5     	 push {r7,lr}
 637              	.LCFI20:
 638              	 .cfi_def_cfa_offset 8
 639              	 .cfi_offset 7,-8
 640              	 .cfi_offset 14,-4
 641 0002 82B0     	 sub sp,sp,#8
 642              	.LCFI21:
 643              	 .cfi_def_cfa_offset 16
 644 0004 00AF     	 add r7,sp,#0
 645              	.LCFI22:
 646              	 .cfi_def_cfa_register 7
 647 0006 7860     	 str r0,[r7,#4]
 494:../Dave/Generated/FREERTOS/queue.c ****         if( pxNewQueue != NULL )
 648              	 .loc 1 494 0
 649 0008 7B68     	 ldr r3,[r7,#4]
 650 000a 002B     	 cmp r3,#0
 651 000c 0ED0     	 beq .L43
 495:../Dave/Generated/FREERTOS/queue.c ****         {
 496:../Dave/Generated/FREERTOS/queue.c ****             /* The queue create function will set all the queue structure members
 497:../Dave/Generated/FREERTOS/queue.c ****             * correctly for a generic queue, but this function is creating a
 498:../Dave/Generated/FREERTOS/queue.c ****             * mutex.  Overwrite those members that need to be set differently -
 499:../Dave/Generated/FREERTOS/queue.c ****             * in particular the information required for priority inheritance. */
 500:../Dave/Generated/FREERTOS/queue.c ****             pxNewQueue->u.xSemaphore.xMutexHolder = NULL;
 652              	 .loc 1 500 0
 653 000e 7B68     	 ldr r3,[r7,#4]
 654 0010 0022     	 movs r2,#0
 655 0012 9A60     	 str r2,[r3,#8]
 501:../Dave/Generated/FREERTOS/queue.c ****             pxNewQueue->uxQueueType = queueQUEUE_IS_MUTEX;
 656              	 .loc 1 501 0
 657 0014 7B68     	 ldr r3,[r7,#4]
 658 0016 0022     	 movs r2,#0
 659 0018 1A60     	 str r2,[r3]
 502:../Dave/Generated/FREERTOS/queue.c **** 
 503:../Dave/Generated/FREERTOS/queue.c ****             /* In case this is a recursive mutex. */
 504:../Dave/Generated/FREERTOS/queue.c ****             pxNewQueue->u.xSemaphore.uxRecursiveCallCount = 0;
 660              	 .loc 1 504 0
 661 001a 7B68     	 ldr r3,[r7,#4]
 662 001c 0022     	 movs r2,#0
 663 001e DA60     	 str r2,[r3,#12]
 505:../Dave/Generated/FREERTOS/queue.c **** 
 506:../Dave/Generated/FREERTOS/queue.c ****             traceCREATE_MUTEX( pxNewQueue );
 507:../Dave/Generated/FREERTOS/queue.c **** 
 508:../Dave/Generated/FREERTOS/queue.c ****             /* Start with the semaphore in the expected state. */
 509:../Dave/Generated/FREERTOS/queue.c ****             ( void ) xQueueGenericSend( pxNewQueue, NULL, ( TickType_t ) 0U, queueSEND_TO_BACK );
 664              	 .loc 1 509 0
 665 0020 7868     	 ldr r0,[r7,#4]
 666 0022 0021     	 movs r1,#0
 667 0024 0022     	 movs r2,#0
 668 0026 0023     	 movs r3,#0
 669 0028 FFF7FEFF 	 bl xQueueGenericSend
 670              	.L43:
 510:../Dave/Generated/FREERTOS/queue.c ****         }
 511:../Dave/Generated/FREERTOS/queue.c ****         else
 512:../Dave/Generated/FREERTOS/queue.c ****         {
 513:../Dave/Generated/FREERTOS/queue.c ****             traceCREATE_MUTEX_FAILED();
 514:../Dave/Generated/FREERTOS/queue.c ****         }
 515:../Dave/Generated/FREERTOS/queue.c ****     }
 671              	 .loc 1 515 0
 672 002c 0837     	 adds r7,r7,#8
 673              	.LCFI23:
 674              	 .cfi_def_cfa_offset 8
 675 002e BD46     	 mov sp,r7
 676              	.LCFI24:
 677              	 .cfi_def_cfa_register 13
 678              	 
 679 0030 80BD     	 pop {r7,pc}
 680              	 .cfi_endproc
 681              	.LFE141:
 683 0032 00BF     	 .section .text.xQueueCreateMutex,"ax",%progbits
 684              	 .align 2
 685              	 .global xQueueCreateMutex
 686              	 .thumb
 687              	 .thumb_func
 689              	xQueueCreateMutex:
 690              	.LFB142:
 516:../Dave/Generated/FREERTOS/queue.c **** 
 517:../Dave/Generated/FREERTOS/queue.c **** #endif /* configUSE_MUTEXES */
 518:../Dave/Generated/FREERTOS/queue.c **** /*-----------------------------------------------------------*/
 519:../Dave/Generated/FREERTOS/queue.c **** 
 520:../Dave/Generated/FREERTOS/queue.c **** #if ( ( configUSE_MUTEXES == 1 ) && ( configSUPPORT_DYNAMIC_ALLOCATION == 1 ) )
 521:../Dave/Generated/FREERTOS/queue.c **** 
 522:../Dave/Generated/FREERTOS/queue.c ****     QueueHandle_t xQueueCreateMutex( const uint8_t ucQueueType )
 523:../Dave/Generated/FREERTOS/queue.c ****     {
 691              	 .loc 1 523 0
 692              	 .cfi_startproc
 693              	 
 694              	 
 695 0000 80B5     	 push {r7,lr}
 696              	.LCFI25:
 697              	 .cfi_def_cfa_offset 8
 698              	 .cfi_offset 7,-8
 699              	 .cfi_offset 14,-4
 700 0002 86B0     	 sub sp,sp,#24
 701              	.LCFI26:
 702              	 .cfi_def_cfa_offset 32
 703 0004 00AF     	 add r7,sp,#0
 704              	.LCFI27:
 705              	 .cfi_def_cfa_register 7
 706 0006 0346     	 mov r3,r0
 707 0008 FB71     	 strb r3,[r7,#7]
 524:../Dave/Generated/FREERTOS/queue.c ****         QueueHandle_t xNewQueue;
 525:../Dave/Generated/FREERTOS/queue.c ****         const UBaseType_t uxMutexLength = ( UBaseType_t ) 1, uxMutexSize = ( UBaseType_t ) 0;
 708              	 .loc 1 525 0
 709 000a 0123     	 movs r3,#1
 710 000c 7B61     	 str r3,[r7,#20]
 711 000e 0023     	 movs r3,#0
 712 0010 3B61     	 str r3,[r7,#16]
 526:../Dave/Generated/FREERTOS/queue.c **** 
 527:../Dave/Generated/FREERTOS/queue.c ****         xNewQueue = xQueueGenericCreate( uxMutexLength, uxMutexSize, ucQueueType );
 713              	 .loc 1 527 0
 714 0012 FB79     	 ldrb r3,[r7,#7]
 715 0014 7869     	 ldr r0,[r7,#20]
 716 0016 3969     	 ldr r1,[r7,#16]
 717 0018 1A46     	 mov r2,r3
 718 001a FFF7FEFF 	 bl xQueueGenericCreate
 719 001e F860     	 str r0,[r7,#12]
 528:../Dave/Generated/FREERTOS/queue.c ****         prvInitialiseMutex( ( Queue_t * ) xNewQueue );
 720              	 .loc 1 528 0
 721 0020 F868     	 ldr r0,[r7,#12]
 722 0022 FFF7FEFF 	 bl prvInitialiseMutex
 529:../Dave/Generated/FREERTOS/queue.c **** 
 530:../Dave/Generated/FREERTOS/queue.c ****         return xNewQueue;
 723              	 .loc 1 530 0
 724 0026 FB68     	 ldr r3,[r7,#12]
 531:../Dave/Generated/FREERTOS/queue.c ****     }
 725              	 .loc 1 531 0
 726 0028 1846     	 mov r0,r3
 727 002a 1837     	 adds r7,r7,#24
 728              	.LCFI28:
 729              	 .cfi_def_cfa_offset 8
 730 002c BD46     	 mov sp,r7
 731              	.LCFI29:
 732              	 .cfi_def_cfa_register 13
 733              	 
 734 002e 80BD     	 pop {r7,pc}
 735              	 .cfi_endproc
 736              	.LFE142:
 738              	 .section .text.xQueueCreateMutexStatic,"ax",%progbits
 739              	 .align 2
 740              	 .global xQueueCreateMutexStatic
 741              	 .thumb
 742              	 .thumb_func
 744              	xQueueCreateMutexStatic:
 745              	.LFB143:
 532:../Dave/Generated/FREERTOS/queue.c **** 
 533:../Dave/Generated/FREERTOS/queue.c **** #endif /* configUSE_MUTEXES */
 534:../Dave/Generated/FREERTOS/queue.c **** /*-----------------------------------------------------------*/
 535:../Dave/Generated/FREERTOS/queue.c **** 
 536:../Dave/Generated/FREERTOS/queue.c **** #if ( ( configUSE_MUTEXES == 1 ) && ( configSUPPORT_STATIC_ALLOCATION == 1 ) )
 537:../Dave/Generated/FREERTOS/queue.c **** 
 538:../Dave/Generated/FREERTOS/queue.c ****     QueueHandle_t xQueueCreateMutexStatic( const uint8_t ucQueueType,
 539:../Dave/Generated/FREERTOS/queue.c ****                                            StaticQueue_t * pxStaticQueue )
 540:../Dave/Generated/FREERTOS/queue.c ****     {
 746              	 .loc 1 540 0
 747              	 .cfi_startproc
 748              	 
 749              	 
 750 0000 80B5     	 push {r7,lr}
 751              	.LCFI30:
 752              	 .cfi_def_cfa_offset 8
 753              	 .cfi_offset 7,-8
 754              	 .cfi_offset 14,-4
 755 0002 88B0     	 sub sp,sp,#32
 756              	.LCFI31:
 757              	 .cfi_def_cfa_offset 40
 758 0004 02AF     	 add r7,sp,#8
 759              	.LCFI32:
 760              	 .cfi_def_cfa 7,32
 761 0006 0346     	 mov r3,r0
 762 0008 3960     	 str r1,[r7]
 763 000a FB71     	 strb r3,[r7,#7]
 541:../Dave/Generated/FREERTOS/queue.c ****         QueueHandle_t xNewQueue;
 542:../Dave/Generated/FREERTOS/queue.c ****         const UBaseType_t uxMutexLength = ( UBaseType_t ) 1, uxMutexSize = ( UBaseType_t ) 0;
 764              	 .loc 1 542 0
 765 000c 0123     	 movs r3,#1
 766 000e 7B61     	 str r3,[r7,#20]
 767 0010 0023     	 movs r3,#0
 768 0012 3B61     	 str r3,[r7,#16]
 543:../Dave/Generated/FREERTOS/queue.c **** 
 544:../Dave/Generated/FREERTOS/queue.c ****         /* Prevent compiler warnings about unused parameters if
 545:../Dave/Generated/FREERTOS/queue.c ****          * configUSE_TRACE_FACILITY does not equal 1. */
 546:../Dave/Generated/FREERTOS/queue.c ****         ( void ) ucQueueType;
 547:../Dave/Generated/FREERTOS/queue.c **** 
 548:../Dave/Generated/FREERTOS/queue.c ****         xNewQueue = xQueueGenericCreateStatic( uxMutexLength, uxMutexSize, NULL, pxStaticQueue, ucQ
 769              	 .loc 1 548 0
 770 0014 FB79     	 ldrb r3,[r7,#7]
 771 0016 0093     	 str r3,[sp]
 772 0018 7869     	 ldr r0,[r7,#20]
 773 001a 3969     	 ldr r1,[r7,#16]
 774 001c 0022     	 movs r2,#0
 775 001e 3B68     	 ldr r3,[r7]
 776 0020 FFF7FEFF 	 bl xQueueGenericCreateStatic
 777 0024 F860     	 str r0,[r7,#12]
 549:../Dave/Generated/FREERTOS/queue.c ****         prvInitialiseMutex( ( Queue_t * ) xNewQueue );
 778              	 .loc 1 549 0
 779 0026 F868     	 ldr r0,[r7,#12]
 780 0028 FFF7FEFF 	 bl prvInitialiseMutex
 550:../Dave/Generated/FREERTOS/queue.c **** 
 551:../Dave/Generated/FREERTOS/queue.c ****         return xNewQueue;
 781              	 .loc 1 551 0
 782 002c FB68     	 ldr r3,[r7,#12]
 552:../Dave/Generated/FREERTOS/queue.c ****     }
 783              	 .loc 1 552 0
 784 002e 1846     	 mov r0,r3
 785 0030 1837     	 adds r7,r7,#24
 786              	.LCFI33:
 787              	 .cfi_def_cfa_offset 8
 788 0032 BD46     	 mov sp,r7
 789              	.LCFI34:
 790              	 .cfi_def_cfa_register 13
 791              	 
 792 0034 80BD     	 pop {r7,pc}
 793              	 .cfi_endproc
 794              	.LFE143:
 796 0036 00BF     	 .section .text.xQueueGetMutexHolder,"ax",%progbits
 797              	 .align 2
 798              	 .global xQueueGetMutexHolder
 799              	 .thumb
 800              	 .thumb_func
 802              	xQueueGetMutexHolder:
 803              	.LFB144:
 553:../Dave/Generated/FREERTOS/queue.c **** 
 554:../Dave/Generated/FREERTOS/queue.c **** #endif /* configUSE_MUTEXES */
 555:../Dave/Generated/FREERTOS/queue.c **** /*-----------------------------------------------------------*/
 556:../Dave/Generated/FREERTOS/queue.c **** 
 557:../Dave/Generated/FREERTOS/queue.c **** #if ( ( configUSE_MUTEXES == 1 ) && ( INCLUDE_xSemaphoreGetMutexHolder == 1 ) )
 558:../Dave/Generated/FREERTOS/queue.c **** 
 559:../Dave/Generated/FREERTOS/queue.c ****     TaskHandle_t xQueueGetMutexHolder( QueueHandle_t xSemaphore )
 560:../Dave/Generated/FREERTOS/queue.c ****     {
 804              	 .loc 1 560 0
 805              	 .cfi_startproc
 806              	 
 807              	 
 808 0000 80B5     	 push {r7,lr}
 809              	.LCFI35:
 810              	 .cfi_def_cfa_offset 8
 811              	 .cfi_offset 7,-8
 812              	 .cfi_offset 14,-4
 813 0002 84B0     	 sub sp,sp,#16
 814              	.LCFI36:
 815              	 .cfi_def_cfa_offset 24
 816 0004 00AF     	 add r7,sp,#0
 817              	.LCFI37:
 818              	 .cfi_def_cfa_register 7
 819 0006 7860     	 str r0,[r7,#4]
 561:../Dave/Generated/FREERTOS/queue.c ****         TaskHandle_t pxReturn;
 562:../Dave/Generated/FREERTOS/queue.c ****         Queue_t * const pxSemaphore = ( Queue_t * ) xSemaphore;
 820              	 .loc 1 562 0
 821 0008 7B68     	 ldr r3,[r7,#4]
 822 000a BB60     	 str r3,[r7,#8]
 563:../Dave/Generated/FREERTOS/queue.c **** 
 564:../Dave/Generated/FREERTOS/queue.c ****         /* This function is called by xSemaphoreGetMutexHolder(), and should not
 565:../Dave/Generated/FREERTOS/queue.c ****          * be called directly.  Note:  This is a good way of determining if the
 566:../Dave/Generated/FREERTOS/queue.c ****          * calling task is the mutex holder, but not a good way of determining the
 567:../Dave/Generated/FREERTOS/queue.c ****          * identity of the mutex holder, as the holder may change between the
 568:../Dave/Generated/FREERTOS/queue.c ****          * following critical section exiting and the function returning. */
 569:../Dave/Generated/FREERTOS/queue.c ****         taskENTER_CRITICAL();
 823              	 .loc 1 569 0
 824 000c FFF7FEFF 	 bl vPortEnterCritical
 570:../Dave/Generated/FREERTOS/queue.c ****         {
 571:../Dave/Generated/FREERTOS/queue.c ****             if( pxSemaphore->uxQueueType == queueQUEUE_IS_MUTEX )
 825              	 .loc 1 571 0
 826 0010 BB68     	 ldr r3,[r7,#8]
 827 0012 1B68     	 ldr r3,[r3]
 828 0014 002B     	 cmp r3,#0
 829 0016 03D1     	 bne .L50
 572:../Dave/Generated/FREERTOS/queue.c ****             {
 573:../Dave/Generated/FREERTOS/queue.c ****                 pxReturn = pxSemaphore->u.xSemaphore.xMutexHolder;
 830              	 .loc 1 573 0
 831 0018 BB68     	 ldr r3,[r7,#8]
 832 001a 9B68     	 ldr r3,[r3,#8]
 833 001c FB60     	 str r3,[r7,#12]
 834 001e 01E0     	 b .L51
 835              	.L50:
 574:../Dave/Generated/FREERTOS/queue.c ****             }
 575:../Dave/Generated/FREERTOS/queue.c ****             else
 576:../Dave/Generated/FREERTOS/queue.c ****             {
 577:../Dave/Generated/FREERTOS/queue.c ****                 pxReturn = NULL;
 836              	 .loc 1 577 0
 837 0020 0023     	 movs r3,#0
 838 0022 FB60     	 str r3,[r7,#12]
 839              	.L51:
 578:../Dave/Generated/FREERTOS/queue.c ****             }
 579:../Dave/Generated/FREERTOS/queue.c ****         }
 580:../Dave/Generated/FREERTOS/queue.c ****         taskEXIT_CRITICAL();
 840              	 .loc 1 580 0
 841 0024 FFF7FEFF 	 bl vPortExitCritical
 581:../Dave/Generated/FREERTOS/queue.c **** 
 582:../Dave/Generated/FREERTOS/queue.c ****         return pxReturn;
 842              	 .loc 1 582 0
 843 0028 FB68     	 ldr r3,[r7,#12]
 583:../Dave/Generated/FREERTOS/queue.c ****     } /*lint !e818 xSemaphore cannot be a pointer to const because it is a typedef. */
 844              	 .loc 1 583 0
 845 002a 1846     	 mov r0,r3
 846 002c 1037     	 adds r7,r7,#16
 847              	.LCFI38:
 848              	 .cfi_def_cfa_offset 8
 849 002e BD46     	 mov sp,r7
 850              	.LCFI39:
 851              	 .cfi_def_cfa_register 13
 852              	 
 853 0030 80BD     	 pop {r7,pc}
 854              	 .cfi_endproc
 855              	.LFE144:
 857 0032 00BF     	 .section .text.xQueueGetMutexHolderFromISR,"ax",%progbits
 858              	 .align 2
 859              	 .global xQueueGetMutexHolderFromISR
 860              	 .thumb
 861              	 .thumb_func
 863              	xQueueGetMutexHolderFromISR:
 864              	.LFB145:
 584:../Dave/Generated/FREERTOS/queue.c **** 
 585:../Dave/Generated/FREERTOS/queue.c **** #endif /* if ( ( configUSE_MUTEXES == 1 ) && ( INCLUDE_xSemaphoreGetMutexHolder == 1 ) ) */
 586:../Dave/Generated/FREERTOS/queue.c **** /*-----------------------------------------------------------*/
 587:../Dave/Generated/FREERTOS/queue.c **** 
 588:../Dave/Generated/FREERTOS/queue.c **** #if ( ( configUSE_MUTEXES == 1 ) && ( INCLUDE_xSemaphoreGetMutexHolder == 1 ) )
 589:../Dave/Generated/FREERTOS/queue.c **** 
 590:../Dave/Generated/FREERTOS/queue.c ****     TaskHandle_t xQueueGetMutexHolderFromISR( QueueHandle_t xSemaphore )
 591:../Dave/Generated/FREERTOS/queue.c ****     {
 865              	 .loc 1 591 0
 866              	 .cfi_startproc
 867              	 
 868              	 
 869              	 
 870 0000 80B4     	 push {r7}
 871              	.LCFI40:
 872              	 .cfi_def_cfa_offset 4
 873              	 .cfi_offset 7,-4
 874 0002 85B0     	 sub sp,sp,#20
 875              	.LCFI41:
 876              	 .cfi_def_cfa_offset 24
 877 0004 00AF     	 add r7,sp,#0
 878              	.LCFI42:
 879              	 .cfi_def_cfa_register 7
 880 0006 7860     	 str r0,[r7,#4]
 592:../Dave/Generated/FREERTOS/queue.c ****         TaskHandle_t pxReturn;
 593:../Dave/Generated/FREERTOS/queue.c **** 
 594:../Dave/Generated/FREERTOS/queue.c ****         configASSERT( xSemaphore );
 881              	 .loc 1 594 0
 882 0008 7B68     	 ldr r3,[r7,#4]
 883 000a 002B     	 cmp r3,#0
 884 000c 09D1     	 bne .L54
 885              	.LBB155:
 886              	.LBB156:
 887              	 .loc 2 197 0 discriminator 1
 888              	
 889 000e 4FF0FC03 	 mov r3,#252
 890 0012 83F31188 	 msr basepri,r3
 891 0016 BFF36F8F 	 isb 
 892 001a BFF34F8F 	 dsb 
 893              	
 894              	
 895              	 .thumb
 896 001e BB60     	 str r3,[r7,#8]
 897              	.L55:
 898              	.LBE156:
 899              	.LBE155:
 900              	 .loc 1 594 0 discriminator 1
 901 0020 FEE7     	 b .L55
 902              	.L54:
 595:../Dave/Generated/FREERTOS/queue.c **** 
 596:../Dave/Generated/FREERTOS/queue.c ****         /* Mutexes cannot be used in interrupt service routines, so the mutex
 597:../Dave/Generated/FREERTOS/queue.c ****          * holder should not change in an ISR, and therefore a critical section is
 598:../Dave/Generated/FREERTOS/queue.c ****          * not required here. */
 599:../Dave/Generated/FREERTOS/queue.c ****         if( ( ( Queue_t * ) xSemaphore )->uxQueueType == queueQUEUE_IS_MUTEX )
 903              	 .loc 1 599 0
 904 0022 7B68     	 ldr r3,[r7,#4]
 905 0024 1B68     	 ldr r3,[r3]
 906 0026 002B     	 cmp r3,#0
 907 0028 03D1     	 bne .L56
 600:../Dave/Generated/FREERTOS/queue.c ****         {
 601:../Dave/Generated/FREERTOS/queue.c ****             pxReturn = ( ( Queue_t * ) xSemaphore )->u.xSemaphore.xMutexHolder;
 908              	 .loc 1 601 0
 909 002a 7B68     	 ldr r3,[r7,#4]
 910 002c 9B68     	 ldr r3,[r3,#8]
 911 002e FB60     	 str r3,[r7,#12]
 912 0030 01E0     	 b .L57
 913              	.L56:
 602:../Dave/Generated/FREERTOS/queue.c ****         }
 603:../Dave/Generated/FREERTOS/queue.c ****         else
 604:../Dave/Generated/FREERTOS/queue.c ****         {
 605:../Dave/Generated/FREERTOS/queue.c ****             pxReturn = NULL;
 914              	 .loc 1 605 0
 915 0032 0023     	 movs r3,#0
 916 0034 FB60     	 str r3,[r7,#12]
 917              	.L57:
 606:../Dave/Generated/FREERTOS/queue.c ****         }
 607:../Dave/Generated/FREERTOS/queue.c **** 
 608:../Dave/Generated/FREERTOS/queue.c ****         return pxReturn;
 918              	 .loc 1 608 0
 919 0036 FB68     	 ldr r3,[r7,#12]
 609:../Dave/Generated/FREERTOS/queue.c ****     } /*lint !e818 xSemaphore cannot be a pointer to const because it is a typedef. */
 920              	 .loc 1 609 0
 921 0038 1846     	 mov r0,r3
 922 003a 1437     	 adds r7,r7,#20
 923              	.LCFI43:
 924              	 .cfi_def_cfa_offset 4
 925 003c BD46     	 mov sp,r7
 926              	.LCFI44:
 927              	 .cfi_def_cfa_register 13
 928              	 
 929 003e 5DF8047B 	 ldr r7,[sp],#4
 930              	.LCFI45:
 931              	 .cfi_restore 7
 932              	 .cfi_def_cfa_offset 0
 933 0042 7047     	 bx lr
 934              	 .cfi_endproc
 935              	.LFE145:
 937              	 .section .text.xQueueGiveMutexRecursive,"ax",%progbits
 938              	 .align 2
 939              	 .global xQueueGiveMutexRecursive
 940              	 .thumb
 941              	 .thumb_func
 943              	xQueueGiveMutexRecursive:
 944              	.LFB146:
 610:../Dave/Generated/FREERTOS/queue.c **** 
 611:../Dave/Generated/FREERTOS/queue.c **** #endif /* if ( ( configUSE_MUTEXES == 1 ) && ( INCLUDE_xSemaphoreGetMutexHolder == 1 ) ) */
 612:../Dave/Generated/FREERTOS/queue.c **** /*-----------------------------------------------------------*/
 613:../Dave/Generated/FREERTOS/queue.c **** 
 614:../Dave/Generated/FREERTOS/queue.c **** #if ( configUSE_RECURSIVE_MUTEXES == 1 )
 615:../Dave/Generated/FREERTOS/queue.c **** 
 616:../Dave/Generated/FREERTOS/queue.c ****     BaseType_t xQueueGiveMutexRecursive( QueueHandle_t xMutex )
 617:../Dave/Generated/FREERTOS/queue.c ****     {
 945              	 .loc 1 617 0
 946              	 .cfi_startproc
 947              	 
 948              	 
 949 0000 90B5     	 push {r4,r7,lr}
 950              	.LCFI46:
 951              	 .cfi_def_cfa_offset 12
 952              	 .cfi_offset 4,-12
 953              	 .cfi_offset 7,-8
 954              	 .cfi_offset 14,-4
 955 0002 87B0     	 sub sp,sp,#28
 956              	.LCFI47:
 957              	 .cfi_def_cfa_offset 40
 958 0004 00AF     	 add r7,sp,#0
 959              	.LCFI48:
 960              	 .cfi_def_cfa_register 7
 961 0006 7860     	 str r0,[r7,#4]
 618:../Dave/Generated/FREERTOS/queue.c ****         BaseType_t xReturn;
 619:../Dave/Generated/FREERTOS/queue.c ****         Queue_t * const pxMutex = ( Queue_t * ) xMutex;
 962              	 .loc 1 619 0
 963 0008 7B68     	 ldr r3,[r7,#4]
 964 000a 3B61     	 str r3,[r7,#16]
 620:../Dave/Generated/FREERTOS/queue.c **** 
 621:../Dave/Generated/FREERTOS/queue.c ****         configASSERT( pxMutex );
 965              	 .loc 1 621 0
 966 000c 3B69     	 ldr r3,[r7,#16]
 967 000e 002B     	 cmp r3,#0
 968 0010 09D1     	 bne .L60
 969              	.LBB157:
 970              	.LBB158:
 971              	 .loc 2 197 0 discriminator 1
 972              	
 973 0012 4FF0FC03 	 mov r3,#252
 974 0016 83F31188 	 msr basepri,r3
 975 001a BFF36F8F 	 isb 
 976 001e BFF34F8F 	 dsb 
 977              	
 978              	
 979              	 .thumb
 980 0022 FB60     	 str r3,[r7,#12]
 981              	.L61:
 982              	.LBE158:
 983              	.LBE157:
 984              	 .loc 1 621 0 discriminator 1
 985 0024 FEE7     	 b .L61
 986              	.L60:
 622:../Dave/Generated/FREERTOS/queue.c **** 
 623:../Dave/Generated/FREERTOS/queue.c ****         /* If this is the task that holds the mutex then xMutexHolder will not
 624:../Dave/Generated/FREERTOS/queue.c ****          * change outside of this task.  If this task does not hold the mutex then
 625:../Dave/Generated/FREERTOS/queue.c ****          * pxMutexHolder can never coincidentally equal the tasks handle, and as
 626:../Dave/Generated/FREERTOS/queue.c ****          * this is the only condition we are interested in it does not matter if
 627:../Dave/Generated/FREERTOS/queue.c ****          * pxMutexHolder is accessed simultaneously by another task.  Therefore no
 628:../Dave/Generated/FREERTOS/queue.c ****          * mutual exclusion is required to test the pxMutexHolder variable. */
 629:../Dave/Generated/FREERTOS/queue.c ****         if( pxMutex->u.xSemaphore.xMutexHolder == xTaskGetCurrentTaskHandle() )
 987              	 .loc 1 629 0
 988 0026 3B69     	 ldr r3,[r7,#16]
 989 0028 9C68     	 ldr r4,[r3,#8]
 990 002a FFF7FEFF 	 bl xTaskGetCurrentTaskHandle
 991 002e 0346     	 mov r3,r0
 992 0030 9C42     	 cmp r4,r3
 993 0032 11D1     	 bne .L62
 630:../Dave/Generated/FREERTOS/queue.c ****         {
 631:../Dave/Generated/FREERTOS/queue.c ****             traceGIVE_MUTEX_RECURSIVE( pxMutex );
 632:../Dave/Generated/FREERTOS/queue.c **** 
 633:../Dave/Generated/FREERTOS/queue.c ****             /* uxRecursiveCallCount cannot be zero if xMutexHolder is equal to
 634:../Dave/Generated/FREERTOS/queue.c ****              * the task handle, therefore no underflow check is required.  Also,
 635:../Dave/Generated/FREERTOS/queue.c ****              * uxRecursiveCallCount is only modified by the mutex holder, and as
 636:../Dave/Generated/FREERTOS/queue.c ****              * there can only be one, no mutual exclusion is required to modify the
 637:../Dave/Generated/FREERTOS/queue.c ****              * uxRecursiveCallCount member. */
 638:../Dave/Generated/FREERTOS/queue.c ****             ( pxMutex->u.xSemaphore.uxRecursiveCallCount )--;
 994              	 .loc 1 638 0
 995 0034 3B69     	 ldr r3,[r7,#16]
 996 0036 DB68     	 ldr r3,[r3,#12]
 997 0038 5A1E     	 subs r2,r3,#1
 998 003a 3B69     	 ldr r3,[r7,#16]
 999 003c DA60     	 str r2,[r3,#12]
 639:../Dave/Generated/FREERTOS/queue.c **** 
 640:../Dave/Generated/FREERTOS/queue.c ****             /* Has the recursive call count unwound to 0? */
 641:../Dave/Generated/FREERTOS/queue.c ****             if( pxMutex->u.xSemaphore.uxRecursiveCallCount == ( UBaseType_t ) 0 )
 1000              	 .loc 1 641 0
 1001 003e 3B69     	 ldr r3,[r7,#16]
 1002 0040 DB68     	 ldr r3,[r3,#12]
 1003 0042 002B     	 cmp r3,#0
 1004 0044 05D1     	 bne .L63
 642:../Dave/Generated/FREERTOS/queue.c ****             {
 643:../Dave/Generated/FREERTOS/queue.c ****                 /* Return the mutex.  This will automatically unblock any other
 644:../Dave/Generated/FREERTOS/queue.c ****                  * task that might be waiting to access the mutex. */
 645:../Dave/Generated/FREERTOS/queue.c ****                 ( void ) xQueueGenericSend( pxMutex, NULL, queueMUTEX_GIVE_BLOCK_TIME, queueSEND_TO
 1005              	 .loc 1 645 0
 1006 0046 3869     	 ldr r0,[r7,#16]
 1007 0048 0021     	 movs r1,#0
 1008 004a 0022     	 movs r2,#0
 1009 004c 0023     	 movs r3,#0
 1010 004e FFF7FEFF 	 bl xQueueGenericSend
 1011              	.L63:
 646:../Dave/Generated/FREERTOS/queue.c ****             }
 647:../Dave/Generated/FREERTOS/queue.c ****             else
 648:../Dave/Generated/FREERTOS/queue.c ****             {
 649:../Dave/Generated/FREERTOS/queue.c ****                 mtCOVERAGE_TEST_MARKER();
 650:../Dave/Generated/FREERTOS/queue.c ****             }
 651:../Dave/Generated/FREERTOS/queue.c **** 
 652:../Dave/Generated/FREERTOS/queue.c ****             xReturn = pdPASS;
 1012              	 .loc 1 652 0
 1013 0052 0123     	 movs r3,#1
 1014 0054 7B61     	 str r3,[r7,#20]
 1015 0056 01E0     	 b .L64
 1016              	.L62:
 653:../Dave/Generated/FREERTOS/queue.c ****         }
 654:../Dave/Generated/FREERTOS/queue.c ****         else
 655:../Dave/Generated/FREERTOS/queue.c ****         {
 656:../Dave/Generated/FREERTOS/queue.c ****             /* The mutex cannot be given because the calling task is not the
 657:../Dave/Generated/FREERTOS/queue.c ****              * holder. */
 658:../Dave/Generated/FREERTOS/queue.c ****             xReturn = pdFAIL;
 1017              	 .loc 1 658 0
 1018 0058 0023     	 movs r3,#0
 1019 005a 7B61     	 str r3,[r7,#20]
 1020              	.L64:
 659:../Dave/Generated/FREERTOS/queue.c **** 
 660:../Dave/Generated/FREERTOS/queue.c ****             traceGIVE_MUTEX_RECURSIVE_FAILED( pxMutex );
 661:../Dave/Generated/FREERTOS/queue.c ****         }
 662:../Dave/Generated/FREERTOS/queue.c **** 
 663:../Dave/Generated/FREERTOS/queue.c ****         return xReturn;
 1021              	 .loc 1 663 0
 1022 005c 7B69     	 ldr r3,[r7,#20]
 664:../Dave/Generated/FREERTOS/queue.c ****     }
 1023              	 .loc 1 664 0
 1024 005e 1846     	 mov r0,r3
 1025 0060 1C37     	 adds r7,r7,#28
 1026              	.LCFI49:
 1027              	 .cfi_def_cfa_offset 12
 1028 0062 BD46     	 mov sp,r7
 1029              	.LCFI50:
 1030              	 .cfi_def_cfa_register 13
 1031              	 
 1032 0064 90BD     	 pop {r4,r7,pc}
 1033              	 .cfi_endproc
 1034              	.LFE146:
 1036 0066 00BF     	 .section .text.xQueueTakeMutexRecursive,"ax",%progbits
 1037              	 .align 2
 1038              	 .global xQueueTakeMutexRecursive
 1039              	 .thumb
 1040              	 .thumb_func
 1042              	xQueueTakeMutexRecursive:
 1043              	.LFB147:
 665:../Dave/Generated/FREERTOS/queue.c **** 
 666:../Dave/Generated/FREERTOS/queue.c **** #endif /* configUSE_RECURSIVE_MUTEXES */
 667:../Dave/Generated/FREERTOS/queue.c **** /*-----------------------------------------------------------*/
 668:../Dave/Generated/FREERTOS/queue.c **** 
 669:../Dave/Generated/FREERTOS/queue.c **** #if ( configUSE_RECURSIVE_MUTEXES == 1 )
 670:../Dave/Generated/FREERTOS/queue.c **** 
 671:../Dave/Generated/FREERTOS/queue.c ****     BaseType_t xQueueTakeMutexRecursive( QueueHandle_t xMutex,
 672:../Dave/Generated/FREERTOS/queue.c ****                                          TickType_t xTicksToWait )
 673:../Dave/Generated/FREERTOS/queue.c ****     {
 1044              	 .loc 1 673 0
 1045              	 .cfi_startproc
 1046              	 
 1047              	 
 1048 0000 90B5     	 push {r4,r7,lr}
 1049              	.LCFI51:
 1050              	 .cfi_def_cfa_offset 12
 1051              	 .cfi_offset 4,-12
 1052              	 .cfi_offset 7,-8
 1053              	 .cfi_offset 14,-4
 1054 0002 87B0     	 sub sp,sp,#28
 1055              	.LCFI52:
 1056              	 .cfi_def_cfa_offset 40
 1057 0004 00AF     	 add r7,sp,#0
 1058              	.LCFI53:
 1059              	 .cfi_def_cfa_register 7
 1060 0006 7860     	 str r0,[r7,#4]
 1061 0008 3960     	 str r1,[r7]
 674:../Dave/Generated/FREERTOS/queue.c ****         BaseType_t xReturn;
 675:../Dave/Generated/FREERTOS/queue.c ****         Queue_t * const pxMutex = ( Queue_t * ) xMutex;
 1062              	 .loc 1 675 0
 1063 000a 7B68     	 ldr r3,[r7,#4]
 1064 000c 3B61     	 str r3,[r7,#16]
 676:../Dave/Generated/FREERTOS/queue.c **** 
 677:../Dave/Generated/FREERTOS/queue.c ****         configASSERT( pxMutex );
 1065              	 .loc 1 677 0
 1066 000e 3B69     	 ldr r3,[r7,#16]
 1067 0010 002B     	 cmp r3,#0
 1068 0012 09D1     	 bne .L67
 1069              	.LBB159:
 1070              	.LBB160:
 1071              	 .loc 2 197 0 discriminator 1
 1072              	
 1073 0014 4FF0FC03 	 mov r3,#252
 1074 0018 83F31188 	 msr basepri,r3
 1075 001c BFF36F8F 	 isb 
 1076 0020 BFF34F8F 	 dsb 
 1077              	
 1078              	
 1079              	 .thumb
 1080 0024 FB60     	 str r3,[r7,#12]
 1081              	.L68:
 1082              	.LBE160:
 1083              	.LBE159:
 1084              	 .loc 1 677 0 discriminator 1
 1085 0026 FEE7     	 b .L68
 1086              	.L67:
 678:../Dave/Generated/FREERTOS/queue.c **** 
 679:../Dave/Generated/FREERTOS/queue.c ****         /* Comments regarding mutual exclusion as per those within
 680:../Dave/Generated/FREERTOS/queue.c ****          * xQueueGiveMutexRecursive(). */
 681:../Dave/Generated/FREERTOS/queue.c **** 
 682:../Dave/Generated/FREERTOS/queue.c ****         traceTAKE_MUTEX_RECURSIVE( pxMutex );
 683:../Dave/Generated/FREERTOS/queue.c **** 
 684:../Dave/Generated/FREERTOS/queue.c ****         if( pxMutex->u.xSemaphore.xMutexHolder == xTaskGetCurrentTaskHandle() )
 1087              	 .loc 1 684 0
 1088 0028 3B69     	 ldr r3,[r7,#16]
 1089 002a 9C68     	 ldr r4,[r3,#8]
 1090 002c FFF7FEFF 	 bl xTaskGetCurrentTaskHandle
 1091 0030 0346     	 mov r3,r0
 1092 0032 9C42     	 cmp r4,r3
 1093 0034 07D1     	 bne .L69
 685:../Dave/Generated/FREERTOS/queue.c ****         {
 686:../Dave/Generated/FREERTOS/queue.c ****             ( pxMutex->u.xSemaphore.uxRecursiveCallCount )++;
 1094              	 .loc 1 686 0
 1095 0036 3B69     	 ldr r3,[r7,#16]
 1096 0038 DB68     	 ldr r3,[r3,#12]
 1097 003a 5A1C     	 adds r2,r3,#1
 1098 003c 3B69     	 ldr r3,[r7,#16]
 1099 003e DA60     	 str r2,[r3,#12]
 687:../Dave/Generated/FREERTOS/queue.c ****             xReturn = pdPASS;
 1100              	 .loc 1 687 0
 1101 0040 0123     	 movs r3,#1
 1102 0042 7B61     	 str r3,[r7,#20]
 1103 0044 0CE0     	 b .L70
 1104              	.L69:
 688:../Dave/Generated/FREERTOS/queue.c ****         }
 689:../Dave/Generated/FREERTOS/queue.c ****         else
 690:../Dave/Generated/FREERTOS/queue.c ****         {
 691:../Dave/Generated/FREERTOS/queue.c ****             xReturn = xQueueSemaphoreTake( pxMutex, xTicksToWait );
 1105              	 .loc 1 691 0
 1106 0046 3869     	 ldr r0,[r7,#16]
 1107 0048 3968     	 ldr r1,[r7]
 1108 004a FFF7FEFF 	 bl xQueueSemaphoreTake
 1109 004e 7861     	 str r0,[r7,#20]
 692:../Dave/Generated/FREERTOS/queue.c **** 
 693:../Dave/Generated/FREERTOS/queue.c ****             /* pdPASS will only be returned if the mutex was successfully
 694:../Dave/Generated/FREERTOS/queue.c ****              * obtained.  The calling task may have entered the Blocked state
 695:../Dave/Generated/FREERTOS/queue.c ****              * before reaching here. */
 696:../Dave/Generated/FREERTOS/queue.c ****             if( xReturn != pdFAIL )
 1110              	 .loc 1 696 0
 1111 0050 7B69     	 ldr r3,[r7,#20]
 1112 0052 002B     	 cmp r3,#0
 1113 0054 04D0     	 beq .L70
 697:../Dave/Generated/FREERTOS/queue.c ****             {
 698:../Dave/Generated/FREERTOS/queue.c ****                 ( pxMutex->u.xSemaphore.uxRecursiveCallCount )++;
 1114              	 .loc 1 698 0
 1115 0056 3B69     	 ldr r3,[r7,#16]
 1116 0058 DB68     	 ldr r3,[r3,#12]
 1117 005a 5A1C     	 adds r2,r3,#1
 1118 005c 3B69     	 ldr r3,[r7,#16]
 1119 005e DA60     	 str r2,[r3,#12]
 1120              	.L70:
 699:../Dave/Generated/FREERTOS/queue.c ****             }
 700:../Dave/Generated/FREERTOS/queue.c ****             else
 701:../Dave/Generated/FREERTOS/queue.c ****             {
 702:../Dave/Generated/FREERTOS/queue.c ****                 traceTAKE_MUTEX_RECURSIVE_FAILED( pxMutex );
 703:../Dave/Generated/FREERTOS/queue.c ****             }
 704:../Dave/Generated/FREERTOS/queue.c ****         }
 705:../Dave/Generated/FREERTOS/queue.c **** 
 706:../Dave/Generated/FREERTOS/queue.c ****         return xReturn;
 1121              	 .loc 1 706 0
 1122 0060 7B69     	 ldr r3,[r7,#20]
 707:../Dave/Generated/FREERTOS/queue.c ****     }
 1123              	 .loc 1 707 0
 1124 0062 1846     	 mov r0,r3
 1125 0064 1C37     	 adds r7,r7,#28
 1126              	.LCFI54:
 1127              	 .cfi_def_cfa_offset 12
 1128 0066 BD46     	 mov sp,r7
 1129              	.LCFI55:
 1130              	 .cfi_def_cfa_register 13
 1131              	 
 1132 0068 90BD     	 pop {r4,r7,pc}
 1133              	 .cfi_endproc
 1134              	.LFE147:
 1136 006a 00BF     	 .section .text.xQueueCreateCountingSemaphoreStatic,"ax",%progbits
 1137              	 .align 2
 1138              	 .global xQueueCreateCountingSemaphoreStatic
 1139              	 .thumb
 1140              	 .thumb_func
 1142              	xQueueCreateCountingSemaphoreStatic:
 1143              	.LFB148:
 708:../Dave/Generated/FREERTOS/queue.c **** 
 709:../Dave/Generated/FREERTOS/queue.c **** #endif /* configUSE_RECURSIVE_MUTEXES */
 710:../Dave/Generated/FREERTOS/queue.c **** /*-----------------------------------------------------------*/
 711:../Dave/Generated/FREERTOS/queue.c **** 
 712:../Dave/Generated/FREERTOS/queue.c **** #if ( ( configUSE_COUNTING_SEMAPHORES == 1 ) && ( configSUPPORT_STATIC_ALLOCATION == 1 ) )
 713:../Dave/Generated/FREERTOS/queue.c **** 
 714:../Dave/Generated/FREERTOS/queue.c ****     QueueHandle_t xQueueCreateCountingSemaphoreStatic( const UBaseType_t uxMaxCount,
 715:../Dave/Generated/FREERTOS/queue.c ****                                                        const UBaseType_t uxInitialCount,
 716:../Dave/Generated/FREERTOS/queue.c ****                                                        StaticQueue_t * pxStaticQueue )
 717:../Dave/Generated/FREERTOS/queue.c ****     {
 1144              	 .loc 1 717 0
 1145              	 .cfi_startproc
 1146              	 
 1147              	 
 1148 0000 80B5     	 push {r7,lr}
 1149              	.LCFI56:
 1150              	 .cfi_def_cfa_offset 8
 1151              	 .cfi_offset 7,-8
 1152              	 .cfi_offset 14,-4
 1153 0002 8AB0     	 sub sp,sp,#40
 1154              	.LCFI57:
 1155              	 .cfi_def_cfa_offset 48
 1156 0004 02AF     	 add r7,sp,#8
 1157              	.LCFI58:
 1158              	 .cfi_def_cfa 7,40
 1159 0006 F860     	 str r0,[r7,#12]
 1160 0008 B960     	 str r1,[r7,#8]
 1161 000a 7A60     	 str r2,[r7,#4]
 718:../Dave/Generated/FREERTOS/queue.c ****         QueueHandle_t xHandle;
 719:../Dave/Generated/FREERTOS/queue.c **** 
 720:../Dave/Generated/FREERTOS/queue.c ****         configASSERT( uxMaxCount != 0 );
 1162              	 .loc 1 720 0
 1163 000c FB68     	 ldr r3,[r7,#12]
 1164 000e 002B     	 cmp r3,#0
 1165 0010 09D1     	 bne .L73
 1166              	.LBB161:
 1167              	.LBB162:
 1168              	 .loc 2 197 0 discriminator 1
 1169              	
 1170 0012 4FF0FC03 	 mov r3,#252
 1171 0016 83F31188 	 msr basepri,r3
 1172 001a BFF36F8F 	 isb 
 1173 001e BFF34F8F 	 dsb 
 1174              	
 1175              	
 1176              	 .thumb
 1177 0022 BB61     	 str r3,[r7,#24]
 1178              	.L74:
 1179              	.LBE162:
 1180              	.LBE161:
 1181              	 .loc 1 720 0 discriminator 1
 1182 0024 FEE7     	 b .L74
 1183              	.L73:
 721:../Dave/Generated/FREERTOS/queue.c ****         configASSERT( uxInitialCount <= uxMaxCount );
 1184              	 .loc 1 721 0
 1185 0026 BA68     	 ldr r2,[r7,#8]
 1186 0028 FB68     	 ldr r3,[r7,#12]
 1187 002a 9A42     	 cmp r2,r3
 1188 002c 09D9     	 bls .L75
 1189              	.LBB163:
 1190              	.LBB164:
 1191              	 .loc 2 197 0 discriminator 1
 1192              	
 1193 002e 4FF0FC03 	 mov r3,#252
 1194 0032 83F31188 	 msr basepri,r3
 1195 0036 BFF36F8F 	 isb 
 1196 003a BFF34F8F 	 dsb 
 1197              	
 1198              	
 1199              	 .thumb
 1200 003e 7B61     	 str r3,[r7,#20]
 1201              	.L76:
 1202              	.LBE164:
 1203              	.LBE163:
 1204              	 .loc 1 721 0 discriminator 2
 1205 0040 FEE7     	 b .L76
 1206              	.L75:
 722:../Dave/Generated/FREERTOS/queue.c **** 
 723:../Dave/Generated/FREERTOS/queue.c ****         xHandle = xQueueGenericCreateStatic( uxMaxCount, queueSEMAPHORE_QUEUE_ITEM_LENGTH, NULL, px
 1207              	 .loc 1 723 0
 1208 0042 0223     	 movs r3,#2
 1209 0044 0093     	 str r3,[sp]
 1210 0046 F868     	 ldr r0,[r7,#12]
 1211 0048 0021     	 movs r1,#0
 1212 004a 0022     	 movs r2,#0
 1213 004c 7B68     	 ldr r3,[r7,#4]
 1214 004e FFF7FEFF 	 bl xQueueGenericCreateStatic
 1215 0052 F861     	 str r0,[r7,#28]
 724:../Dave/Generated/FREERTOS/queue.c **** 
 725:../Dave/Generated/FREERTOS/queue.c ****         if( xHandle != NULL )
 1216              	 .loc 1 725 0
 1217 0054 FB69     	 ldr r3,[r7,#28]
 1218 0056 002B     	 cmp r3,#0
 1219 0058 02D0     	 beq .L77
 726:../Dave/Generated/FREERTOS/queue.c ****         {
 727:../Dave/Generated/FREERTOS/queue.c ****             ( ( Queue_t * ) xHandle )->uxMessagesWaiting = uxInitialCount;
 1220              	 .loc 1 727 0
 1221 005a FB69     	 ldr r3,[r7,#28]
 1222 005c BA68     	 ldr r2,[r7,#8]
 1223 005e 9A63     	 str r2,[r3,#56]
 1224              	.L77:
 728:../Dave/Generated/FREERTOS/queue.c **** 
 729:../Dave/Generated/FREERTOS/queue.c ****             traceCREATE_COUNTING_SEMAPHORE();
 730:../Dave/Generated/FREERTOS/queue.c ****         }
 731:../Dave/Generated/FREERTOS/queue.c ****         else
 732:../Dave/Generated/FREERTOS/queue.c ****         {
 733:../Dave/Generated/FREERTOS/queue.c ****             traceCREATE_COUNTING_SEMAPHORE_FAILED();
 734:../Dave/Generated/FREERTOS/queue.c ****         }
 735:../Dave/Generated/FREERTOS/queue.c **** 
 736:../Dave/Generated/FREERTOS/queue.c ****         return xHandle;
 1225              	 .loc 1 736 0
 1226 0060 FB69     	 ldr r3,[r7,#28]
 737:../Dave/Generated/FREERTOS/queue.c ****     }
 1227              	 .loc 1 737 0
 1228 0062 1846     	 mov r0,r3
 1229 0064 2037     	 adds r7,r7,#32
 1230              	.LCFI59:
 1231              	 .cfi_def_cfa_offset 8
 1232 0066 BD46     	 mov sp,r7
 1233              	.LCFI60:
 1234              	 .cfi_def_cfa_register 13
 1235              	 
 1236 0068 80BD     	 pop {r7,pc}
 1237              	 .cfi_endproc
 1238              	.LFE148:
 1240 006a 00BF     	 .section .text.xQueueCreateCountingSemaphore,"ax",%progbits
 1241              	 .align 2
 1242              	 .global xQueueCreateCountingSemaphore
 1243              	 .thumb
 1244              	 .thumb_func
 1246              	xQueueCreateCountingSemaphore:
 1247              	.LFB149:
 738:../Dave/Generated/FREERTOS/queue.c **** 
 739:../Dave/Generated/FREERTOS/queue.c **** #endif /* ( ( configUSE_COUNTING_SEMAPHORES == 1 ) && ( configSUPPORT_DYNAMIC_ALLOCATION == 1 ) ) *
 740:../Dave/Generated/FREERTOS/queue.c **** /*-----------------------------------------------------------*/
 741:../Dave/Generated/FREERTOS/queue.c **** 
 742:../Dave/Generated/FREERTOS/queue.c **** #if ( ( configUSE_COUNTING_SEMAPHORES == 1 ) && ( configSUPPORT_DYNAMIC_ALLOCATION == 1 ) )
 743:../Dave/Generated/FREERTOS/queue.c **** 
 744:../Dave/Generated/FREERTOS/queue.c ****     QueueHandle_t xQueueCreateCountingSemaphore( const UBaseType_t uxMaxCount,
 745:../Dave/Generated/FREERTOS/queue.c ****                                                  const UBaseType_t uxInitialCount )
 746:../Dave/Generated/FREERTOS/queue.c ****     {
 1248              	 .loc 1 746 0
 1249              	 .cfi_startproc
 1250              	 
 1251              	 
 1252 0000 80B5     	 push {r7,lr}
 1253              	.LCFI61:
 1254              	 .cfi_def_cfa_offset 8
 1255              	 .cfi_offset 7,-8
 1256              	 .cfi_offset 14,-4
 1257 0002 86B0     	 sub sp,sp,#24
 1258              	.LCFI62:
 1259              	 .cfi_def_cfa_offset 32
 1260 0004 00AF     	 add r7,sp,#0
 1261              	.LCFI63:
 1262              	 .cfi_def_cfa_register 7
 1263 0006 7860     	 str r0,[r7,#4]
 1264 0008 3960     	 str r1,[r7]
 747:../Dave/Generated/FREERTOS/queue.c ****         QueueHandle_t xHandle;
 748:../Dave/Generated/FREERTOS/queue.c **** 
 749:../Dave/Generated/FREERTOS/queue.c ****         configASSERT( uxMaxCount != 0 );
 1265              	 .loc 1 749 0
 1266 000a 7B68     	 ldr r3,[r7,#4]
 1267 000c 002B     	 cmp r3,#0
 1268 000e 09D1     	 bne .L80
 1269              	.LBB165:
 1270              	.LBB166:
 1271              	 .loc 2 197 0 discriminator 1
 1272              	
 1273 0010 4FF0FC03 	 mov r3,#252
 1274 0014 83F31188 	 msr basepri,r3
 1275 0018 BFF36F8F 	 isb 
 1276 001c BFF34F8F 	 dsb 
 1277              	
 1278              	
 1279              	 .thumb
 1280 0020 3B61     	 str r3,[r7,#16]
 1281              	.L81:
 1282              	.LBE166:
 1283              	.LBE165:
 1284              	 .loc 1 749 0 discriminator 1
 1285 0022 FEE7     	 b .L81
 1286              	.L80:
 750:../Dave/Generated/FREERTOS/queue.c ****         configASSERT( uxInitialCount <= uxMaxCount );
 1287              	 .loc 1 750 0
 1288 0024 3A68     	 ldr r2,[r7]
 1289 0026 7B68     	 ldr r3,[r7,#4]
 1290 0028 9A42     	 cmp r2,r3
 1291 002a 09D9     	 bls .L82
 1292              	.LBB167:
 1293              	.LBB168:
 1294              	 .loc 2 197 0 discriminator 1
 1295              	
 1296 002c 4FF0FC03 	 mov r3,#252
 1297 0030 83F31188 	 msr basepri,r3
 1298 0034 BFF36F8F 	 isb 
 1299 0038 BFF34F8F 	 dsb 
 1300              	
 1301              	
 1302              	 .thumb
 1303 003c FB60     	 str r3,[r7,#12]
 1304              	.L83:
 1305              	.LBE168:
 1306              	.LBE167:
 1307              	 .loc 1 750 0 discriminator 2
 1308 003e FEE7     	 b .L83
 1309              	.L82:
 751:../Dave/Generated/FREERTOS/queue.c **** 
 752:../Dave/Generated/FREERTOS/queue.c ****         xHandle = xQueueGenericCreate( uxMaxCount, queueSEMAPHORE_QUEUE_ITEM_LENGTH, queueQUEUE_TYP
 1310              	 .loc 1 752 0
 1311 0040 7868     	 ldr r0,[r7,#4]
 1312 0042 0021     	 movs r1,#0
 1313 0044 0222     	 movs r2,#2
 1314 0046 FFF7FEFF 	 bl xQueueGenericCreate
 1315 004a 7861     	 str r0,[r7,#20]
 753:../Dave/Generated/FREERTOS/queue.c **** 
 754:../Dave/Generated/FREERTOS/queue.c ****         if( xHandle != NULL )
 1316              	 .loc 1 754 0
 1317 004c 7B69     	 ldr r3,[r7,#20]
 1318 004e 002B     	 cmp r3,#0
 1319 0050 02D0     	 beq .L84
 755:../Dave/Generated/FREERTOS/queue.c ****         {
 756:../Dave/Generated/FREERTOS/queue.c ****             ( ( Queue_t * ) xHandle )->uxMessagesWaiting = uxInitialCount;
 1320              	 .loc 1 756 0
 1321 0052 7B69     	 ldr r3,[r7,#20]
 1322 0054 3A68     	 ldr r2,[r7]
 1323 0056 9A63     	 str r2,[r3,#56]
 1324              	.L84:
 757:../Dave/Generated/FREERTOS/queue.c **** 
 758:../Dave/Generated/FREERTOS/queue.c ****             traceCREATE_COUNTING_SEMAPHORE();
 759:../Dave/Generated/FREERTOS/queue.c ****         }
 760:../Dave/Generated/FREERTOS/queue.c ****         else
 761:../Dave/Generated/FREERTOS/queue.c ****         {
 762:../Dave/Generated/FREERTOS/queue.c ****             traceCREATE_COUNTING_SEMAPHORE_FAILED();
 763:../Dave/Generated/FREERTOS/queue.c ****         }
 764:../Dave/Generated/FREERTOS/queue.c **** 
 765:../Dave/Generated/FREERTOS/queue.c ****         return xHandle;
 1325              	 .loc 1 765 0
 1326 0058 7B69     	 ldr r3,[r7,#20]
 766:../Dave/Generated/FREERTOS/queue.c ****     }
 1327              	 .loc 1 766 0
 1328 005a 1846     	 mov r0,r3
 1329 005c 1837     	 adds r7,r7,#24
 1330              	.LCFI64:
 1331              	 .cfi_def_cfa_offset 8
 1332 005e BD46     	 mov sp,r7
 1333              	.LCFI65:
 1334              	 .cfi_def_cfa_register 13
 1335              	 
 1336 0060 80BD     	 pop {r7,pc}
 1337              	 .cfi_endproc
 1338              	.LFE149:
 1340 0062 00BF     	 .section .text.xQueueGenericSend,"ax",%progbits
 1341              	 .align 2
 1342              	 .global xQueueGenericSend
 1343              	 .thumb
 1344              	 .thumb_func
 1346              	xQueueGenericSend:
 1347              	.LFB150:
 767:../Dave/Generated/FREERTOS/queue.c **** 
 768:../Dave/Generated/FREERTOS/queue.c **** #endif /* ( ( configUSE_COUNTING_SEMAPHORES == 1 ) && ( configSUPPORT_DYNAMIC_ALLOCATION == 1 ) ) *
 769:../Dave/Generated/FREERTOS/queue.c **** /*-----------------------------------------------------------*/
 770:../Dave/Generated/FREERTOS/queue.c **** 
 771:../Dave/Generated/FREERTOS/queue.c **** BaseType_t xQueueGenericSend( QueueHandle_t xQueue,
 772:../Dave/Generated/FREERTOS/queue.c ****                               const void * const pvItemToQueue,
 773:../Dave/Generated/FREERTOS/queue.c ****                               TickType_t xTicksToWait,
 774:../Dave/Generated/FREERTOS/queue.c ****                               const BaseType_t xCopyPosition )
 775:../Dave/Generated/FREERTOS/queue.c **** {
 1348              	 .loc 1 775 0
 1349              	 .cfi_startproc
 1350              	 
 1351              	 
 1352 0000 80B5     	 push {r7,lr}
 1353              	.LCFI66:
 1354              	 .cfi_def_cfa_offset 8
 1355              	 .cfi_offset 7,-8
 1356              	 .cfi_offset 14,-4
 1357 0002 8EB0     	 sub sp,sp,#56
 1358              	.LCFI67:
 1359              	 .cfi_def_cfa_offset 64
 1360 0004 00AF     	 add r7,sp,#0
 1361              	.LCFI68:
 1362              	 .cfi_def_cfa_register 7
 1363 0006 F860     	 str r0,[r7,#12]
 1364 0008 B960     	 str r1,[r7,#8]
 1365 000a 7A60     	 str r2,[r7,#4]
 1366 000c 3B60     	 str r3,[r7]
 776:../Dave/Generated/FREERTOS/queue.c ****     BaseType_t xEntryTimeSet = pdFALSE, xYieldRequired;
 1367              	 .loc 1 776 0
 1368 000e 0023     	 movs r3,#0
 1369 0010 7B63     	 str r3,[r7,#52]
 777:../Dave/Generated/FREERTOS/queue.c ****     TimeOut_t xTimeOut;
 778:../Dave/Generated/FREERTOS/queue.c ****     Queue_t * const pxQueue = xQueue;
 1370              	 .loc 1 778 0
 1371 0012 FB68     	 ldr r3,[r7,#12]
 1372 0014 3B63     	 str r3,[r7,#48]
 779:../Dave/Generated/FREERTOS/queue.c **** 
 780:../Dave/Generated/FREERTOS/queue.c ****     configASSERT( pxQueue );
 1373              	 .loc 1 780 0
 1374 0016 3B6B     	 ldr r3,[r7,#48]
 1375 0018 002B     	 cmp r3,#0
 1376 001a 09D1     	 bne .L87
 1377              	.LBB169:
 1378              	.LBB170:
 1379              	 .loc 2 197 0 discriminator 1
 1380              	
 1381 001c 4FF0FC03 	 mov r3,#252
 1382 0020 83F31188 	 msr basepri,r3
 1383 0024 BFF36F8F 	 isb 
 1384 0028 BFF34F8F 	 dsb 
 1385              	
 1386              	
 1387              	 .thumb
 1388 002c 7B62     	 str r3,[r7,#36]
 1389              	.L88:
 1390              	.LBE170:
 1391              	.LBE169:
 1392              	 .loc 1 780 0 discriminator 1
 1393 002e FEE7     	 b .L88
 1394              	.L87:
 781:../Dave/Generated/FREERTOS/queue.c ****     configASSERT( !( ( pvItemToQueue == NULL ) && ( pxQueue->uxItemSize != ( UBaseType_t ) 0U ) ) )
 1395              	 .loc 1 781 0
 1396 0030 BB68     	 ldr r3,[r7,#8]
 1397 0032 002B     	 cmp r3,#0
 1398 0034 03D1     	 bne .L89
 1399              	 .loc 1 781 0 is_stmt 0 discriminator 2
 1400 0036 3B6B     	 ldr r3,[r7,#48]
 1401 0038 1B6C     	 ldr r3,[r3,#64]
 1402 003a 002B     	 cmp r3,#0
 1403 003c 01D1     	 bne .L90
 1404              	.L89:
 1405              	 .loc 1 781 0 discriminator 3
 1406 003e 0123     	 movs r3,#1
 1407 0040 00E0     	 b .L91
 1408              	.L90:
 1409              	 .loc 1 781 0 discriminator 4
 1410 0042 0023     	 movs r3,#0
 1411              	.L91:
 1412              	 .loc 1 781 0 discriminator 6
 1413 0044 002B     	 cmp r3,#0
 1414 0046 09D1     	 bne .L92
 1415              	.LBB171:
 1416              	.LBB172:
 1417              	 .loc 2 197 0 is_stmt 1 discriminator 7
 1418              	
 1419 0048 4FF0FC03 	 mov r3,#252
 1420 004c 83F31188 	 msr basepri,r3
 1421 0050 BFF36F8F 	 isb 
 1422 0054 BFF34F8F 	 dsb 
 1423              	
 1424              	
 1425              	 .thumb
 1426 0058 3B62     	 str r3,[r7,#32]
 1427              	.L93:
 1428              	.LBE172:
 1429              	.LBE171:
 1430              	 .loc 1 781 0 discriminator 2
 1431 005a FEE7     	 b .L93
 1432              	.L92:
 782:../Dave/Generated/FREERTOS/queue.c ****     configASSERT( !( ( xCopyPosition == queueOVERWRITE ) && ( pxQueue->uxLength != 1 ) ) );
 1433              	 .loc 1 782 0
 1434 005c 3B68     	 ldr r3,[r7]
 1435 005e 022B     	 cmp r3,#2
 1436 0060 03D1     	 bne .L94
 1437              	 .loc 1 782 0 is_stmt 0 discriminator 2
 1438 0062 3B6B     	 ldr r3,[r7,#48]
 1439 0064 DB6B     	 ldr r3,[r3,#60]
 1440 0066 012B     	 cmp r3,#1
 1441 0068 01D1     	 bne .L95
 1442              	.L94:
 1443              	 .loc 1 782 0 discriminator 3
 1444 006a 0123     	 movs r3,#1
 1445 006c 00E0     	 b .L96
 1446              	.L95:
 1447              	 .loc 1 782 0 discriminator 4
 1448 006e 0023     	 movs r3,#0
 1449              	.L96:
 1450              	 .loc 1 782 0 discriminator 6
 1451 0070 002B     	 cmp r3,#0
 1452 0072 09D1     	 bne .L97
 1453              	.LBB173:
 1454              	.LBB174:
 1455              	 .loc 2 197 0 is_stmt 1 discriminator 7
 1456              	
 1457 0074 4FF0FC03 	 mov r3,#252
 1458 0078 83F31188 	 msr basepri,r3
 1459 007c BFF36F8F 	 isb 
 1460 0080 BFF34F8F 	 dsb 
 1461              	
 1462              	
 1463              	 .thumb
 1464 0084 FB61     	 str r3,[r7,#28]
 1465              	.L98:
 1466              	.LBE174:
 1467              	.LBE173:
 1468              	 .loc 1 782 0 discriminator 3
 1469 0086 FEE7     	 b .L98
 1470              	.L97:
 783:../Dave/Generated/FREERTOS/queue.c ****     #if ( ( INCLUDE_xTaskGetSchedulerState == 1 ) || ( configUSE_TIMERS == 1 ) )
 784:../Dave/Generated/FREERTOS/queue.c ****         {
 785:../Dave/Generated/FREERTOS/queue.c ****             configASSERT( !( ( xTaskGetSchedulerState() == taskSCHEDULER_SUSPENDED ) && ( xTicksToW
 1471              	 .loc 1 785 0
 1472 0088 FFF7FEFF 	 bl xTaskGetSchedulerState
 1473 008c 0346     	 mov r3,r0
 1474 008e 002B     	 cmp r3,#0
 1475 0090 02D1     	 bne .L99
 1476              	 .loc 1 785 0 is_stmt 0 discriminator 2
 1477 0092 7B68     	 ldr r3,[r7,#4]
 1478 0094 002B     	 cmp r3,#0
 1479 0096 01D1     	 bne .L100
 1480              	.L99:
 1481              	 .loc 1 785 0 discriminator 3
 1482 0098 0123     	 movs r3,#1
 1483 009a 00E0     	 b .L101
 1484              	.L100:
 1485              	 .loc 1 785 0 discriminator 4
 1486 009c 0023     	 movs r3,#0
 1487              	.L101:
 1488              	 .loc 1 785 0 discriminator 6
 1489 009e 002B     	 cmp r3,#0
 1490 00a0 09D1     	 bne .L102
 1491              	.LBB175:
 1492              	.LBB176:
 1493              	 .loc 2 197 0 is_stmt 1 discriminator 7
 1494              	
 1495 00a2 4FF0FC03 	 mov r3,#252
 1496 00a6 83F31188 	 msr basepri,r3
 1497 00aa BFF36F8F 	 isb 
 1498 00ae BFF34F8F 	 dsb 
 1499              	
 1500              	
 1501              	 .thumb
 1502 00b2 BB61     	 str r3,[r7,#24]
 1503              	.L103:
 1504              	.LBE176:
 1505              	.LBE175:
 1506              	 .loc 1 785 0 discriminator 4
 1507 00b4 FEE7     	 b .L103
 1508              	.L102:
 786:../Dave/Generated/FREERTOS/queue.c ****         }
 787:../Dave/Generated/FREERTOS/queue.c ****     #endif
 788:../Dave/Generated/FREERTOS/queue.c **** 
 789:../Dave/Generated/FREERTOS/queue.c ****     /*lint -save -e904 This function relaxes the coding standard somewhat to
 790:../Dave/Generated/FREERTOS/queue.c ****      * allow return statements within the function itself.  This is done in the
 791:../Dave/Generated/FREERTOS/queue.c ****      * interest of execution time efficiency. */
 792:../Dave/Generated/FREERTOS/queue.c ****     for( ; ; )
 793:../Dave/Generated/FREERTOS/queue.c ****     {
 794:../Dave/Generated/FREERTOS/queue.c ****         taskENTER_CRITICAL();
 1509              	 .loc 1 794 0
 1510 00b6 FFF7FEFF 	 bl vPortEnterCritical
 795:../Dave/Generated/FREERTOS/queue.c ****         {
 796:../Dave/Generated/FREERTOS/queue.c ****             /* Is there room on the queue now?  The running task must be the
 797:../Dave/Generated/FREERTOS/queue.c ****              * highest priority task wanting to access the queue.  If the head item
 798:../Dave/Generated/FREERTOS/queue.c ****              * in the queue is to be overwritten then it does not matter if the
 799:../Dave/Generated/FREERTOS/queue.c ****              * queue is full. */
 800:../Dave/Generated/FREERTOS/queue.c ****             if( ( pxQueue->uxMessagesWaiting < pxQueue->uxLength ) || ( xCopyPosition == queueOVERW
 1511              	 .loc 1 800 0
 1512 00ba 3B6B     	 ldr r3,[r7,#48]
 1513 00bc 9A6B     	 ldr r2,[r3,#56]
 1514 00be 3B6B     	 ldr r3,[r7,#48]
 1515 00c0 DB6B     	 ldr r3,[r3,#60]
 1516 00c2 9A42     	 cmp r2,r3
 1517 00c4 02D3     	 bcc .L104
 1518              	 .loc 1 800 0 is_stmt 0 discriminator 1
 1519 00c6 3B68     	 ldr r3,[r7]
 1520 00c8 022B     	 cmp r3,#2
 1521 00ca 47D1     	 bne .L105
 1522              	.L104:
 1523              	.LBB177:
 801:../Dave/Generated/FREERTOS/queue.c ****             {
 802:../Dave/Generated/FREERTOS/queue.c ****                 traceQUEUE_SEND( pxQueue );
 803:../Dave/Generated/FREERTOS/queue.c **** 
 804:../Dave/Generated/FREERTOS/queue.c ****                 #if ( configUSE_QUEUE_SETS == 1 )
 805:../Dave/Generated/FREERTOS/queue.c ****                     {
 806:../Dave/Generated/FREERTOS/queue.c ****                         const UBaseType_t uxPreviousMessagesWaiting = pxQueue->uxMessagesWaiting;
 1524              	 .loc 1 806 0 is_stmt 1
 1525 00cc 3B6B     	 ldr r3,[r7,#48]
 1526 00ce 9B6B     	 ldr r3,[r3,#56]
 1527 00d0 FB62     	 str r3,[r7,#44]
 807:../Dave/Generated/FREERTOS/queue.c **** 
 808:../Dave/Generated/FREERTOS/queue.c ****                         xYieldRequired = prvCopyDataToQueue( pxQueue, pvItemToQueue, xCopyPosition 
 1528              	 .loc 1 808 0
 1529 00d2 386B     	 ldr r0,[r7,#48]
 1530 00d4 B968     	 ldr r1,[r7,#8]
 1531 00d6 3A68     	 ldr r2,[r7]
 1532 00d8 FFF7FEFF 	 bl prvCopyDataToQueue
 1533 00dc B862     	 str r0,[r7,#40]
 809:../Dave/Generated/FREERTOS/queue.c **** 
 810:../Dave/Generated/FREERTOS/queue.c ****                         if( pxQueue->pxQueueSetContainer != NULL )
 1534              	 .loc 1 810 0
 1535 00de 3B6B     	 ldr r3,[r7,#48]
 1536 00e0 9B6C     	 ldr r3,[r3,#72]
 1537 00e2 002B     	 cmp r3,#0
 1538 00e4 16D0     	 beq .L106
 811:../Dave/Generated/FREERTOS/queue.c ****                         {
 812:../Dave/Generated/FREERTOS/queue.c ****                             if( ( xCopyPosition == queueOVERWRITE ) && ( uxPreviousMessagesWaiting 
 1539              	 .loc 1 812 0
 1540 00e6 3B68     	 ldr r3,[r7]
 1541 00e8 022B     	 cmp r3,#2
 1542 00ea 04D1     	 bne .L107
 1543              	 .loc 1 812 0 is_stmt 0 discriminator 1
 1544 00ec FB6A     	 ldr r3,[r7,#44]
 1545 00ee 002B     	 cmp r3,#0
 1546 00f0 01D0     	 beq .L107
 1547              	 .loc 1 812 0
 1548 00f2 00BF     	 nop
 1549 00f4 2EE0     	 b .L109
 1550              	.L107:
 813:../Dave/Generated/FREERTOS/queue.c ****                             {
 814:../Dave/Generated/FREERTOS/queue.c ****                                 /* Do not notify the queue set as an existing item
 815:../Dave/Generated/FREERTOS/queue.c ****                                  * was overwritten in the queue so the number of items
 816:../Dave/Generated/FREERTOS/queue.c ****                                  * in the queue has not changed. */
 817:../Dave/Generated/FREERTOS/queue.c ****                                 mtCOVERAGE_TEST_MARKER();
 818:../Dave/Generated/FREERTOS/queue.c ****                             }
 819:../Dave/Generated/FREERTOS/queue.c ****                             else if( prvNotifyQueueSetContainer( pxQueue ) != pdFALSE )
 1551              	 .loc 1 819 0 is_stmt 1
 1552 00f6 386B     	 ldr r0,[r7,#48]
 1553 00f8 FFF7FEFF 	 bl prvNotifyQueueSetContainer
 1554 00fc 0346     	 mov r3,r0
 1555 00fe 002B     	 cmp r3,#0
 1556 0100 28D0     	 beq .L109
 820:../Dave/Generated/FREERTOS/queue.c ****                             {
 821:../Dave/Generated/FREERTOS/queue.c ****                                 /* The queue is a member of a queue set, and posting
 822:../Dave/Generated/FREERTOS/queue.c ****                                  * to the queue set caused a higher priority task to
 823:../Dave/Generated/FREERTOS/queue.c ****                                  * unblock. A context switch is required. */
 824:../Dave/Generated/FREERTOS/queue.c ****                                 queueYIELD_IF_USING_PREEMPTION();
 1557              	 .loc 1 824 0
 1558 0102 4C4B     	 ldr r3,.L122
 1559 0104 4FF08052 	 mov r2,#268435456
 1560 0108 1A60     	 str r2,[r3]
 1561              	
 1562 010a BFF34F8F 	 dsb
 1563              	
 1564              	
 1565 010e BFF36F8F 	 isb
 1566              	
 1567              	 .thumb
 1568 0112 1FE0     	 b .L109
 1569              	.L106:
 825:../Dave/Generated/FREERTOS/queue.c ****                             }
 826:../Dave/Generated/FREERTOS/queue.c ****                             else
 827:../Dave/Generated/FREERTOS/queue.c ****                             {
 828:../Dave/Generated/FREERTOS/queue.c ****                                 mtCOVERAGE_TEST_MARKER();
 829:../Dave/Generated/FREERTOS/queue.c ****                             }
 830:../Dave/Generated/FREERTOS/queue.c ****                         }
 831:../Dave/Generated/FREERTOS/queue.c ****                         else
 832:../Dave/Generated/FREERTOS/queue.c ****                         {
 833:../Dave/Generated/FREERTOS/queue.c ****                             /* If there was a task waiting for data to arrive on the
 834:../Dave/Generated/FREERTOS/queue.c ****                              * queue then unblock it now. */
 835:../Dave/Generated/FREERTOS/queue.c ****                             if( listLIST_IS_EMPTY( &( pxQueue->xTasksWaitingToReceive ) ) == pdFALS
 1570              	 .loc 1 835 0
 1571 0114 3B6B     	 ldr r3,[r7,#48]
 1572 0116 5B6A     	 ldr r3,[r3,#36]
 1573 0118 002B     	 cmp r3,#0
 1574 011a 10D0     	 beq .L110
 836:../Dave/Generated/FREERTOS/queue.c ****                             {
 837:../Dave/Generated/FREERTOS/queue.c ****                                 if( xTaskRemoveFromEventList( &( pxQueue->xTasksWaitingToReceive ) 
 1575              	 .loc 1 837 0
 1576 011c 3B6B     	 ldr r3,[r7,#48]
 1577 011e 2433     	 adds r3,r3,#36
 1578 0120 1846     	 mov r0,r3
 1579 0122 FFF7FEFF 	 bl xTaskRemoveFromEventList
 1580 0126 0346     	 mov r3,r0
 1581 0128 002B     	 cmp r3,#0
 1582 012a 13D0     	 beq .L109
 838:../Dave/Generated/FREERTOS/queue.c ****                                 {
 839:../Dave/Generated/FREERTOS/queue.c ****                                     /* The unblocked task has a priority higher than
 840:../Dave/Generated/FREERTOS/queue.c ****                                      * our own so yield immediately.  Yes it is ok to
 841:../Dave/Generated/FREERTOS/queue.c ****                                      * do this from within the critical section - the
 842:../Dave/Generated/FREERTOS/queue.c ****                                      * kernel takes care of that. */
 843:../Dave/Generated/FREERTOS/queue.c ****                                     queueYIELD_IF_USING_PREEMPTION();
 1583              	 .loc 1 843 0
 1584 012c 414B     	 ldr r3,.L122
 1585 012e 4FF08052 	 mov r2,#268435456
 1586 0132 1A60     	 str r2,[r3]
 1587              	
 1588 0134 BFF34F8F 	 dsb
 1589              	
 1590              	
 1591 0138 BFF36F8F 	 isb
 1592              	
 1593              	 .thumb
 1594 013c 0AE0     	 b .L109
 1595              	.L110:
 844:../Dave/Generated/FREERTOS/queue.c ****                                 }
 845:../Dave/Generated/FREERTOS/queue.c ****                                 else
 846:../Dave/Generated/FREERTOS/queue.c ****                                 {
 847:../Dave/Generated/FREERTOS/queue.c ****                                     mtCOVERAGE_TEST_MARKER();
 848:../Dave/Generated/FREERTOS/queue.c ****                                 }
 849:../Dave/Generated/FREERTOS/queue.c ****                             }
 850:../Dave/Generated/FREERTOS/queue.c ****                             else if( xYieldRequired != pdFALSE )
 1596              	 .loc 1 850 0
 1597 013e BB6A     	 ldr r3,[r7,#40]
 1598 0140 002B     	 cmp r3,#0
 1599 0142 07D0     	 beq .L109
 851:../Dave/Generated/FREERTOS/queue.c ****                             {
 852:../Dave/Generated/FREERTOS/queue.c ****                                 /* This path is a special case that will only get
 853:../Dave/Generated/FREERTOS/queue.c ****                                  * executed if the task was holding multiple mutexes
 854:../Dave/Generated/FREERTOS/queue.c ****                                  * and the mutexes were given back in an order that is
 855:../Dave/Generated/FREERTOS/queue.c ****                                  * different to that in which they were taken. */
 856:../Dave/Generated/FREERTOS/queue.c ****                                 queueYIELD_IF_USING_PREEMPTION();
 1600              	 .loc 1 856 0
 1601 0144 3B4B     	 ldr r3,.L122
 1602 0146 4FF08052 	 mov r2,#268435456
 1603 014a 1A60     	 str r2,[r3]
 1604              	
 1605 014c BFF34F8F 	 dsb
 1606              	
 1607              	
 1608 0150 BFF36F8F 	 isb
 1609              	
 1610              	 .thumb
 1611              	.L109:
 1612              	.LBE177:
 857:../Dave/Generated/FREERTOS/queue.c ****                             }
 858:../Dave/Generated/FREERTOS/queue.c ****                             else
 859:../Dave/Generated/FREERTOS/queue.c ****                             {
 860:../Dave/Generated/FREERTOS/queue.c ****                                 mtCOVERAGE_TEST_MARKER();
 861:../Dave/Generated/FREERTOS/queue.c ****                             }
 862:../Dave/Generated/FREERTOS/queue.c ****                         }
 863:../Dave/Generated/FREERTOS/queue.c ****                     }
 864:../Dave/Generated/FREERTOS/queue.c ****                 #else /* configUSE_QUEUE_SETS */
 865:../Dave/Generated/FREERTOS/queue.c ****                     {
 866:../Dave/Generated/FREERTOS/queue.c ****                         xYieldRequired = prvCopyDataToQueue( pxQueue, pvItemToQueue, xCopyPosition 
 867:../Dave/Generated/FREERTOS/queue.c **** 
 868:../Dave/Generated/FREERTOS/queue.c ****                         /* If there was a task waiting for data to arrive on the
 869:../Dave/Generated/FREERTOS/queue.c ****                          * queue then unblock it now. */
 870:../Dave/Generated/FREERTOS/queue.c ****                         if( listLIST_IS_EMPTY( &( pxQueue->xTasksWaitingToReceive ) ) == pdFALSE )
 871:../Dave/Generated/FREERTOS/queue.c ****                         {
 872:../Dave/Generated/FREERTOS/queue.c ****                             if( xTaskRemoveFromEventList( &( pxQueue->xTasksWaitingToReceive ) ) !=
 873:../Dave/Generated/FREERTOS/queue.c ****                             {
 874:../Dave/Generated/FREERTOS/queue.c ****                                 /* The unblocked task has a priority higher than
 875:../Dave/Generated/FREERTOS/queue.c ****                                  * our own so yield immediately.  Yes it is ok to do
 876:../Dave/Generated/FREERTOS/queue.c ****                                  * this from within the critical section - the kernel
 877:../Dave/Generated/FREERTOS/queue.c ****                                  * takes care of that. */
 878:../Dave/Generated/FREERTOS/queue.c ****                                 queueYIELD_IF_USING_PREEMPTION();
 879:../Dave/Generated/FREERTOS/queue.c ****                             }
 880:../Dave/Generated/FREERTOS/queue.c ****                             else
 881:../Dave/Generated/FREERTOS/queue.c ****                             {
 882:../Dave/Generated/FREERTOS/queue.c ****                                 mtCOVERAGE_TEST_MARKER();
 883:../Dave/Generated/FREERTOS/queue.c ****                             }
 884:../Dave/Generated/FREERTOS/queue.c ****                         }
 885:../Dave/Generated/FREERTOS/queue.c ****                         else if( xYieldRequired != pdFALSE )
 886:../Dave/Generated/FREERTOS/queue.c ****                         {
 887:../Dave/Generated/FREERTOS/queue.c ****                             /* This path is a special case that will only get
 888:../Dave/Generated/FREERTOS/queue.c ****                              * executed if the task was holding multiple mutexes and
 889:../Dave/Generated/FREERTOS/queue.c ****                              * the mutexes were given back in an order that is
 890:../Dave/Generated/FREERTOS/queue.c ****                              * different to that in which they were taken. */
 891:../Dave/Generated/FREERTOS/queue.c ****                             queueYIELD_IF_USING_PREEMPTION();
 892:../Dave/Generated/FREERTOS/queue.c ****                         }
 893:../Dave/Generated/FREERTOS/queue.c ****                         else
 894:../Dave/Generated/FREERTOS/queue.c ****                         {
 895:../Dave/Generated/FREERTOS/queue.c ****                             mtCOVERAGE_TEST_MARKER();
 896:../Dave/Generated/FREERTOS/queue.c ****                         }
 897:../Dave/Generated/FREERTOS/queue.c ****                     }
 898:../Dave/Generated/FREERTOS/queue.c ****                 #endif /* configUSE_QUEUE_SETS */
 899:../Dave/Generated/FREERTOS/queue.c **** 
 900:../Dave/Generated/FREERTOS/queue.c ****                 taskEXIT_CRITICAL();
 1613              	 .loc 1 900 0
 1614 0154 FFF7FEFF 	 bl vPortExitCritical
 901:../Dave/Generated/FREERTOS/queue.c ****                 return pdPASS;
 1615              	 .loc 1 901 0
 1616 0158 0123     	 movs r3,#1
 1617 015a 67E0     	 b .L121
 1618              	.L105:
 902:../Dave/Generated/FREERTOS/queue.c ****             }
 903:../Dave/Generated/FREERTOS/queue.c ****             else
 904:../Dave/Generated/FREERTOS/queue.c ****             {
 905:../Dave/Generated/FREERTOS/queue.c ****                 if( xTicksToWait == ( TickType_t ) 0 )
 1619              	 .loc 1 905 0
 1620 015c 7B68     	 ldr r3,[r7,#4]
 1621 015e 002B     	 cmp r3,#0
 1622 0160 03D1     	 bne .L112
 906:../Dave/Generated/FREERTOS/queue.c ****                 {
 907:../Dave/Generated/FREERTOS/queue.c ****                     /* The queue was full and no block time is specified (or
 908:../Dave/Generated/FREERTOS/queue.c ****                      * the block time has expired) so leave now. */
 909:../Dave/Generated/FREERTOS/queue.c ****                     taskEXIT_CRITICAL();
 1623              	 .loc 1 909 0
 1624 0162 FFF7FEFF 	 bl vPortExitCritical
 910:../Dave/Generated/FREERTOS/queue.c **** 
 911:../Dave/Generated/FREERTOS/queue.c ****                     /* Return to the original privilege level before exiting
 912:../Dave/Generated/FREERTOS/queue.c ****                      * the function. */
 913:../Dave/Generated/FREERTOS/queue.c ****                     traceQUEUE_SEND_FAILED( pxQueue );
 914:../Dave/Generated/FREERTOS/queue.c ****                     return errQUEUE_FULL;
 1625              	 .loc 1 914 0
 1626 0166 0023     	 movs r3,#0
 1627 0168 60E0     	 b .L121
 1628              	.L112:
 915:../Dave/Generated/FREERTOS/queue.c ****                 }
 916:../Dave/Generated/FREERTOS/queue.c ****                 else if( xEntryTimeSet == pdFALSE )
 1629              	 .loc 1 916 0
 1630 016a 7B6B     	 ldr r3,[r7,#52]
 1631 016c 002B     	 cmp r3,#0
 1632 016e 06D1     	 bne .L113
 917:../Dave/Generated/FREERTOS/queue.c ****                 {
 918:../Dave/Generated/FREERTOS/queue.c ****                     /* The queue was full and a block time was specified so
 919:../Dave/Generated/FREERTOS/queue.c ****                      * configure the timeout structure. */
 920:../Dave/Generated/FREERTOS/queue.c ****                     vTaskInternalSetTimeOutState( &xTimeOut );
 1633              	 .loc 1 920 0
 1634 0170 07F11003 	 add r3,r7,#16
 1635 0174 1846     	 mov r0,r3
 1636 0176 FFF7FEFF 	 bl vTaskInternalSetTimeOutState
 921:../Dave/Generated/FREERTOS/queue.c ****                     xEntryTimeSet = pdTRUE;
 1637              	 .loc 1 921 0
 1638 017a 0123     	 movs r3,#1
 1639 017c 7B63     	 str r3,[r7,#52]
 1640              	.L113:
 922:../Dave/Generated/FREERTOS/queue.c ****                 }
 923:../Dave/Generated/FREERTOS/queue.c ****                 else
 924:../Dave/Generated/FREERTOS/queue.c ****                 {
 925:../Dave/Generated/FREERTOS/queue.c ****                     /* Entry time was already set. */
 926:../Dave/Generated/FREERTOS/queue.c ****                     mtCOVERAGE_TEST_MARKER();
 927:../Dave/Generated/FREERTOS/queue.c ****                 }
 928:../Dave/Generated/FREERTOS/queue.c ****             }
 929:../Dave/Generated/FREERTOS/queue.c ****         }
 930:../Dave/Generated/FREERTOS/queue.c ****         taskEXIT_CRITICAL();
 1641              	 .loc 1 930 0
 1642 017e FFF7FEFF 	 bl vPortExitCritical
 931:../Dave/Generated/FREERTOS/queue.c **** 
 932:../Dave/Generated/FREERTOS/queue.c ****         /* Interrupts and other tasks can send to and receive from the queue
 933:../Dave/Generated/FREERTOS/queue.c ****          * now the critical section has been exited. */
 934:../Dave/Generated/FREERTOS/queue.c **** 
 935:../Dave/Generated/FREERTOS/queue.c ****         vTaskSuspendAll();
 1643              	 .loc 1 935 0
 1644 0182 FFF7FEFF 	 bl vTaskSuspendAll
 936:../Dave/Generated/FREERTOS/queue.c ****         prvLockQueue( pxQueue );
 1645              	 .loc 1 936 0
 1646 0186 FFF7FEFF 	 bl vPortEnterCritical
 1647 018a 3B6B     	 ldr r3,[r7,#48]
 1648 018c 93F84430 	 ldrb r3,[r3,#68]
 1649 0190 DBB2     	 uxtb r3,r3
 1650 0192 5BB2     	 sxtb r3,r3
 1651 0194 B3F1FF3F 	 cmp r3,#-1
 1652 0198 03D1     	 bne .L114
 1653              	 .loc 1 936 0 is_stmt 0 discriminator 1
 1654 019a 3B6B     	 ldr r3,[r7,#48]
 1655 019c 0022     	 movs r2,#0
 1656 019e 83F84420 	 strb r2,[r3,#68]
 1657              	.L114:
 1658              	 .loc 1 936 0 discriminator 3
 1659 01a2 3B6B     	 ldr r3,[r7,#48]
 1660 01a4 93F84530 	 ldrb r3,[r3,#69]
 1661 01a8 DBB2     	 uxtb r3,r3
 1662 01aa 5BB2     	 sxtb r3,r3
 1663 01ac B3F1FF3F 	 cmp r3,#-1
 1664 01b0 03D1     	 bne .L115
 1665              	 .loc 1 936 0 discriminator 4
 1666 01b2 3B6B     	 ldr r3,[r7,#48]
 1667 01b4 0022     	 movs r2,#0
 1668 01b6 83F84520 	 strb r2,[r3,#69]
 1669              	.L115:
 1670              	 .loc 1 936 0 discriminator 6
 1671 01ba FFF7FEFF 	 bl vPortExitCritical
 937:../Dave/Generated/FREERTOS/queue.c **** 
 938:../Dave/Generated/FREERTOS/queue.c ****         /* Update the timeout state to see if it has expired yet. */
 939:../Dave/Generated/FREERTOS/queue.c ****         if( xTaskCheckForTimeOut( &xTimeOut, &xTicksToWait ) == pdFALSE )
 1672              	 .loc 1 939 0 is_stmt 1 discriminator 6
 1673 01be 07F11002 	 add r2,r7,#16
 1674 01c2 3B1D     	 adds r3,r7,#4
 1675 01c4 1046     	 mov r0,r2
 1676 01c6 1946     	 mov r1,r3
 1677 01c8 FFF7FEFF 	 bl xTaskCheckForTimeOut
 1678 01cc 0346     	 mov r3,r0
 1679 01ce 002B     	 cmp r3,#0
 1680 01d0 24D1     	 bne .L116
 940:../Dave/Generated/FREERTOS/queue.c ****         {
 941:../Dave/Generated/FREERTOS/queue.c ****             if( prvIsQueueFull( pxQueue ) != pdFALSE )
 1681              	 .loc 1 941 0
 1682 01d2 386B     	 ldr r0,[r7,#48]
 1683 01d4 FFF7FEFF 	 bl prvIsQueueFull
 1684 01d8 0346     	 mov r3,r0
 1685 01da 002B     	 cmp r3,#0
 1686 01dc 18D0     	 beq .L117
 942:../Dave/Generated/FREERTOS/queue.c ****             {
 943:../Dave/Generated/FREERTOS/queue.c ****                 traceBLOCKING_ON_QUEUE_SEND( pxQueue );
 944:../Dave/Generated/FREERTOS/queue.c ****                 vTaskPlaceOnEventList( &( pxQueue->xTasksWaitingToSend ), xTicksToWait );
 1687              	 .loc 1 944 0
 1688 01de 3B6B     	 ldr r3,[r7,#48]
 1689 01e0 03F11002 	 add r2,r3,#16
 1690 01e4 7B68     	 ldr r3,[r7,#4]
 1691 01e6 1046     	 mov r0,r2
 1692 01e8 1946     	 mov r1,r3
 1693 01ea FFF7FEFF 	 bl vTaskPlaceOnEventList
 945:../Dave/Generated/FREERTOS/queue.c **** 
 946:../Dave/Generated/FREERTOS/queue.c ****                 /* Unlocking the queue means queue events can effect the
 947:../Dave/Generated/FREERTOS/queue.c ****                  * event list.  It is possible that interrupts occurring now
 948:../Dave/Generated/FREERTOS/queue.c ****                  * remove this task from the event list again - but as the
 949:../Dave/Generated/FREERTOS/queue.c ****                  * scheduler is suspended the task will go onto the pending
 950:../Dave/Generated/FREERTOS/queue.c ****                  * ready last instead of the actual ready list. */
 951:../Dave/Generated/FREERTOS/queue.c ****                 prvUnlockQueue( pxQueue );
 1694              	 .loc 1 951 0
 1695 01ee 386B     	 ldr r0,[r7,#48]
 1696 01f0 FFF7FEFF 	 bl prvUnlockQueue
 952:../Dave/Generated/FREERTOS/queue.c **** 
 953:../Dave/Generated/FREERTOS/queue.c ****                 /* Resuming the scheduler will move tasks from the pending
 954:../Dave/Generated/FREERTOS/queue.c ****                  * ready list into the ready list - so it is feasible that this
 955:../Dave/Generated/FREERTOS/queue.c ****                  * task is already in a ready list before it yields - in which
 956:../Dave/Generated/FREERTOS/queue.c ****                  * case the yield will not cause a context switch unless there
 957:../Dave/Generated/FREERTOS/queue.c ****                  * is also a higher priority task in the pending ready list. */
 958:../Dave/Generated/FREERTOS/queue.c ****                 if( xTaskResumeAll() == pdFALSE )
 1697              	 .loc 1 958 0
 1698 01f4 FFF7FEFF 	 bl xTaskResumeAll
 1699 01f8 0346     	 mov r3,r0
 1700 01fa 002B     	 cmp r3,#0
 1701 01fc 15D1     	 bne .L120
 959:../Dave/Generated/FREERTOS/queue.c ****                 {
 960:../Dave/Generated/FREERTOS/queue.c ****                     portYIELD_WITHIN_API();
 1702              	 .loc 1 960 0
 1703 01fe 0D4B     	 ldr r3,.L122
 1704 0200 4FF08052 	 mov r2,#268435456
 1705 0204 1A60     	 str r2,[r3]
 1706              	
 1707 0206 BFF34F8F 	 dsb
 1708              	
 1709              	
 1710 020a BFF36F8F 	 isb
 1711              	
 1712              	 .thumb
 1713 020e 0CE0     	 b .L120
 1714              	.L117:
 961:../Dave/Generated/FREERTOS/queue.c ****                 }
 962:../Dave/Generated/FREERTOS/queue.c ****             }
 963:../Dave/Generated/FREERTOS/queue.c ****             else
 964:../Dave/Generated/FREERTOS/queue.c ****             {
 965:../Dave/Generated/FREERTOS/queue.c ****                 /* Try again. */
 966:../Dave/Generated/FREERTOS/queue.c ****                 prvUnlockQueue( pxQueue );
 1715              	 .loc 1 966 0
 1716 0210 386B     	 ldr r0,[r7,#48]
 1717 0212 FFF7FEFF 	 bl prvUnlockQueue
 967:../Dave/Generated/FREERTOS/queue.c ****                 ( void ) xTaskResumeAll();
 1718              	 .loc 1 967 0
 1719 0216 FFF7FEFF 	 bl xTaskResumeAll
 1720 021a 4CE7     	 b .L102
 1721              	.L116:
 968:../Dave/Generated/FREERTOS/queue.c ****             }
 969:../Dave/Generated/FREERTOS/queue.c ****         }
 970:../Dave/Generated/FREERTOS/queue.c ****         else
 971:../Dave/Generated/FREERTOS/queue.c ****         {
 972:../Dave/Generated/FREERTOS/queue.c ****             /* The timeout has expired. */
 973:../Dave/Generated/FREERTOS/queue.c ****             prvUnlockQueue( pxQueue );
 1722              	 .loc 1 973 0
 1723 021c 386B     	 ldr r0,[r7,#48]
 1724 021e FFF7FEFF 	 bl prvUnlockQueue
 974:../Dave/Generated/FREERTOS/queue.c ****             ( void ) xTaskResumeAll();
 1725              	 .loc 1 974 0
 1726 0222 FFF7FEFF 	 bl xTaskResumeAll
 975:../Dave/Generated/FREERTOS/queue.c **** 
 976:../Dave/Generated/FREERTOS/queue.c ****             traceQUEUE_SEND_FAILED( pxQueue );
 977:../Dave/Generated/FREERTOS/queue.c ****             return errQUEUE_FULL;
 1727              	 .loc 1 977 0
 1728 0226 0023     	 movs r3,#0
 1729 0228 00E0     	 b .L121
 1730              	.L120:
 978:../Dave/Generated/FREERTOS/queue.c ****         }
 979:../Dave/Generated/FREERTOS/queue.c ****     } /*lint -restore */
 1731              	 .loc 1 979 0 discriminator 7
 1732 022a 44E7     	 b .L102
 1733              	.L121:
 980:../Dave/Generated/FREERTOS/queue.c **** }
 1734              	 .loc 1 980 0 discriminator 8
 1735 022c 1846     	 mov r0,r3
 1736 022e 3837     	 adds r7,r7,#56
 1737              	.LCFI69:
 1738              	 .cfi_def_cfa_offset 8
 1739 0230 BD46     	 mov sp,r7
 1740              	.LCFI70:
 1741              	 .cfi_def_cfa_register 13
 1742              	 
 1743 0232 80BD     	 pop {r7,pc}
 1744              	.L123:
 1745              	 .align 2
 1746              	.L122:
 1747 0234 04ED00E0 	 .word -536810236
 1748              	 .cfi_endproc
 1749              	.LFE150:
 1751              	 .section .text.xQueueGenericSendFromISR,"ax",%progbits
 1752              	 .align 2
 1753              	 .global xQueueGenericSendFromISR
 1754              	 .thumb
 1755              	 .thumb_func
 1757              	xQueueGenericSendFromISR:
 1758              	.LFB151:
 981:../Dave/Generated/FREERTOS/queue.c **** /*-----------------------------------------------------------*/
 982:../Dave/Generated/FREERTOS/queue.c **** 
 983:../Dave/Generated/FREERTOS/queue.c **** BaseType_t xQueueGenericSendFromISR( QueueHandle_t xQueue,
 984:../Dave/Generated/FREERTOS/queue.c ****                                      const void * const pvItemToQueue,
 985:../Dave/Generated/FREERTOS/queue.c ****                                      BaseType_t * const pxHigherPriorityTaskWoken,
 986:../Dave/Generated/FREERTOS/queue.c ****                                      const BaseType_t xCopyPosition )
 987:../Dave/Generated/FREERTOS/queue.c **** {
 1759              	 .loc 1 987 0
 1760              	 .cfi_startproc
 1761              	 
 1762              	 
 1763 0000 80B5     	 push {r7,lr}
 1764              	.LCFI71:
 1765              	 .cfi_def_cfa_offset 8
 1766              	 .cfi_offset 7,-8
 1767              	 .cfi_offset 14,-4
 1768 0002 90B0     	 sub sp,sp,#64
 1769              	.LCFI72:
 1770              	 .cfi_def_cfa_offset 72
 1771 0004 00AF     	 add r7,sp,#0
 1772              	.LCFI73:
 1773              	 .cfi_def_cfa_register 7
 1774 0006 F860     	 str r0,[r7,#12]
 1775 0008 B960     	 str r1,[r7,#8]
 1776 000a 7A60     	 str r2,[r7,#4]
 1777 000c 3B60     	 str r3,[r7]
 988:../Dave/Generated/FREERTOS/queue.c ****     BaseType_t xReturn;
 989:../Dave/Generated/FREERTOS/queue.c ****     UBaseType_t uxSavedInterruptStatus;
 990:../Dave/Generated/FREERTOS/queue.c ****     Queue_t * const pxQueue = xQueue;
 1778              	 .loc 1 990 0
 1779 000e FB68     	 ldr r3,[r7,#12]
 1780 0010 BB63     	 str r3,[r7,#56]
 991:../Dave/Generated/FREERTOS/queue.c **** 
 992:../Dave/Generated/FREERTOS/queue.c ****     configASSERT( pxQueue );
 1781              	 .loc 1 992 0
 1782 0012 BB6B     	 ldr r3,[r7,#56]
 1783 0014 002B     	 cmp r3,#0
 1784 0016 09D1     	 bne .L125
 1785              	.LBB178:
 1786              	.LBB179:
 1787              	 .loc 2 197 0 discriminator 1
 1788              	
 1789 0018 4FF0FC03 	 mov r3,#252
 1790 001c 83F31188 	 msr basepri,r3
 1791 0020 BFF36F8F 	 isb 
 1792 0024 BFF34F8F 	 dsb 
 1793              	
 1794              	
 1795              	 .thumb
 1796 0028 BB62     	 str r3,[r7,#40]
 1797              	.L126:
 1798              	.LBE179:
 1799              	.LBE178:
 1800              	 .loc 1 992 0 discriminator 1
 1801 002a FEE7     	 b .L126
 1802              	.L125:
 993:../Dave/Generated/FREERTOS/queue.c ****     configASSERT( !( ( pvItemToQueue == NULL ) && ( pxQueue->uxItemSize != ( UBaseType_t ) 0U ) ) )
 1803              	 .loc 1 993 0
 1804 002c BB68     	 ldr r3,[r7,#8]
 1805 002e 002B     	 cmp r3,#0
 1806 0030 03D1     	 bne .L127
 1807              	 .loc 1 993 0 is_stmt 0 discriminator 2
 1808 0032 BB6B     	 ldr r3,[r7,#56]
 1809 0034 1B6C     	 ldr r3,[r3,#64]
 1810 0036 002B     	 cmp r3,#0
 1811 0038 01D1     	 bne .L128
 1812              	.L127:
 1813              	 .loc 1 993 0 discriminator 3
 1814 003a 0123     	 movs r3,#1
 1815 003c 00E0     	 b .L129
 1816              	.L128:
 1817              	 .loc 1 993 0 discriminator 4
 1818 003e 0023     	 movs r3,#0
 1819              	.L129:
 1820              	 .loc 1 993 0 discriminator 6
 1821 0040 002B     	 cmp r3,#0
 1822 0042 09D1     	 bne .L130
 1823              	.LBB180:
 1824              	.LBB181:
 1825              	 .loc 2 197 0 is_stmt 1 discriminator 7
 1826              	
 1827 0044 4FF0FC03 	 mov r3,#252
 1828 0048 83F31188 	 msr basepri,r3
 1829 004c BFF36F8F 	 isb 
 1830 0050 BFF34F8F 	 dsb 
 1831              	
 1832              	
 1833              	 .thumb
 1834 0054 7B62     	 str r3,[r7,#36]
 1835              	.L131:
 1836              	.LBE181:
 1837              	.LBE180:
 1838              	 .loc 1 993 0 discriminator 2
 1839 0056 FEE7     	 b .L131
 1840              	.L130:
 994:../Dave/Generated/FREERTOS/queue.c ****     configASSERT( !( ( xCopyPosition == queueOVERWRITE ) && ( pxQueue->uxLength != 1 ) ) );
 1841              	 .loc 1 994 0
 1842 0058 3B68     	 ldr r3,[r7]
 1843 005a 022B     	 cmp r3,#2
 1844 005c 03D1     	 bne .L132
 1845              	 .loc 1 994 0 is_stmt 0 discriminator 2
 1846 005e BB6B     	 ldr r3,[r7,#56]
 1847 0060 DB6B     	 ldr r3,[r3,#60]
 1848 0062 012B     	 cmp r3,#1
 1849 0064 01D1     	 bne .L133
 1850              	.L132:
 1851              	 .loc 1 994 0 discriminator 3
 1852 0066 0123     	 movs r3,#1
 1853 0068 00E0     	 b .L134
 1854              	.L133:
 1855              	 .loc 1 994 0 discriminator 4
 1856 006a 0023     	 movs r3,#0
 1857              	.L134:
 1858              	 .loc 1 994 0 discriminator 6
 1859 006c 002B     	 cmp r3,#0
 1860 006e 09D1     	 bne .L135
 1861              	.LBB182:
 1862              	.LBB183:
 1863              	 .loc 2 197 0 is_stmt 1 discriminator 7
 1864              	
 1865 0070 4FF0FC03 	 mov r3,#252
 1866 0074 83F31188 	 msr basepri,r3
 1867 0078 BFF36F8F 	 isb 
 1868 007c BFF34F8F 	 dsb 
 1869              	
 1870              	
 1871              	 .thumb
 1872 0080 3B62     	 str r3,[r7,#32]
 1873              	.L136:
 1874              	.LBE183:
 1875              	.LBE182:
 1876              	 .loc 1 994 0 discriminator 3
 1877 0082 FEE7     	 b .L136
 1878              	.L135:
 995:../Dave/Generated/FREERTOS/queue.c **** 
 996:../Dave/Generated/FREERTOS/queue.c ****     /* RTOS ports that support interrupt nesting have the concept of a maximum
 997:../Dave/Generated/FREERTOS/queue.c ****      * system call (or maximum API call) interrupt priority.  Interrupts that are
 998:../Dave/Generated/FREERTOS/queue.c ****      * above the maximum system call priority are kept permanently enabled, even
 999:../Dave/Generated/FREERTOS/queue.c ****      * when the RTOS kernel is in a critical section, but cannot make any calls to
1000:../Dave/Generated/FREERTOS/queue.c ****      * FreeRTOS API functions.  If configASSERT() is defined in FreeRTOSConfig.h
1001:../Dave/Generated/FREERTOS/queue.c ****      * then portASSERT_IF_INTERRUPT_PRIORITY_INVALID() will result in an assertion
1002:../Dave/Generated/FREERTOS/queue.c ****      * failure if a FreeRTOS API function is called from an interrupt that has been
1003:../Dave/Generated/FREERTOS/queue.c ****      * assigned a priority above the configured maximum system call priority.
1004:../Dave/Generated/FREERTOS/queue.c ****      * Only FreeRTOS functions that end in FromISR can be called from interrupts
1005:../Dave/Generated/FREERTOS/queue.c ****      * that have been assigned a priority at or (logically) below the maximum
1006:../Dave/Generated/FREERTOS/queue.c ****      * system call interrupt priority.  FreeRTOS maintains a separate interrupt
1007:../Dave/Generated/FREERTOS/queue.c ****      * safe API to ensure interrupt entry is as fast and as simple as possible.
1008:../Dave/Generated/FREERTOS/queue.c ****      * More information (albeit Cortex-M specific) is provided on the following
1009:../Dave/Generated/FREERTOS/queue.c ****      * link: https://www.FreeRTOS.org/RTOS-Cortex-M3-M4.html */
1010:../Dave/Generated/FREERTOS/queue.c ****     portASSERT_IF_INTERRUPT_PRIORITY_INVALID();
 1879              	 .loc 1 1010 0
 1880 0084 FFF7FEFF 	 bl vPortValidateInterruptPriority
 1881              	.LBB184:
 1882              	.LBB185:
 198:C:/Infineon/Tools/DAVE IDE/4.5.0.202105191637/eclipse/workspace/xmc4800-CE/Dave/Generated/FREERTOS/portable/GCC\portmacro.h ****         (
 199:C:/Infineon/Tools/DAVE IDE/4.5.0.202105191637/eclipse/workspace/xmc4800-CE/Dave/Generated/FREERTOS/portable/GCC\portmacro.h ****             "	mov %0, %1												\n"\
 200:C:/Infineon/Tools/DAVE IDE/4.5.0.202105191637/eclipse/workspace/xmc4800-CE/Dave/Generated/FREERTOS/portable/GCC\portmacro.h ****             "	msr basepri, %0											\n"\
 201:C:/Infineon/Tools/DAVE IDE/4.5.0.202105191637/eclipse/workspace/xmc4800-CE/Dave/Generated/FREERTOS/portable/GCC\portmacro.h ****             "	isb														\n"\
 202:C:/Infineon/Tools/DAVE IDE/4.5.0.202105191637/eclipse/workspace/xmc4800-CE/Dave/Generated/FREERTOS/portable/GCC\portmacro.h ****             "	dsb														\n"\
 203:C:/Infineon/Tools/DAVE IDE/4.5.0.202105191637/eclipse/workspace/xmc4800-CE/Dave/Generated/FREERTOS/portable/GCC\portmacro.h ****             : "=r" ( ulNewBASEPRI ) : "i" ( configMAX_SYSCALL_INTERRUPT_PRIORITY ) : "memory"
 204:C:/Infineon/Tools/DAVE IDE/4.5.0.202105191637/eclipse/workspace/xmc4800-CE/Dave/Generated/FREERTOS/portable/GCC\portmacro.h ****         );
 205:C:/Infineon/Tools/DAVE IDE/4.5.0.202105191637/eclipse/workspace/xmc4800-CE/Dave/Generated/FREERTOS/portable/GCC\portmacro.h ****     }
 206:C:/Infineon/Tools/DAVE IDE/4.5.0.202105191637/eclipse/workspace/xmc4800-CE/Dave/Generated/FREERTOS/portable/GCC\portmacro.h **** 
 207:C:/Infineon/Tools/DAVE IDE/4.5.0.202105191637/eclipse/workspace/xmc4800-CE/Dave/Generated/FREERTOS/portable/GCC\portmacro.h **** /*-----------------------------------------------------------*/
 208:C:/Infineon/Tools/DAVE IDE/4.5.0.202105191637/eclipse/workspace/xmc4800-CE/Dave/Generated/FREERTOS/portable/GCC\portmacro.h **** 
 209:C:/Infineon/Tools/DAVE IDE/4.5.0.202105191637/eclipse/workspace/xmc4800-CE/Dave/Generated/FREERTOS/portable/GCC\portmacro.h ****     portFORCE_INLINE static uint32_t ulPortRaiseBASEPRI( void )
 210:C:/Infineon/Tools/DAVE IDE/4.5.0.202105191637/eclipse/workspace/xmc4800-CE/Dave/Generated/FREERTOS/portable/GCC\portmacro.h ****     {
 211:C:/Infineon/Tools/DAVE IDE/4.5.0.202105191637/eclipse/workspace/xmc4800-CE/Dave/Generated/FREERTOS/portable/GCC\portmacro.h ****         uint32_t ulOriginalBASEPRI, ulNewBASEPRI;
 212:C:/Infineon/Tools/DAVE IDE/4.5.0.202105191637/eclipse/workspace/xmc4800-CE/Dave/Generated/FREERTOS/portable/GCC\portmacro.h **** 
 213:C:/Infineon/Tools/DAVE IDE/4.5.0.202105191637/eclipse/workspace/xmc4800-CE/Dave/Generated/FREERTOS/portable/GCC\portmacro.h ****         __asm volatile
 1883              	 .loc 2 213 0
 1884              	
 1885 0088 EFF31182 	 mrs r2,basepri
 1886 008c 4FF0FC03 	 mov r3,#252
 1887 0090 83F31188 	 msr basepri,r3
 1888 0094 BFF36F8F 	 isb 
 1889 0098 BFF34F8F 	 dsb 
 1890              	
 1891              	
 1892              	 .thumb
 1893 009c FA61     	 str r2,[r7,#28]
 1894 009e BB61     	 str r3,[r7,#24]
 214:C:/Infineon/Tools/DAVE IDE/4.5.0.202105191637/eclipse/workspace/xmc4800-CE/Dave/Generated/FREERTOS/portable/GCC\portmacro.h ****         (
 215:C:/Infineon/Tools/DAVE IDE/4.5.0.202105191637/eclipse/workspace/xmc4800-CE/Dave/Generated/FREERTOS/portable/GCC\portmacro.h ****             "	mrs %0, basepri											\n"\
 216:C:/Infineon/Tools/DAVE IDE/4.5.0.202105191637/eclipse/workspace/xmc4800-CE/Dave/Generated/FREERTOS/portable/GCC\portmacro.h ****             "	mov %1, %2												\n"\
 217:C:/Infineon/Tools/DAVE IDE/4.5.0.202105191637/eclipse/workspace/xmc4800-CE/Dave/Generated/FREERTOS/portable/GCC\portmacro.h ****             "	msr basepri, %1											\n"\
 218:C:/Infineon/Tools/DAVE IDE/4.5.0.202105191637/eclipse/workspace/xmc4800-CE/Dave/Generated/FREERTOS/portable/GCC\portmacro.h ****             "	isb														\n"\
 219:C:/Infineon/Tools/DAVE IDE/4.5.0.202105191637/eclipse/workspace/xmc4800-CE/Dave/Generated/FREERTOS/portable/GCC\portmacro.h ****             "	dsb														\n"\
 220:C:/Infineon/Tools/DAVE IDE/4.5.0.202105191637/eclipse/workspace/xmc4800-CE/Dave/Generated/FREERTOS/portable/GCC\portmacro.h ****             : "=r" ( ulOriginalBASEPRI ), "=r" ( ulNewBASEPRI ) : "i" ( configMAX_SYSCALL_INTERRUPT
 221:C:/Infineon/Tools/DAVE IDE/4.5.0.202105191637/eclipse/workspace/xmc4800-CE/Dave/Generated/FREERTOS/portable/GCC\portmacro.h ****         );
 222:C:/Infineon/Tools/DAVE IDE/4.5.0.202105191637/eclipse/workspace/xmc4800-CE/Dave/Generated/FREERTOS/portable/GCC\portmacro.h **** 
 223:C:/Infineon/Tools/DAVE IDE/4.5.0.202105191637/eclipse/workspace/xmc4800-CE/Dave/Generated/FREERTOS/portable/GCC\portmacro.h ****         /* This return will not be reached but is necessary to prevent compiler
 224:C:/Infineon/Tools/DAVE IDE/4.5.0.202105191637/eclipse/workspace/xmc4800-CE/Dave/Generated/FREERTOS/portable/GCC\portmacro.h ****          * warnings. */
 225:C:/Infineon/Tools/DAVE IDE/4.5.0.202105191637/eclipse/workspace/xmc4800-CE/Dave/Generated/FREERTOS/portable/GCC\portmacro.h ****         return ulOriginalBASEPRI;
 1895              	 .loc 2 225 0
 1896 00a0 FB69     	 ldr r3,[r7,#28]
 1897              	.LBE185:
 1898              	.LBE184:
1011:../Dave/Generated/FREERTOS/queue.c **** 
1012:../Dave/Generated/FREERTOS/queue.c ****     /* Similar to xQueueGenericSend, except without blocking if there is no room
1013:../Dave/Generated/FREERTOS/queue.c ****      * in the queue.  Also don't directly wake a task that was blocked on a queue
1014:../Dave/Generated/FREERTOS/queue.c ****      * read, instead return a flag to say whether a context switch is required or
1015:../Dave/Generated/FREERTOS/queue.c ****      * not (i.e. has a task with a higher priority than us been woken by this
1016:../Dave/Generated/FREERTOS/queue.c ****      * post). */
1017:../Dave/Generated/FREERTOS/queue.c ****     uxSavedInterruptStatus = portSET_INTERRUPT_MASK_FROM_ISR();
 1899              	 .loc 1 1017 0
 1900 00a2 7B63     	 str r3,[r7,#52]
1018:../Dave/Generated/FREERTOS/queue.c ****     {
1019:../Dave/Generated/FREERTOS/queue.c ****         if( ( pxQueue->uxMessagesWaiting < pxQueue->uxLength ) || ( xCopyPosition == queueOVERWRITE
 1901              	 .loc 1 1019 0
 1902 00a4 BB6B     	 ldr r3,[r7,#56]
 1903 00a6 9A6B     	 ldr r2,[r3,#56]
 1904 00a8 BB6B     	 ldr r3,[r7,#56]
 1905 00aa DB6B     	 ldr r3,[r3,#60]
 1906 00ac 9A42     	 cmp r2,r3
 1907 00ae 02D3     	 bcc .L138
 1908              	 .loc 1 1019 0 is_stmt 0 discriminator 1
 1909 00b0 3B68     	 ldr r3,[r7]
 1910 00b2 022B     	 cmp r3,#2
 1911 00b4 56D1     	 bne .L139
 1912              	.L138:
 1913              	.LBB186:
1020:../Dave/Generated/FREERTOS/queue.c ****         {
1021:../Dave/Generated/FREERTOS/queue.c ****             const int8_t cTxLock = pxQueue->cTxLock;
 1914              	 .loc 1 1021 0 is_stmt 1
 1915 00b6 BB6B     	 ldr r3,[r7,#56]
 1916 00b8 93F84530 	 ldrb r3,[r3,#69]
 1917 00bc 87F83330 	 strb r3,[r7,#51]
1022:../Dave/Generated/FREERTOS/queue.c ****             const UBaseType_t uxPreviousMessagesWaiting = pxQueue->uxMessagesWaiting;
 1918              	 .loc 1 1022 0
 1919 00c0 BB6B     	 ldr r3,[r7,#56]
 1920 00c2 9B6B     	 ldr r3,[r3,#56]
 1921 00c4 FB62     	 str r3,[r7,#44]
1023:../Dave/Generated/FREERTOS/queue.c **** 
1024:../Dave/Generated/FREERTOS/queue.c ****             traceQUEUE_SEND_FROM_ISR( pxQueue );
1025:../Dave/Generated/FREERTOS/queue.c **** 
1026:../Dave/Generated/FREERTOS/queue.c ****             /* Semaphores use xQueueGiveFromISR(), so pxQueue will not be a
1027:../Dave/Generated/FREERTOS/queue.c ****              *  semaphore or mutex.  That means prvCopyDataToQueue() cannot result
1028:../Dave/Generated/FREERTOS/queue.c ****              *  in a task disinheriting a priority and prvCopyDataToQueue() can be
1029:../Dave/Generated/FREERTOS/queue.c ****              *  called here even though the disinherit function does not check if
1030:../Dave/Generated/FREERTOS/queue.c ****              *  the scheduler is suspended before accessing the ready lists. */
1031:../Dave/Generated/FREERTOS/queue.c ****             ( void ) prvCopyDataToQueue( pxQueue, pvItemToQueue, xCopyPosition );
 1922              	 .loc 1 1031 0
 1923 00c6 B86B     	 ldr r0,[r7,#56]
 1924 00c8 B968     	 ldr r1,[r7,#8]
 1925 00ca 3A68     	 ldr r2,[r7]
 1926 00cc FFF7FEFF 	 bl prvCopyDataToQueue
1032:../Dave/Generated/FREERTOS/queue.c **** 
1033:../Dave/Generated/FREERTOS/queue.c ****             /* The event list is not altered if the queue is locked.  This will
1034:../Dave/Generated/FREERTOS/queue.c ****              * be done when the queue is unlocked later. */
1035:../Dave/Generated/FREERTOS/queue.c ****             if( cTxLock == queueUNLOCKED )
 1927              	 .loc 1 1035 0
 1928 00d0 97F93330 	 ldrsb r3,[r7,#51]
 1929 00d4 B3F1FF3F 	 cmp r3,#-1
 1930 00d8 2BD1     	 bne .L140
1036:../Dave/Generated/FREERTOS/queue.c ****             {
1037:../Dave/Generated/FREERTOS/queue.c ****                 #if ( configUSE_QUEUE_SETS == 1 )
1038:../Dave/Generated/FREERTOS/queue.c ****                     {
1039:../Dave/Generated/FREERTOS/queue.c ****                         if( pxQueue->pxQueueSetContainer != NULL )
 1931              	 .loc 1 1039 0
 1932 00da BB6B     	 ldr r3,[r7,#56]
 1933 00dc 9B6C     	 ldr r3,[r3,#72]
 1934 00de 002B     	 cmp r3,#0
 1935 00e0 14D0     	 beq .L141
1040:../Dave/Generated/FREERTOS/queue.c ****                         {
1041:../Dave/Generated/FREERTOS/queue.c ****                             if( ( xCopyPosition == queueOVERWRITE ) && ( uxPreviousMessagesWaiting 
 1936              	 .loc 1 1041 0
 1937 00e2 3B68     	 ldr r3,[r7]
 1938 00e4 022B     	 cmp r3,#2
 1939 00e6 04D1     	 bne .L142
 1940              	 .loc 1 1041 0 is_stmt 0 discriminator 1
 1941 00e8 FB6A     	 ldr r3,[r7,#44]
 1942 00ea 002B     	 cmp r3,#0
 1943 00ec 01D0     	 beq .L142
 1944              	 .loc 1 1041 0
 1945 00ee 00BF     	 nop
 1946 00f0 35E0     	 b .L144
 1947              	.L142:
1042:../Dave/Generated/FREERTOS/queue.c ****                             {
1043:../Dave/Generated/FREERTOS/queue.c ****                                 /* Do not notify the queue set as an existing item
1044:../Dave/Generated/FREERTOS/queue.c ****                                  * was overwritten in the queue so the number of items
1045:../Dave/Generated/FREERTOS/queue.c ****                                  * in the queue has not changed. */
1046:../Dave/Generated/FREERTOS/queue.c ****                                 mtCOVERAGE_TEST_MARKER();
1047:../Dave/Generated/FREERTOS/queue.c ****                             }
1048:../Dave/Generated/FREERTOS/queue.c ****                             else if( prvNotifyQueueSetContainer( pxQueue ) != pdFALSE )
 1948              	 .loc 1 1048 0 is_stmt 1
 1949 00f2 B86B     	 ldr r0,[r7,#56]
 1950 00f4 FFF7FEFF 	 bl prvNotifyQueueSetContainer
 1951 00f8 0346     	 mov r3,r0
 1952 00fa 002B     	 cmp r3,#0
 1953 00fc 2FD0     	 beq .L144
1049:../Dave/Generated/FREERTOS/queue.c ****                             {
1050:../Dave/Generated/FREERTOS/queue.c ****                                 /* The queue is a member of a queue set, and posting
1051:../Dave/Generated/FREERTOS/queue.c ****                                  * to the queue set caused a higher priority task to
1052:../Dave/Generated/FREERTOS/queue.c ****                                  * unblock.  A context switch is required. */
1053:../Dave/Generated/FREERTOS/queue.c ****                                 if( pxHigherPriorityTaskWoken != NULL )
 1954              	 .loc 1 1053 0
 1955 00fe 7B68     	 ldr r3,[r7,#4]
 1956 0100 002B     	 cmp r3,#0
 1957 0102 2CD0     	 beq .L144
1054:../Dave/Generated/FREERTOS/queue.c ****                                 {
1055:../Dave/Generated/FREERTOS/queue.c ****                                     *pxHigherPriorityTaskWoken = pdTRUE;
 1958              	 .loc 1 1055 0
 1959 0104 7B68     	 ldr r3,[r7,#4]
 1960 0106 0122     	 movs r2,#1
 1961 0108 1A60     	 str r2,[r3]
 1962 010a 28E0     	 b .L144
 1963              	.L141:
1056:../Dave/Generated/FREERTOS/queue.c ****                                 }
1057:../Dave/Generated/FREERTOS/queue.c ****                                 else
1058:../Dave/Generated/FREERTOS/queue.c ****                                 {
1059:../Dave/Generated/FREERTOS/queue.c ****                                     mtCOVERAGE_TEST_MARKER();
1060:../Dave/Generated/FREERTOS/queue.c ****                                 }
1061:../Dave/Generated/FREERTOS/queue.c ****                             }
1062:../Dave/Generated/FREERTOS/queue.c ****                             else
1063:../Dave/Generated/FREERTOS/queue.c ****                             {
1064:../Dave/Generated/FREERTOS/queue.c ****                                 mtCOVERAGE_TEST_MARKER();
1065:../Dave/Generated/FREERTOS/queue.c ****                             }
1066:../Dave/Generated/FREERTOS/queue.c ****                         }
1067:../Dave/Generated/FREERTOS/queue.c ****                         else
1068:../Dave/Generated/FREERTOS/queue.c ****                         {
1069:../Dave/Generated/FREERTOS/queue.c ****                             if( listLIST_IS_EMPTY( &( pxQueue->xTasksWaitingToReceive ) ) == pdFALS
 1964              	 .loc 1 1069 0
 1965 010c BB6B     	 ldr r3,[r7,#56]
 1966 010e 5B6A     	 ldr r3,[r3,#36]
 1967 0110 002B     	 cmp r3,#0
 1968 0112 24D0     	 beq .L144
1070:../Dave/Generated/FREERTOS/queue.c ****                             {
1071:../Dave/Generated/FREERTOS/queue.c ****                                 if( xTaskRemoveFromEventList( &( pxQueue->xTasksWaitingToReceive ) 
 1969              	 .loc 1 1071 0
 1970 0114 BB6B     	 ldr r3,[r7,#56]
 1971 0116 2433     	 adds r3,r3,#36
 1972 0118 1846     	 mov r0,r3
 1973 011a FFF7FEFF 	 bl xTaskRemoveFromEventList
 1974 011e 0346     	 mov r3,r0
 1975 0120 002B     	 cmp r3,#0
 1976 0122 1CD0     	 beq .L144
1072:../Dave/Generated/FREERTOS/queue.c ****                                 {
1073:../Dave/Generated/FREERTOS/queue.c ****                                     /* The task waiting has a higher priority so
1074:../Dave/Generated/FREERTOS/queue.c ****                                      *  record that a context switch is required. */
1075:../Dave/Generated/FREERTOS/queue.c ****                                     if( pxHigherPriorityTaskWoken != NULL )
 1977              	 .loc 1 1075 0
 1978 0124 7B68     	 ldr r3,[r7,#4]
 1979 0126 002B     	 cmp r3,#0
 1980 0128 19D0     	 beq .L144
1076:../Dave/Generated/FREERTOS/queue.c ****                                     {
1077:../Dave/Generated/FREERTOS/queue.c ****                                         *pxHigherPriorityTaskWoken = pdTRUE;
 1981              	 .loc 1 1077 0
 1982 012a 7B68     	 ldr r3,[r7,#4]
 1983 012c 0122     	 movs r2,#1
 1984 012e 1A60     	 str r2,[r3]
 1985 0130 15E0     	 b .L144
 1986              	.L140:
1078:../Dave/Generated/FREERTOS/queue.c ****                                     }
1079:../Dave/Generated/FREERTOS/queue.c ****                                     else
1080:../Dave/Generated/FREERTOS/queue.c ****                                     {
1081:../Dave/Generated/FREERTOS/queue.c ****                                         mtCOVERAGE_TEST_MARKER();
1082:../Dave/Generated/FREERTOS/queue.c ****                                     }
1083:../Dave/Generated/FREERTOS/queue.c ****                                 }
1084:../Dave/Generated/FREERTOS/queue.c ****                                 else
1085:../Dave/Generated/FREERTOS/queue.c ****                                 {
1086:../Dave/Generated/FREERTOS/queue.c ****                                     mtCOVERAGE_TEST_MARKER();
1087:../Dave/Generated/FREERTOS/queue.c ****                                 }
1088:../Dave/Generated/FREERTOS/queue.c ****                             }
1089:../Dave/Generated/FREERTOS/queue.c ****                             else
1090:../Dave/Generated/FREERTOS/queue.c ****                             {
1091:../Dave/Generated/FREERTOS/queue.c ****                                 mtCOVERAGE_TEST_MARKER();
1092:../Dave/Generated/FREERTOS/queue.c ****                             }
1093:../Dave/Generated/FREERTOS/queue.c ****                         }
1094:../Dave/Generated/FREERTOS/queue.c ****                     }
1095:../Dave/Generated/FREERTOS/queue.c ****                 #else /* configUSE_QUEUE_SETS */
1096:../Dave/Generated/FREERTOS/queue.c ****                     {
1097:../Dave/Generated/FREERTOS/queue.c ****                         if( listLIST_IS_EMPTY( &( pxQueue->xTasksWaitingToReceive ) ) == pdFALSE )
1098:../Dave/Generated/FREERTOS/queue.c ****                         {
1099:../Dave/Generated/FREERTOS/queue.c ****                             if( xTaskRemoveFromEventList( &( pxQueue->xTasksWaitingToReceive ) ) !=
1100:../Dave/Generated/FREERTOS/queue.c ****                             {
1101:../Dave/Generated/FREERTOS/queue.c ****                                 /* The task waiting has a higher priority so record that a
1102:../Dave/Generated/FREERTOS/queue.c ****                                  * context switch is required. */
1103:../Dave/Generated/FREERTOS/queue.c ****                                 if( pxHigherPriorityTaskWoken != NULL )
1104:../Dave/Generated/FREERTOS/queue.c ****                                 {
1105:../Dave/Generated/FREERTOS/queue.c ****                                     *pxHigherPriorityTaskWoken = pdTRUE;
1106:../Dave/Generated/FREERTOS/queue.c ****                                 }
1107:../Dave/Generated/FREERTOS/queue.c ****                                 else
1108:../Dave/Generated/FREERTOS/queue.c ****                                 {
1109:../Dave/Generated/FREERTOS/queue.c ****                                     mtCOVERAGE_TEST_MARKER();
1110:../Dave/Generated/FREERTOS/queue.c ****                                 }
1111:../Dave/Generated/FREERTOS/queue.c ****                             }
1112:../Dave/Generated/FREERTOS/queue.c ****                             else
1113:../Dave/Generated/FREERTOS/queue.c ****                             {
1114:../Dave/Generated/FREERTOS/queue.c ****                                 mtCOVERAGE_TEST_MARKER();
1115:../Dave/Generated/FREERTOS/queue.c ****                             }
1116:../Dave/Generated/FREERTOS/queue.c ****                         }
1117:../Dave/Generated/FREERTOS/queue.c ****                         else
1118:../Dave/Generated/FREERTOS/queue.c ****                         {
1119:../Dave/Generated/FREERTOS/queue.c ****                             mtCOVERAGE_TEST_MARKER();
1120:../Dave/Generated/FREERTOS/queue.c ****                         }
1121:../Dave/Generated/FREERTOS/queue.c **** 
1122:../Dave/Generated/FREERTOS/queue.c ****                         /* Not used in this path. */
1123:../Dave/Generated/FREERTOS/queue.c ****                         ( void ) uxPreviousMessagesWaiting;
1124:../Dave/Generated/FREERTOS/queue.c ****                     }
1125:../Dave/Generated/FREERTOS/queue.c ****                 #endif /* configUSE_QUEUE_SETS */
1126:../Dave/Generated/FREERTOS/queue.c ****             }
1127:../Dave/Generated/FREERTOS/queue.c ****             else
1128:../Dave/Generated/FREERTOS/queue.c ****             {
1129:../Dave/Generated/FREERTOS/queue.c ****                 /* Increment the lock count so the task that unlocks the queue
1130:../Dave/Generated/FREERTOS/queue.c ****                  * knows that data was posted while it was locked. */
1131:../Dave/Generated/FREERTOS/queue.c ****                 configASSERT( cTxLock != queueINT8_MAX );
 1987              	 .loc 1 1131 0
 1988 0132 97F93330 	 ldrsb r3,[r7,#51]
 1989 0136 7F2B     	 cmp r3,#127
 1990 0138 09D1     	 bne .L145
 1991              	.LBB187:
 1992              	.LBB188:
 197:C:/Infineon/Tools/DAVE IDE/4.5.0.202105191637/eclipse/workspace/xmc4800-CE/Dave/Generated/FREERTOS/portable/GCC\portmacro.h ****         (
 1993              	 .loc 2 197 0 discriminator 1
 1994              	
 1995 013a 4FF0FC03 	 mov r3,#252
 1996 013e 83F31188 	 msr basepri,r3
 1997 0142 BFF36F8F 	 isb 
 1998 0146 BFF34F8F 	 dsb 
 1999              	
 2000              	
 2001              	 .thumb
 2002 014a 7B61     	 str r3,[r7,#20]
 2003              	.L146:
 2004              	.LBE188:
 2005              	.LBE187:
 2006              	 .loc 1 1131 0 discriminator 9
 2007 014c FEE7     	 b .L146
 2008              	.L145:
1132:../Dave/Generated/FREERTOS/queue.c **** 
1133:../Dave/Generated/FREERTOS/queue.c ****                 pxQueue->cTxLock = ( int8_t ) ( cTxLock + 1 );
 2009              	 .loc 1 1133 0
 2010 014e 97F83330 	 ldrb r3,[r7,#51]
 2011 0152 0133     	 adds r3,r3,#1
 2012 0154 DBB2     	 uxtb r3,r3
 2013 0156 DAB2     	 uxtb r2,r3
 2014 0158 BB6B     	 ldr r3,[r7,#56]
 2015 015a 83F84520 	 strb r2,[r3,#69]
 2016              	.L144:
1134:../Dave/Generated/FREERTOS/queue.c ****             }
1135:../Dave/Generated/FREERTOS/queue.c **** 
1136:../Dave/Generated/FREERTOS/queue.c ****             xReturn = pdPASS;
 2017              	 .loc 1 1136 0
 2018 015e 0123     	 movs r3,#1
 2019 0160 FB63     	 str r3,[r7,#60]
 2020              	.LBE186:
1020:../Dave/Generated/FREERTOS/queue.c ****             const int8_t cTxLock = pxQueue->cTxLock;
 2021              	 .loc 1 1020 0
 2022 0162 01E0     	 b .L147
 2023              	.L139:
1137:../Dave/Generated/FREERTOS/queue.c ****         }
1138:../Dave/Generated/FREERTOS/queue.c ****         else
1139:../Dave/Generated/FREERTOS/queue.c ****         {
1140:../Dave/Generated/FREERTOS/queue.c ****             traceQUEUE_SEND_FROM_ISR_FAILED( pxQueue );
1141:../Dave/Generated/FREERTOS/queue.c ****             xReturn = errQUEUE_FULL;
 2024              	 .loc 1 1141 0
 2025 0164 0023     	 movs r3,#0
 2026 0166 FB63     	 str r3,[r7,#60]
 2027              	.L147:
 2028 0168 7B6B     	 ldr r3,[r7,#52]
 2029 016a 3B61     	 str r3,[r7,#16]
 2030              	.LBB189:
 2031              	.LBB190:
 226:C:/Infineon/Tools/DAVE IDE/4.5.0.202105191637/eclipse/workspace/xmc4800-CE/Dave/Generated/FREERTOS/portable/GCC\portmacro.h ****     }
 227:C:/Infineon/Tools/DAVE IDE/4.5.0.202105191637/eclipse/workspace/xmc4800-CE/Dave/Generated/FREERTOS/portable/GCC\portmacro.h **** /*-----------------------------------------------------------*/
 228:C:/Infineon/Tools/DAVE IDE/4.5.0.202105191637/eclipse/workspace/xmc4800-CE/Dave/Generated/FREERTOS/portable/GCC\portmacro.h **** 
 229:C:/Infineon/Tools/DAVE IDE/4.5.0.202105191637/eclipse/workspace/xmc4800-CE/Dave/Generated/FREERTOS/portable/GCC\portmacro.h ****     portFORCE_INLINE static void vPortSetBASEPRI( uint32_t ulNewMaskValue )
 230:C:/Infineon/Tools/DAVE IDE/4.5.0.202105191637/eclipse/workspace/xmc4800-CE/Dave/Generated/FREERTOS/portable/GCC\portmacro.h ****     {
 231:C:/Infineon/Tools/DAVE IDE/4.5.0.202105191637/eclipse/workspace/xmc4800-CE/Dave/Generated/FREERTOS/portable/GCC\portmacro.h ****         __asm volatile
 2032              	 .loc 2 231 0
 2033 016c 3B69     	 ldr r3,[r7,#16]
 2034              	
 2035 016e 83F31188 	 msr basepri,r3
 2036              	
 2037              	 .thumb
 2038              	.LBE190:
 2039              	.LBE189:
1142:../Dave/Generated/FREERTOS/queue.c ****         }
1143:../Dave/Generated/FREERTOS/queue.c ****     }
1144:../Dave/Generated/FREERTOS/queue.c ****     portCLEAR_INTERRUPT_MASK_FROM_ISR( uxSavedInterruptStatus );
1145:../Dave/Generated/FREERTOS/queue.c **** 
1146:../Dave/Generated/FREERTOS/queue.c ****     return xReturn;
 2040              	 .loc 1 1146 0
 2041 0172 FB6B     	 ldr r3,[r7,#60]
1147:../Dave/Generated/FREERTOS/queue.c **** }
 2042              	 .loc 1 1147 0
 2043 0174 1846     	 mov r0,r3
 2044 0176 4037     	 adds r7,r7,#64
 2045              	.LCFI74:
 2046              	 .cfi_def_cfa_offset 8
 2047 0178 BD46     	 mov sp,r7
 2048              	.LCFI75:
 2049              	 .cfi_def_cfa_register 13
 2050              	 
 2051 017a 80BD     	 pop {r7,pc}
 2052              	 .cfi_endproc
 2053              	.LFE151:
 2055              	 .section .text.xQueueGiveFromISR,"ax",%progbits
 2056              	 .align 2
 2057              	 .global xQueueGiveFromISR
 2058              	 .thumb
 2059              	 .thumb_func
 2061              	xQueueGiveFromISR:
 2062              	.LFB152:
1148:../Dave/Generated/FREERTOS/queue.c **** /*-----------------------------------------------------------*/
1149:../Dave/Generated/FREERTOS/queue.c **** 
1150:../Dave/Generated/FREERTOS/queue.c **** BaseType_t xQueueGiveFromISR( QueueHandle_t xQueue,
1151:../Dave/Generated/FREERTOS/queue.c ****                               BaseType_t * const pxHigherPriorityTaskWoken )
1152:../Dave/Generated/FREERTOS/queue.c **** {
 2063              	 .loc 1 1152 0
 2064              	 .cfi_startproc
 2065              	 
 2066              	 
 2067 0000 80B5     	 push {r7,lr}
 2068              	.LCFI76:
 2069              	 .cfi_def_cfa_offset 8
 2070              	 .cfi_offset 7,-8
 2071              	 .cfi_offset 14,-4
 2072 0002 8EB0     	 sub sp,sp,#56
 2073              	.LCFI77:
 2074              	 .cfi_def_cfa_offset 64
 2075 0004 00AF     	 add r7,sp,#0
 2076              	.LCFI78:
 2077              	 .cfi_def_cfa_register 7
 2078 0006 7860     	 str r0,[r7,#4]
 2079 0008 3960     	 str r1,[r7]
1153:../Dave/Generated/FREERTOS/queue.c ****     BaseType_t xReturn;
1154:../Dave/Generated/FREERTOS/queue.c ****     UBaseType_t uxSavedInterruptStatus;
1155:../Dave/Generated/FREERTOS/queue.c ****     Queue_t * const pxQueue = xQueue;
 2080              	 .loc 1 1155 0
 2081 000a 7B68     	 ldr r3,[r7,#4]
 2082 000c 3B63     	 str r3,[r7,#48]
1156:../Dave/Generated/FREERTOS/queue.c **** 
1157:../Dave/Generated/FREERTOS/queue.c ****     /* Similar to xQueueGenericSendFromISR() but used with semaphores where the
1158:../Dave/Generated/FREERTOS/queue.c ****      * item size is 0.  Don't directly wake a task that was blocked on a queue
1159:../Dave/Generated/FREERTOS/queue.c ****      * read, instead return a flag to say whether a context switch is required or
1160:../Dave/Generated/FREERTOS/queue.c ****      * not (i.e. has a task with a higher priority than us been woken by this
1161:../Dave/Generated/FREERTOS/queue.c ****      * post). */
1162:../Dave/Generated/FREERTOS/queue.c **** 
1163:../Dave/Generated/FREERTOS/queue.c ****     configASSERT( pxQueue );
 2083              	 .loc 1 1163 0
 2084 000e 3B6B     	 ldr r3,[r7,#48]
 2085 0010 002B     	 cmp r3,#0
 2086 0012 09D1     	 bne .L150
 2087              	.LBB191:
 2088              	.LBB192:
 197:C:/Infineon/Tools/DAVE IDE/4.5.0.202105191637/eclipse/workspace/xmc4800-CE/Dave/Generated/FREERTOS/portable/GCC\portmacro.h ****         (
 2089              	 .loc 2 197 0 discriminator 1
 2090              	
 2091 0014 4FF0FC03 	 mov r3,#252
 2092 0018 83F31188 	 msr basepri,r3
 2093 001c BFF36F8F 	 isb 
 2094 0020 BFF34F8F 	 dsb 
 2095              	
 2096              	
 2097              	 .thumb
 2098 0024 3B62     	 str r3,[r7,#32]
 2099              	.L151:
 2100              	.LBE192:
 2101              	.LBE191:
 2102              	 .loc 1 1163 0 discriminator 1
 2103 0026 FEE7     	 b .L151
 2104              	.L150:
1164:../Dave/Generated/FREERTOS/queue.c **** 
1165:../Dave/Generated/FREERTOS/queue.c ****     /* xQueueGenericSendFromISR() should be used instead of xQueueGiveFromISR()
1166:../Dave/Generated/FREERTOS/queue.c ****      * if the item size is not 0. */
1167:../Dave/Generated/FREERTOS/queue.c ****     configASSERT( pxQueue->uxItemSize == 0 );
 2105              	 .loc 1 1167 0
 2106 0028 3B6B     	 ldr r3,[r7,#48]
 2107 002a 1B6C     	 ldr r3,[r3,#64]
 2108 002c 002B     	 cmp r3,#0
 2109 002e 09D0     	 beq .L152
 2110              	.LBB193:
 2111              	.LBB194:
 197:C:/Infineon/Tools/DAVE IDE/4.5.0.202105191637/eclipse/workspace/xmc4800-CE/Dave/Generated/FREERTOS/portable/GCC\portmacro.h ****         (
 2112              	 .loc 2 197 0 discriminator 1
 2113              	
 2114 0030 4FF0FC03 	 mov r3,#252
 2115 0034 83F31188 	 msr basepri,r3
 2116 0038 BFF36F8F 	 isb 
 2117 003c BFF34F8F 	 dsb 
 2118              	
 2119              	
 2120              	 .thumb
 2121 0040 FB61     	 str r3,[r7,#28]
 2122              	.L153:
 2123              	.LBE194:
 2124              	.LBE193:
 2125              	 .loc 1 1167 0 discriminator 2
 2126 0042 FEE7     	 b .L153
 2127              	.L152:
1168:../Dave/Generated/FREERTOS/queue.c **** 
1169:../Dave/Generated/FREERTOS/queue.c ****     /* Normally a mutex would not be given from an interrupt, especially if
1170:../Dave/Generated/FREERTOS/queue.c ****      * there is a mutex holder, as priority inheritance makes no sense for an
1171:../Dave/Generated/FREERTOS/queue.c ****      * interrupts, only tasks. */
1172:../Dave/Generated/FREERTOS/queue.c ****     configASSERT( !( ( pxQueue->uxQueueType == queueQUEUE_IS_MUTEX ) && ( pxQueue->u.xSemaphore.xMu
 2128              	 .loc 1 1172 0
 2129 0044 3B6B     	 ldr r3,[r7,#48]
 2130 0046 1B68     	 ldr r3,[r3]
 2131 0048 002B     	 cmp r3,#0
 2132 004a 03D1     	 bne .L154
 2133              	 .loc 1 1172 0 is_stmt 0 discriminator 2
 2134 004c 3B6B     	 ldr r3,[r7,#48]
 2135 004e 9B68     	 ldr r3,[r3,#8]
 2136 0050 002B     	 cmp r3,#0
 2137 0052 01D1     	 bne .L155
 2138              	.L154:
 2139              	 .loc 1 1172 0 discriminator 3
 2140 0054 0123     	 movs r3,#1
 2141 0056 00E0     	 b .L156
 2142              	.L155:
 2143              	 .loc 1 1172 0 discriminator 4
 2144 0058 0023     	 movs r3,#0
 2145              	.L156:
 2146              	 .loc 1 1172 0 discriminator 6
 2147 005a 002B     	 cmp r3,#0
 2148 005c 09D1     	 bne .L157
 2149              	.LBB195:
 2150              	.LBB196:
 197:C:/Infineon/Tools/DAVE IDE/4.5.0.202105191637/eclipse/workspace/xmc4800-CE/Dave/Generated/FREERTOS/portable/GCC\portmacro.h ****         (
 2151              	 .loc 2 197 0 is_stmt 1 discriminator 7
 2152              	
 2153 005e 4FF0FC03 	 mov r3,#252
 2154 0062 83F31188 	 msr basepri,r3
 2155 0066 BFF36F8F 	 isb 
 2156 006a BFF34F8F 	 dsb 
 2157              	
 2158              	
 2159              	 .thumb
 2160 006e BB61     	 str r3,[r7,#24]
 2161              	.L158:
 2162              	.LBE196:
 2163              	.LBE195:
 2164              	 .loc 1 1172 0 discriminator 3
 2165 0070 FEE7     	 b .L158
 2166              	.L157:
1173:../Dave/Generated/FREERTOS/queue.c **** 
1174:../Dave/Generated/FREERTOS/queue.c ****     /* RTOS ports that support interrupt nesting have the concept of a maximum
1175:../Dave/Generated/FREERTOS/queue.c ****      * system call (or maximum API call) interrupt priority.  Interrupts that are
1176:../Dave/Generated/FREERTOS/queue.c ****      * above the maximum system call priority are kept permanently enabled, even
1177:../Dave/Generated/FREERTOS/queue.c ****      * when the RTOS kernel is in a critical section, but cannot make any calls to
1178:../Dave/Generated/FREERTOS/queue.c ****      * FreeRTOS API functions.  If configASSERT() is defined in FreeRTOSConfig.h
1179:../Dave/Generated/FREERTOS/queue.c ****      * then portASSERT_IF_INTERRUPT_PRIORITY_INVALID() will result in an assertion
1180:../Dave/Generated/FREERTOS/queue.c ****      * failure if a FreeRTOS API function is called from an interrupt that has been
1181:../Dave/Generated/FREERTOS/queue.c ****      * assigned a priority above the configured maximum system call priority.
1182:../Dave/Generated/FREERTOS/queue.c ****      * Only FreeRTOS functions that end in FromISR can be called from interrupts
1183:../Dave/Generated/FREERTOS/queue.c ****      * that have been assigned a priority at or (logically) below the maximum
1184:../Dave/Generated/FREERTOS/queue.c ****      * system call interrupt priority.  FreeRTOS maintains a separate interrupt
1185:../Dave/Generated/FREERTOS/queue.c ****      * safe API to ensure interrupt entry is as fast and as simple as possible.
1186:../Dave/Generated/FREERTOS/queue.c ****      * More information (albeit Cortex-M specific) is provided on the following
1187:../Dave/Generated/FREERTOS/queue.c ****      * link: https://www.FreeRTOS.org/RTOS-Cortex-M3-M4.html */
1188:../Dave/Generated/FREERTOS/queue.c ****     portASSERT_IF_INTERRUPT_PRIORITY_INVALID();
 2167              	 .loc 1 1188 0
 2168 0072 FFF7FEFF 	 bl vPortValidateInterruptPriority
 2169              	.LBB197:
 2170              	.LBB198:
 213:C:/Infineon/Tools/DAVE IDE/4.5.0.202105191637/eclipse/workspace/xmc4800-CE/Dave/Generated/FREERTOS/portable/GCC\portmacro.h ****         (
 2171              	 .loc 2 213 0
 2172              	
 2173 0076 EFF31182 	 mrs r2,basepri
 2174 007a 4FF0FC03 	 mov r3,#252
 2175 007e 83F31188 	 msr basepri,r3
 2176 0082 BFF36F8F 	 isb 
 2177 0086 BFF34F8F 	 dsb 
 2178              	
 2179              	
 2180              	 .thumb
 2181 008a 7A61     	 str r2,[r7,#20]
 2182 008c 3B61     	 str r3,[r7,#16]
 225:C:/Infineon/Tools/DAVE IDE/4.5.0.202105191637/eclipse/workspace/xmc4800-CE/Dave/Generated/FREERTOS/portable/GCC\portmacro.h ****     }
 2183              	 .loc 2 225 0
 2184 008e 7B69     	 ldr r3,[r7,#20]
 2185              	.LBE198:
 2186              	.LBE197:
1189:../Dave/Generated/FREERTOS/queue.c **** 
1190:../Dave/Generated/FREERTOS/queue.c ****     uxSavedInterruptStatus = portSET_INTERRUPT_MASK_FROM_ISR();
 2187              	 .loc 1 1190 0
 2188 0090 FB62     	 str r3,[r7,#44]
 2189              	.LBB199:
1191:../Dave/Generated/FREERTOS/queue.c ****     {
1192:../Dave/Generated/FREERTOS/queue.c ****         const UBaseType_t uxMessagesWaiting = pxQueue->uxMessagesWaiting;
 2190              	 .loc 1 1192 0
 2191 0092 3B6B     	 ldr r3,[r7,#48]
 2192 0094 9B6B     	 ldr r3,[r3,#56]
 2193 0096 BB62     	 str r3,[r7,#40]
1193:../Dave/Generated/FREERTOS/queue.c **** 
1194:../Dave/Generated/FREERTOS/queue.c ****         /* When the queue is used to implement a semaphore no data is ever
1195:../Dave/Generated/FREERTOS/queue.c ****          * moved through the queue but it is still valid to see if the queue 'has
1196:../Dave/Generated/FREERTOS/queue.c ****          * space'. */
1197:../Dave/Generated/FREERTOS/queue.c ****         if( uxMessagesWaiting < pxQueue->uxLength )
 2194              	 .loc 1 1197 0
 2195 0098 3B6B     	 ldr r3,[r7,#48]
 2196 009a DA6B     	 ldr r2,[r3,#60]
 2197 009c BB6A     	 ldr r3,[r7,#40]
 2198 009e 9A42     	 cmp r2,r3
 2199 00a0 4AD9     	 bls .L160
 2200              	.LBB200:
1198:../Dave/Generated/FREERTOS/queue.c ****         {
1199:../Dave/Generated/FREERTOS/queue.c ****             const int8_t cTxLock = pxQueue->cTxLock;
 2201              	 .loc 1 1199 0
 2202 00a2 3B6B     	 ldr r3,[r7,#48]
 2203 00a4 93F84530 	 ldrb r3,[r3,#69]
 2204 00a8 87F82730 	 strb r3,[r7,#39]
1200:../Dave/Generated/FREERTOS/queue.c **** 
1201:../Dave/Generated/FREERTOS/queue.c ****             traceQUEUE_SEND_FROM_ISR( pxQueue );
1202:../Dave/Generated/FREERTOS/queue.c **** 
1203:../Dave/Generated/FREERTOS/queue.c ****             /* A task can only have an inherited priority if it is a mutex
1204:../Dave/Generated/FREERTOS/queue.c ****              * holder - and if there is a mutex holder then the mutex cannot be
1205:../Dave/Generated/FREERTOS/queue.c ****              * given from an ISR.  As this is the ISR version of the function it
1206:../Dave/Generated/FREERTOS/queue.c ****              * can be assumed there is no mutex holder and no need to determine if
1207:../Dave/Generated/FREERTOS/queue.c ****              * priority disinheritance is needed.  Simply increase the count of
1208:../Dave/Generated/FREERTOS/queue.c ****              * messages (semaphores) available. */
1209:../Dave/Generated/FREERTOS/queue.c ****             pxQueue->uxMessagesWaiting = uxMessagesWaiting + ( UBaseType_t ) 1;
 2205              	 .loc 1 1209 0
 2206 00ac BB6A     	 ldr r3,[r7,#40]
 2207 00ae 5A1C     	 adds r2,r3,#1
 2208 00b0 3B6B     	 ldr r3,[r7,#48]
 2209 00b2 9A63     	 str r2,[r3,#56]
1210:../Dave/Generated/FREERTOS/queue.c **** 
1211:../Dave/Generated/FREERTOS/queue.c ****             /* The event list is not altered if the queue is locked.  This will
1212:../Dave/Generated/FREERTOS/queue.c ****              * be done when the queue is unlocked later. */
1213:../Dave/Generated/FREERTOS/queue.c ****             if( cTxLock == queueUNLOCKED )
 2210              	 .loc 1 1213 0
 2211 00b4 97F92730 	 ldrsb r3,[r7,#39]
 2212 00b8 B3F1FF3F 	 cmp r3,#-1
 2213 00bc 23D1     	 bne .L161
1214:../Dave/Generated/FREERTOS/queue.c ****             {
1215:../Dave/Generated/FREERTOS/queue.c ****                 #if ( configUSE_QUEUE_SETS == 1 )
1216:../Dave/Generated/FREERTOS/queue.c ****                     {
1217:../Dave/Generated/FREERTOS/queue.c ****                         if( pxQueue->pxQueueSetContainer != NULL )
 2214              	 .loc 1 1217 0
 2215 00be 3B6B     	 ldr r3,[r7,#48]
 2216 00c0 9B6C     	 ldr r3,[r3,#72]
 2217 00c2 002B     	 cmp r3,#0
 2218 00c4 0CD0     	 beq .L162
1218:../Dave/Generated/FREERTOS/queue.c ****                         {
1219:../Dave/Generated/FREERTOS/queue.c ****                             if( prvNotifyQueueSetContainer( pxQueue ) != pdFALSE )
 2219              	 .loc 1 1219 0
 2220 00c6 386B     	 ldr r0,[r7,#48]
 2221 00c8 FFF7FEFF 	 bl prvNotifyQueueSetContainer
 2222 00cc 0346     	 mov r3,r0
 2223 00ce 002B     	 cmp r3,#0
 2224 00d0 2FD0     	 beq .L163
1220:../Dave/Generated/FREERTOS/queue.c ****                             {
1221:../Dave/Generated/FREERTOS/queue.c ****                                 /* The semaphore is a member of a queue set, and
1222:../Dave/Generated/FREERTOS/queue.c ****                                  * posting to the queue set caused a higher priority
1223:../Dave/Generated/FREERTOS/queue.c ****                                  * task to unblock.  A context switch is required. */
1224:../Dave/Generated/FREERTOS/queue.c ****                                 if( pxHigherPriorityTaskWoken != NULL )
 2225              	 .loc 1 1224 0
 2226 00d2 3B68     	 ldr r3,[r7]
 2227 00d4 002B     	 cmp r3,#0
 2228 00d6 2CD0     	 beq .L163
1225:../Dave/Generated/FREERTOS/queue.c ****                                 {
1226:../Dave/Generated/FREERTOS/queue.c ****                                     *pxHigherPriorityTaskWoken = pdTRUE;
 2229              	 .loc 1 1226 0
 2230 00d8 3B68     	 ldr r3,[r7]
 2231 00da 0122     	 movs r2,#1
 2232 00dc 1A60     	 str r2,[r3]
 2233 00de 28E0     	 b .L163
 2234              	.L162:
1227:../Dave/Generated/FREERTOS/queue.c ****                                 }
1228:../Dave/Generated/FREERTOS/queue.c ****                                 else
1229:../Dave/Generated/FREERTOS/queue.c ****                                 {
1230:../Dave/Generated/FREERTOS/queue.c ****                                     mtCOVERAGE_TEST_MARKER();
1231:../Dave/Generated/FREERTOS/queue.c ****                                 }
1232:../Dave/Generated/FREERTOS/queue.c ****                             }
1233:../Dave/Generated/FREERTOS/queue.c ****                             else
1234:../Dave/Generated/FREERTOS/queue.c ****                             {
1235:../Dave/Generated/FREERTOS/queue.c ****                                 mtCOVERAGE_TEST_MARKER();
1236:../Dave/Generated/FREERTOS/queue.c ****                             }
1237:../Dave/Generated/FREERTOS/queue.c ****                         }
1238:../Dave/Generated/FREERTOS/queue.c ****                         else
1239:../Dave/Generated/FREERTOS/queue.c ****                         {
1240:../Dave/Generated/FREERTOS/queue.c ****                             if( listLIST_IS_EMPTY( &( pxQueue->xTasksWaitingToReceive ) ) == pdFALS
 2235              	 .loc 1 1240 0
 2236 00e0 3B6B     	 ldr r3,[r7,#48]
 2237 00e2 5B6A     	 ldr r3,[r3,#36]
 2238 00e4 002B     	 cmp r3,#0
 2239 00e6 24D0     	 beq .L163
1241:../Dave/Generated/FREERTOS/queue.c ****                             {
1242:../Dave/Generated/FREERTOS/queue.c ****                                 if( xTaskRemoveFromEventList( &( pxQueue->xTasksWaitingToReceive ) 
 2240              	 .loc 1 1242 0
 2241 00e8 3B6B     	 ldr r3,[r7,#48]
 2242 00ea 2433     	 adds r3,r3,#36
 2243 00ec 1846     	 mov r0,r3
 2244 00ee FFF7FEFF 	 bl xTaskRemoveFromEventList
 2245 00f2 0346     	 mov r3,r0
 2246 00f4 002B     	 cmp r3,#0
 2247 00f6 1CD0     	 beq .L163
1243:../Dave/Generated/FREERTOS/queue.c ****                                 {
1244:../Dave/Generated/FREERTOS/queue.c ****                                     /* The task waiting has a higher priority so
1245:../Dave/Generated/FREERTOS/queue.c ****                                      *  record that a context switch is required. */
1246:../Dave/Generated/FREERTOS/queue.c ****                                     if( pxHigherPriorityTaskWoken != NULL )
 2248              	 .loc 1 1246 0
 2249 00f8 3B68     	 ldr r3,[r7]
 2250 00fa 002B     	 cmp r3,#0
 2251 00fc 19D0     	 beq .L163
1247:../Dave/Generated/FREERTOS/queue.c ****                                     {
1248:../Dave/Generated/FREERTOS/queue.c ****                                         *pxHigherPriorityTaskWoken = pdTRUE;
 2252              	 .loc 1 1248 0
 2253 00fe 3B68     	 ldr r3,[r7]
 2254 0100 0122     	 movs r2,#1
 2255 0102 1A60     	 str r2,[r3]
 2256 0104 15E0     	 b .L163
 2257              	.L161:
1249:../Dave/Generated/FREERTOS/queue.c ****                                     }
1250:../Dave/Generated/FREERTOS/queue.c ****                                     else
1251:../Dave/Generated/FREERTOS/queue.c ****                                     {
1252:../Dave/Generated/FREERTOS/queue.c ****                                         mtCOVERAGE_TEST_MARKER();
1253:../Dave/Generated/FREERTOS/queue.c ****                                     }
1254:../Dave/Generated/FREERTOS/queue.c ****                                 }
1255:../Dave/Generated/FREERTOS/queue.c ****                                 else
1256:../Dave/Generated/FREERTOS/queue.c ****                                 {
1257:../Dave/Generated/FREERTOS/queue.c ****                                     mtCOVERAGE_TEST_MARKER();
1258:../Dave/Generated/FREERTOS/queue.c ****                                 }
1259:../Dave/Generated/FREERTOS/queue.c ****                             }
1260:../Dave/Generated/FREERTOS/queue.c ****                             else
1261:../Dave/Generated/FREERTOS/queue.c ****                             {
1262:../Dave/Generated/FREERTOS/queue.c ****                                 mtCOVERAGE_TEST_MARKER();
1263:../Dave/Generated/FREERTOS/queue.c ****                             }
1264:../Dave/Generated/FREERTOS/queue.c ****                         }
1265:../Dave/Generated/FREERTOS/queue.c ****                     }
1266:../Dave/Generated/FREERTOS/queue.c ****                 #else /* configUSE_QUEUE_SETS */
1267:../Dave/Generated/FREERTOS/queue.c ****                     {
1268:../Dave/Generated/FREERTOS/queue.c ****                         if( listLIST_IS_EMPTY( &( pxQueue->xTasksWaitingToReceive ) ) == pdFALSE )
1269:../Dave/Generated/FREERTOS/queue.c ****                         {
1270:../Dave/Generated/FREERTOS/queue.c ****                             if( xTaskRemoveFromEventList( &( pxQueue->xTasksWaitingToReceive ) ) !=
1271:../Dave/Generated/FREERTOS/queue.c ****                             {
1272:../Dave/Generated/FREERTOS/queue.c ****                                 /* The task waiting has a higher priority so record that a
1273:../Dave/Generated/FREERTOS/queue.c ****                                  * context switch is required. */
1274:../Dave/Generated/FREERTOS/queue.c ****                                 if( pxHigherPriorityTaskWoken != NULL )
1275:../Dave/Generated/FREERTOS/queue.c ****                                 {
1276:../Dave/Generated/FREERTOS/queue.c ****                                     *pxHigherPriorityTaskWoken = pdTRUE;
1277:../Dave/Generated/FREERTOS/queue.c ****                                 }
1278:../Dave/Generated/FREERTOS/queue.c ****                                 else
1279:../Dave/Generated/FREERTOS/queue.c ****                                 {
1280:../Dave/Generated/FREERTOS/queue.c ****                                     mtCOVERAGE_TEST_MARKER();
1281:../Dave/Generated/FREERTOS/queue.c ****                                 }
1282:../Dave/Generated/FREERTOS/queue.c ****                             }
1283:../Dave/Generated/FREERTOS/queue.c ****                             else
1284:../Dave/Generated/FREERTOS/queue.c ****                             {
1285:../Dave/Generated/FREERTOS/queue.c ****                                 mtCOVERAGE_TEST_MARKER();
1286:../Dave/Generated/FREERTOS/queue.c ****                             }
1287:../Dave/Generated/FREERTOS/queue.c ****                         }
1288:../Dave/Generated/FREERTOS/queue.c ****                         else
1289:../Dave/Generated/FREERTOS/queue.c ****                         {
1290:../Dave/Generated/FREERTOS/queue.c ****                             mtCOVERAGE_TEST_MARKER();
1291:../Dave/Generated/FREERTOS/queue.c ****                         }
1292:../Dave/Generated/FREERTOS/queue.c ****                     }
1293:../Dave/Generated/FREERTOS/queue.c ****                 #endif /* configUSE_QUEUE_SETS */
1294:../Dave/Generated/FREERTOS/queue.c ****             }
1295:../Dave/Generated/FREERTOS/queue.c ****             else
1296:../Dave/Generated/FREERTOS/queue.c ****             {
1297:../Dave/Generated/FREERTOS/queue.c ****                 /* Increment the lock count so the task that unlocks the queue
1298:../Dave/Generated/FREERTOS/queue.c ****                  * knows that data was posted while it was locked. */
1299:../Dave/Generated/FREERTOS/queue.c ****                 configASSERT( cTxLock != queueINT8_MAX );
 2258              	 .loc 1 1299 0
 2259 0106 97F92730 	 ldrsb r3,[r7,#39]
 2260 010a 7F2B     	 cmp r3,#127
 2261 010c 09D1     	 bne .L164
 2262              	.LBB201:
 2263              	.LBB202:
 197:C:/Infineon/Tools/DAVE IDE/4.5.0.202105191637/eclipse/workspace/xmc4800-CE/Dave/Generated/FREERTOS/portable/GCC\portmacro.h ****         (
 2264              	 .loc 2 197 0 discriminator 1
 2265              	
 2266 010e 4FF0FC03 	 mov r3,#252
 2267 0112 83F31188 	 msr basepri,r3
 2268 0116 BFF36F8F 	 isb 
 2269 011a BFF34F8F 	 dsb 
 2270              	
 2271              	
 2272              	 .thumb
 2273 011e FB60     	 str r3,[r7,#12]
 2274              	.L165:
 2275              	.LBE202:
 2276              	.LBE201:
 2277              	 .loc 1 1299 0 discriminator 8
 2278 0120 FEE7     	 b .L165
 2279              	.L164:
1300:../Dave/Generated/FREERTOS/queue.c **** 
1301:../Dave/Generated/FREERTOS/queue.c ****                 pxQueue->cTxLock = ( int8_t ) ( cTxLock + 1 );
 2280              	 .loc 1 1301 0
 2281 0122 97F82730 	 ldrb r3,[r7,#39]
 2282 0126 0133     	 adds r3,r3,#1
 2283 0128 DBB2     	 uxtb r3,r3
 2284 012a DAB2     	 uxtb r2,r3
 2285 012c 3B6B     	 ldr r3,[r7,#48]
 2286 012e 83F84520 	 strb r2,[r3,#69]
 2287              	.L163:
1302:../Dave/Generated/FREERTOS/queue.c ****             }
1303:../Dave/Generated/FREERTOS/queue.c **** 
1304:../Dave/Generated/FREERTOS/queue.c ****             xReturn = pdPASS;
 2288              	 .loc 1 1304 0
 2289 0132 0123     	 movs r3,#1
 2290 0134 7B63     	 str r3,[r7,#52]
 2291              	.LBE200:
 2292 0136 01E0     	 b .L166
 2293              	.L160:
1305:../Dave/Generated/FREERTOS/queue.c ****         }
1306:../Dave/Generated/FREERTOS/queue.c ****         else
1307:../Dave/Generated/FREERTOS/queue.c ****         {
1308:../Dave/Generated/FREERTOS/queue.c ****             traceQUEUE_SEND_FROM_ISR_FAILED( pxQueue );
1309:../Dave/Generated/FREERTOS/queue.c ****             xReturn = errQUEUE_FULL;
 2294              	 .loc 1 1309 0
 2295 0138 0023     	 movs r3,#0
 2296 013a 7B63     	 str r3,[r7,#52]
 2297              	.L166:
 2298 013c FB6A     	 ldr r3,[r7,#44]
 2299 013e BB60     	 str r3,[r7,#8]
 2300              	.LBE199:
 2301              	.LBB203:
 2302              	.LBB204:
 2303              	 .loc 2 231 0
 2304 0140 BB68     	 ldr r3,[r7,#8]
 2305              	
 2306 0142 83F31188 	 msr basepri,r3
 2307              	
 2308              	 .thumb
 2309              	.LBE204:
 2310              	.LBE203:
1310:../Dave/Generated/FREERTOS/queue.c ****         }
1311:../Dave/Generated/FREERTOS/queue.c ****     }
1312:../Dave/Generated/FREERTOS/queue.c ****     portCLEAR_INTERRUPT_MASK_FROM_ISR( uxSavedInterruptStatus );
1313:../Dave/Generated/FREERTOS/queue.c **** 
1314:../Dave/Generated/FREERTOS/queue.c ****     return xReturn;
 2311              	 .loc 1 1314 0
 2312 0146 7B6B     	 ldr r3,[r7,#52]
1315:../Dave/Generated/FREERTOS/queue.c **** }
 2313              	 .loc 1 1315 0
 2314 0148 1846     	 mov r0,r3
 2315 014a 3837     	 adds r7,r7,#56
 2316              	.LCFI79:
 2317              	 .cfi_def_cfa_offset 8
 2318 014c BD46     	 mov sp,r7
 2319              	.LCFI80:
 2320              	 .cfi_def_cfa_register 13
 2321              	 
 2322 014e 80BD     	 pop {r7,pc}
 2323              	 .cfi_endproc
 2324              	.LFE152:
 2326              	 .section .text.xQueueReceive,"ax",%progbits
 2327              	 .align 2
 2328              	 .global xQueueReceive
 2329              	 .thumb
 2330              	 .thumb_func
 2332              	xQueueReceive:
 2333              	.LFB153:
1316:../Dave/Generated/FREERTOS/queue.c **** /*-----------------------------------------------------------*/
1317:../Dave/Generated/FREERTOS/queue.c **** 
1318:../Dave/Generated/FREERTOS/queue.c **** BaseType_t xQueueReceive( QueueHandle_t xQueue,
1319:../Dave/Generated/FREERTOS/queue.c ****                           void * const pvBuffer,
1320:../Dave/Generated/FREERTOS/queue.c ****                           TickType_t xTicksToWait )
1321:../Dave/Generated/FREERTOS/queue.c **** {
 2334              	 .loc 1 1321 0
 2335              	 .cfi_startproc
 2336              	 
 2337              	 
 2338 0000 80B5     	 push {r7,lr}
 2339              	.LCFI81:
 2340              	 .cfi_def_cfa_offset 8
 2341              	 .cfi_offset 7,-8
 2342              	 .cfi_offset 14,-4
 2343 0002 8CB0     	 sub sp,sp,#48
 2344              	.LCFI82:
 2345              	 .cfi_def_cfa_offset 56
 2346 0004 00AF     	 add r7,sp,#0
 2347              	.LCFI83:
 2348              	 .cfi_def_cfa_register 7
 2349 0006 F860     	 str r0,[r7,#12]
 2350 0008 B960     	 str r1,[r7,#8]
 2351 000a 7A60     	 str r2,[r7,#4]
1322:../Dave/Generated/FREERTOS/queue.c ****     BaseType_t xEntryTimeSet = pdFALSE;
 2352              	 .loc 1 1322 0
 2353 000c 0023     	 movs r3,#0
 2354 000e FB62     	 str r3,[r7,#44]
1323:../Dave/Generated/FREERTOS/queue.c ****     TimeOut_t xTimeOut;
1324:../Dave/Generated/FREERTOS/queue.c ****     Queue_t * const pxQueue = xQueue;
 2355              	 .loc 1 1324 0
 2356 0010 FB68     	 ldr r3,[r7,#12]
 2357 0012 BB62     	 str r3,[r7,#40]
1325:../Dave/Generated/FREERTOS/queue.c **** 
1326:../Dave/Generated/FREERTOS/queue.c ****     /* Check the pointer is not NULL. */
1327:../Dave/Generated/FREERTOS/queue.c ****     configASSERT( ( pxQueue ) );
 2358              	 .loc 1 1327 0
 2359 0014 BB6A     	 ldr r3,[r7,#40]
 2360 0016 002B     	 cmp r3,#0
 2361 0018 09D1     	 bne .L169
 2362              	.LBB205:
 2363              	.LBB206:
 197:C:/Infineon/Tools/DAVE IDE/4.5.0.202105191637/eclipse/workspace/xmc4800-CE/Dave/Generated/FREERTOS/portable/GCC\portmacro.h ****         (
 2364              	 .loc 2 197 0 discriminator 1
 2365              	
 2366 001a 4FF0FC03 	 mov r3,#252
 2367 001e 83F31188 	 msr basepri,r3
 2368 0022 BFF36F8F 	 isb 
 2369 0026 BFF34F8F 	 dsb 
 2370              	
 2371              	
 2372              	 .thumb
 2373 002a 3B62     	 str r3,[r7,#32]
 2374              	.L170:
 2375              	.LBE206:
 2376              	.LBE205:
 2377              	 .loc 1 1327 0 discriminator 1
 2378 002c FEE7     	 b .L170
 2379              	.L169:
1328:../Dave/Generated/FREERTOS/queue.c **** 
1329:../Dave/Generated/FREERTOS/queue.c ****     /* The buffer into which data is received can only be NULL if the data size
1330:../Dave/Generated/FREERTOS/queue.c ****      * is zero (so no data is copied into the buffer). */
1331:../Dave/Generated/FREERTOS/queue.c ****     configASSERT( !( ( ( pvBuffer ) == NULL ) && ( ( pxQueue )->uxItemSize != ( UBaseType_t ) 0U ) 
 2380              	 .loc 1 1331 0
 2381 002e BB68     	 ldr r3,[r7,#8]
 2382 0030 002B     	 cmp r3,#0
 2383 0032 03D1     	 bne .L171
 2384              	 .loc 1 1331 0 is_stmt 0 discriminator 2
 2385 0034 BB6A     	 ldr r3,[r7,#40]
 2386 0036 1B6C     	 ldr r3,[r3,#64]
 2387 0038 002B     	 cmp r3,#0
 2388 003a 01D1     	 bne .L172
 2389              	.L171:
 2390              	 .loc 1 1331 0 discriminator 3
 2391 003c 0123     	 movs r3,#1
 2392 003e 00E0     	 b .L173
 2393              	.L172:
 2394              	 .loc 1 1331 0 discriminator 4
 2395 0040 0023     	 movs r3,#0
 2396              	.L173:
 2397              	 .loc 1 1331 0 discriminator 6
 2398 0042 002B     	 cmp r3,#0
 2399 0044 09D1     	 bne .L174
 2400              	.LBB207:
 2401              	.LBB208:
 197:C:/Infineon/Tools/DAVE IDE/4.5.0.202105191637/eclipse/workspace/xmc4800-CE/Dave/Generated/FREERTOS/portable/GCC\portmacro.h ****         (
 2402              	 .loc 2 197 0 is_stmt 1 discriminator 7
 2403              	
 2404 0046 4FF0FC03 	 mov r3,#252
 2405 004a 83F31188 	 msr basepri,r3
 2406 004e BFF36F8F 	 isb 
 2407 0052 BFF34F8F 	 dsb 
 2408              	
 2409              	
 2410              	 .thumb
 2411 0056 FB61     	 str r3,[r7,#28]
 2412              	.L175:
 2413              	.LBE208:
 2414              	.LBE207:
 2415              	 .loc 1 1331 0 discriminator 2
 2416 0058 FEE7     	 b .L175
 2417              	.L174:
1332:../Dave/Generated/FREERTOS/queue.c **** 
1333:../Dave/Generated/FREERTOS/queue.c ****     /* Cannot block if the scheduler is suspended. */
1334:../Dave/Generated/FREERTOS/queue.c ****     #if ( ( INCLUDE_xTaskGetSchedulerState == 1 ) || ( configUSE_TIMERS == 1 ) )
1335:../Dave/Generated/FREERTOS/queue.c ****         {
1336:../Dave/Generated/FREERTOS/queue.c ****             configASSERT( !( ( xTaskGetSchedulerState() == taskSCHEDULER_SUSPENDED ) && ( xTicksToW
 2418              	 .loc 1 1336 0
 2419 005a FFF7FEFF 	 bl xTaskGetSchedulerState
 2420 005e 0346     	 mov r3,r0
 2421 0060 002B     	 cmp r3,#0
 2422 0062 02D1     	 bne .L176
 2423              	 .loc 1 1336 0 is_stmt 0 discriminator 2
 2424 0064 7B68     	 ldr r3,[r7,#4]
 2425 0066 002B     	 cmp r3,#0
 2426 0068 01D1     	 bne .L177
 2427              	.L176:
 2428              	 .loc 1 1336 0 discriminator 3
 2429 006a 0123     	 movs r3,#1
 2430 006c 00E0     	 b .L178
 2431              	.L177:
 2432              	 .loc 1 1336 0 discriminator 4
 2433 006e 0023     	 movs r3,#0
 2434              	.L178:
 2435              	 .loc 1 1336 0 discriminator 6
 2436 0070 002B     	 cmp r3,#0
 2437 0072 09D1     	 bne .L179
 2438              	.LBB209:
 2439              	.LBB210:
 197:C:/Infineon/Tools/DAVE IDE/4.5.0.202105191637/eclipse/workspace/xmc4800-CE/Dave/Generated/FREERTOS/portable/GCC\portmacro.h ****         (
 2440              	 .loc 2 197 0 is_stmt 1 discriminator 7
 2441              	
 2442 0074 4FF0FC03 	 mov r3,#252
 2443 0078 83F31188 	 msr basepri,r3
 2444 007c BFF36F8F 	 isb 
 2445 0080 BFF34F8F 	 dsb 
 2446              	
 2447              	
 2448              	 .thumb
 2449 0084 BB61     	 str r3,[r7,#24]
 2450              	.L180:
 2451              	.LBE210:
 2452              	.LBE209:
 2453              	 .loc 1 1336 0 discriminator 3
 2454 0086 FEE7     	 b .L180
 2455              	.L179:
1337:../Dave/Generated/FREERTOS/queue.c ****         }
1338:../Dave/Generated/FREERTOS/queue.c ****     #endif
1339:../Dave/Generated/FREERTOS/queue.c **** 
1340:../Dave/Generated/FREERTOS/queue.c ****     /*lint -save -e904  This function relaxes the coding standard somewhat to
1341:../Dave/Generated/FREERTOS/queue.c ****      * allow return statements within the function itself.  This is done in the
1342:../Dave/Generated/FREERTOS/queue.c ****      * interest of execution time efficiency. */
1343:../Dave/Generated/FREERTOS/queue.c ****     for( ; ; )
1344:../Dave/Generated/FREERTOS/queue.c ****     {
1345:../Dave/Generated/FREERTOS/queue.c ****         taskENTER_CRITICAL();
 2456              	 .loc 1 1345 0
 2457 0088 FFF7FEFF 	 bl vPortEnterCritical
 2458              	.LBB211:
1346:../Dave/Generated/FREERTOS/queue.c ****         {
1347:../Dave/Generated/FREERTOS/queue.c ****             const UBaseType_t uxMessagesWaiting = pxQueue->uxMessagesWaiting;
 2459              	 .loc 1 1347 0
 2460 008c BB6A     	 ldr r3,[r7,#40]
 2461 008e 9B6B     	 ldr r3,[r3,#56]
 2462 0090 7B62     	 str r3,[r7,#36]
1348:../Dave/Generated/FREERTOS/queue.c **** 
1349:../Dave/Generated/FREERTOS/queue.c ****             /* Is there data in the queue now?  To be running the calling task
1350:../Dave/Generated/FREERTOS/queue.c ****              * must be the highest priority task wanting to access the queue. */
1351:../Dave/Generated/FREERTOS/queue.c ****             if( uxMessagesWaiting > ( UBaseType_t ) 0 )
 2463              	 .loc 1 1351 0
 2464 0092 7B6A     	 ldr r3,[r7,#36]
 2465 0094 002B     	 cmp r3,#0
 2466 0096 1FD0     	 beq .L181
1352:../Dave/Generated/FREERTOS/queue.c ****             {
1353:../Dave/Generated/FREERTOS/queue.c ****                 /* Data available, remove one item. */
1354:../Dave/Generated/FREERTOS/queue.c ****                 prvCopyDataFromQueue( pxQueue, pvBuffer );
 2467              	 .loc 1 1354 0
 2468 0098 B86A     	 ldr r0,[r7,#40]
 2469 009a B968     	 ldr r1,[r7,#8]
 2470 009c FFF7FEFF 	 bl prvCopyDataFromQueue
1355:../Dave/Generated/FREERTOS/queue.c ****                 traceQUEUE_RECEIVE( pxQueue );
1356:../Dave/Generated/FREERTOS/queue.c ****                 pxQueue->uxMessagesWaiting = uxMessagesWaiting - ( UBaseType_t ) 1;
 2471              	 .loc 1 1356 0
 2472 00a0 7B6A     	 ldr r3,[r7,#36]
 2473 00a2 5A1E     	 subs r2,r3,#1
 2474 00a4 BB6A     	 ldr r3,[r7,#40]
 2475 00a6 9A63     	 str r2,[r3,#56]
1357:../Dave/Generated/FREERTOS/queue.c **** 
1358:../Dave/Generated/FREERTOS/queue.c ****                 /* There is now space in the queue, were any tasks waiting to
1359:../Dave/Generated/FREERTOS/queue.c ****                  * post to the queue?  If so, unblock the highest priority waiting
1360:../Dave/Generated/FREERTOS/queue.c ****                  * task. */
1361:../Dave/Generated/FREERTOS/queue.c ****                 if( listLIST_IS_EMPTY( &( pxQueue->xTasksWaitingToSend ) ) == pdFALSE )
 2476              	 .loc 1 1361 0
 2477 00a8 BB6A     	 ldr r3,[r7,#40]
 2478 00aa 1B69     	 ldr r3,[r3,#16]
 2479 00ac 002B     	 cmp r3,#0
 2480 00ae 0FD0     	 beq .L182
1362:../Dave/Generated/FREERTOS/queue.c ****                 {
1363:../Dave/Generated/FREERTOS/queue.c ****                     if( xTaskRemoveFromEventList( &( pxQueue->xTasksWaitingToSend ) ) != pdFALSE )
 2481              	 .loc 1 1363 0
 2482 00b0 BB6A     	 ldr r3,[r7,#40]
 2483 00b2 1033     	 adds r3,r3,#16
 2484 00b4 1846     	 mov r0,r3
 2485 00b6 FFF7FEFF 	 bl xTaskRemoveFromEventList
 2486 00ba 0346     	 mov r3,r0
 2487 00bc 002B     	 cmp r3,#0
 2488 00be 07D0     	 beq .L182
1364:../Dave/Generated/FREERTOS/queue.c ****                     {
1365:../Dave/Generated/FREERTOS/queue.c ****                         queueYIELD_IF_USING_PREEMPTION();
 2489              	 .loc 1 1365 0
 2490 00c0 3E4B     	 ldr r3,.L193
 2491 00c2 4FF08052 	 mov r2,#268435456
 2492 00c6 1A60     	 str r2,[r3]
 2493              	
 2494 00c8 BFF34F8F 	 dsb
 2495              	
 2496              	
 2497 00cc BFF36F8F 	 isb
 2498              	
 2499              	 .thumb
 2500              	.L182:
1366:../Dave/Generated/FREERTOS/queue.c ****                     }
1367:../Dave/Generated/FREERTOS/queue.c ****                     else
1368:../Dave/Generated/FREERTOS/queue.c ****                     {
1369:../Dave/Generated/FREERTOS/queue.c ****                         mtCOVERAGE_TEST_MARKER();
1370:../Dave/Generated/FREERTOS/queue.c ****                     }
1371:../Dave/Generated/FREERTOS/queue.c ****                 }
1372:../Dave/Generated/FREERTOS/queue.c ****                 else
1373:../Dave/Generated/FREERTOS/queue.c ****                 {
1374:../Dave/Generated/FREERTOS/queue.c ****                     mtCOVERAGE_TEST_MARKER();
1375:../Dave/Generated/FREERTOS/queue.c ****                 }
1376:../Dave/Generated/FREERTOS/queue.c **** 
1377:../Dave/Generated/FREERTOS/queue.c ****                 taskEXIT_CRITICAL();
 2501              	 .loc 1 1377 0
 2502 00d0 FFF7FEFF 	 bl vPortExitCritical
1378:../Dave/Generated/FREERTOS/queue.c ****                 return pdPASS;
 2503              	 .loc 1 1378 0
 2504 00d4 0123     	 movs r3,#1
 2505 00d6 6DE0     	 b .L192
 2506              	.L181:
1379:../Dave/Generated/FREERTOS/queue.c ****             }
1380:../Dave/Generated/FREERTOS/queue.c ****             else
1381:../Dave/Generated/FREERTOS/queue.c ****             {
1382:../Dave/Generated/FREERTOS/queue.c ****                 if( xTicksToWait == ( TickType_t ) 0 )
 2507              	 .loc 1 1382 0
 2508 00d8 7B68     	 ldr r3,[r7,#4]
 2509 00da 002B     	 cmp r3,#0
 2510 00dc 03D1     	 bne .L184
1383:../Dave/Generated/FREERTOS/queue.c ****                 {
1384:../Dave/Generated/FREERTOS/queue.c ****                     /* The queue was empty and no block time is specified (or
1385:../Dave/Generated/FREERTOS/queue.c ****                      * the block time has expired) so leave now. */
1386:../Dave/Generated/FREERTOS/queue.c ****                     taskEXIT_CRITICAL();
 2511              	 .loc 1 1386 0
 2512 00de FFF7FEFF 	 bl vPortExitCritical
1387:../Dave/Generated/FREERTOS/queue.c ****                     traceQUEUE_RECEIVE_FAILED( pxQueue );
1388:../Dave/Generated/FREERTOS/queue.c ****                     return errQUEUE_EMPTY;
 2513              	 .loc 1 1388 0
 2514 00e2 0023     	 movs r3,#0
 2515 00e4 66E0     	 b .L192
 2516              	.L184:
1389:../Dave/Generated/FREERTOS/queue.c ****                 }
1390:../Dave/Generated/FREERTOS/queue.c ****                 else if( xEntryTimeSet == pdFALSE )
 2517              	 .loc 1 1390 0
 2518 00e6 FB6A     	 ldr r3,[r7,#44]
 2519 00e8 002B     	 cmp r3,#0
 2520 00ea 06D1     	 bne .L185
1391:../Dave/Generated/FREERTOS/queue.c ****                 {
1392:../Dave/Generated/FREERTOS/queue.c ****                     /* The queue was empty and a block time was specified so
1393:../Dave/Generated/FREERTOS/queue.c ****                      * configure the timeout structure. */
1394:../Dave/Generated/FREERTOS/queue.c ****                     vTaskInternalSetTimeOutState( &xTimeOut );
 2521              	 .loc 1 1394 0
 2522 00ec 07F11003 	 add r3,r7,#16
 2523 00f0 1846     	 mov r0,r3
 2524 00f2 FFF7FEFF 	 bl vTaskInternalSetTimeOutState
1395:../Dave/Generated/FREERTOS/queue.c ****                     xEntryTimeSet = pdTRUE;
 2525              	 .loc 1 1395 0
 2526 00f6 0123     	 movs r3,#1
 2527 00f8 FB62     	 str r3,[r7,#44]
 2528              	.L185:
 2529              	.LBE211:
1396:../Dave/Generated/FREERTOS/queue.c ****                 }
1397:../Dave/Generated/FREERTOS/queue.c ****                 else
1398:../Dave/Generated/FREERTOS/queue.c ****                 {
1399:../Dave/Generated/FREERTOS/queue.c ****                     /* Entry time was already set. */
1400:../Dave/Generated/FREERTOS/queue.c ****                     mtCOVERAGE_TEST_MARKER();
1401:../Dave/Generated/FREERTOS/queue.c ****                 }
1402:../Dave/Generated/FREERTOS/queue.c ****             }
1403:../Dave/Generated/FREERTOS/queue.c ****         }
1404:../Dave/Generated/FREERTOS/queue.c ****         taskEXIT_CRITICAL();
 2530              	 .loc 1 1404 0
 2531 00fa FFF7FEFF 	 bl vPortExitCritical
1405:../Dave/Generated/FREERTOS/queue.c **** 
1406:../Dave/Generated/FREERTOS/queue.c ****         /* Interrupts and other tasks can send to and receive from the queue
1407:../Dave/Generated/FREERTOS/queue.c ****          * now the critical section has been exited. */
1408:../Dave/Generated/FREERTOS/queue.c **** 
1409:../Dave/Generated/FREERTOS/queue.c ****         vTaskSuspendAll();
 2532              	 .loc 1 1409 0
 2533 00fe FFF7FEFF 	 bl vTaskSuspendAll
1410:../Dave/Generated/FREERTOS/queue.c ****         prvLockQueue( pxQueue );
 2534              	 .loc 1 1410 0
 2535 0102 FFF7FEFF 	 bl vPortEnterCritical
 2536 0106 BB6A     	 ldr r3,[r7,#40]
 2537 0108 93F84430 	 ldrb r3,[r3,#68]
 2538 010c DBB2     	 uxtb r3,r3
 2539 010e 5BB2     	 sxtb r3,r3
 2540 0110 B3F1FF3F 	 cmp r3,#-1
 2541 0114 03D1     	 bne .L186
 2542              	 .loc 1 1410 0 is_stmt 0 discriminator 1
 2543 0116 BB6A     	 ldr r3,[r7,#40]
 2544 0118 0022     	 movs r2,#0
 2545 011a 83F84420 	 strb r2,[r3,#68]
 2546              	.L186:
 2547              	 .loc 1 1410 0 discriminator 3
 2548 011e BB6A     	 ldr r3,[r7,#40]
 2549 0120 93F84530 	 ldrb r3,[r3,#69]
 2550 0124 DBB2     	 uxtb r3,r3
 2551 0126 5BB2     	 sxtb r3,r3
 2552 0128 B3F1FF3F 	 cmp r3,#-1
 2553 012c 03D1     	 bne .L187
