   1              	 .syntax unified
   2              	 .cpu cortex-m4
   3              	 .eabi_attribute 27,3
   4              	 .fpu fpv4-sp-d16
   5              	 .eabi_attribute 20,1
   6              	 .eabi_attribute 21,1
   7              	 .eabi_attribute 23,3
   8              	 .eabi_attribute 24,1
   9              	 .eabi_attribute 25,1
  10              	 .eabi_attribute 26,1
  11              	 .eabi_attribute 30,6
  12              	 .eabi_attribute 34,1
  13              	 .eabi_attribute 18,4
  14              	 .thumb
  15              	 .file "stream_buffer.c"
  16              	 .text
  17              	.Ltext0:
  18              	 .cfi_sections .debug_frame
  19              	 .section .text.xStreamBufferGenericCreate,"ax",%progbits
  20              	 .align 2
  21              	 .global xStreamBufferGenericCreate
  22              	 .thumb
  23              	 .thumb_func
  25              	xStreamBufferGenericCreate:
  26              	.LFB137:
  27              	 .file 1 "../Dave/Generated/FREERTOS/stream_buffer.c"
   1:../Dave/Generated/FREERTOS/stream_buffer.c **** /*
   2:../Dave/Generated/FREERTOS/stream_buffer.c ****  * FreeRTOS Kernel V10.4.3
   3:../Dave/Generated/FREERTOS/stream_buffer.c ****  * Copyright (C) 2020 Amazon.com, Inc. or its affiliates.  All Rights Reserved.
   4:../Dave/Generated/FREERTOS/stream_buffer.c ****  *
   5:../Dave/Generated/FREERTOS/stream_buffer.c ****  * Permission is hereby granted, free of charge, to any person obtaining a copy of
   6:../Dave/Generated/FREERTOS/stream_buffer.c ****  * this software and associated documentation files (the "Software"), to deal in
   7:../Dave/Generated/FREERTOS/stream_buffer.c ****  * the Software without restriction, including without limitation the rights to
   8:../Dave/Generated/FREERTOS/stream_buffer.c ****  * use, copy, modify, merge, publish, distribute, sublicense, and/or sell copies of
   9:../Dave/Generated/FREERTOS/stream_buffer.c ****  * the Software, and to permit persons to whom the Software is furnished to do so,
  10:../Dave/Generated/FREERTOS/stream_buffer.c ****  * subject to the following conditions:
  11:../Dave/Generated/FREERTOS/stream_buffer.c ****  *
  12:../Dave/Generated/FREERTOS/stream_buffer.c ****  * The above copyright notice and this permission notice shall be included in all
  13:../Dave/Generated/FREERTOS/stream_buffer.c ****  * copies or substantial portions of the Software.
  14:../Dave/Generated/FREERTOS/stream_buffer.c ****  *
  15:../Dave/Generated/FREERTOS/stream_buffer.c ****  * THE SOFTWARE IS PROVIDED "AS IS", WITHOUT WARRANTY OF ANY KIND, EXPRESS OR
  16:../Dave/Generated/FREERTOS/stream_buffer.c ****  * IMPLIED, INCLUDING BUT NOT LIMITED TO THE WARRANTIES OF MERCHANTABILITY, FITNESS
  17:../Dave/Generated/FREERTOS/stream_buffer.c ****  * FOR A PARTICULAR PURPOSE AND NONINFRINGEMENT. IN NO EVENT SHALL THE AUTHORS OR
  18:../Dave/Generated/FREERTOS/stream_buffer.c ****  * COPYRIGHT HOLDERS BE LIABLE FOR ANY CLAIM, DAMAGES OR OTHER LIABILITY, WHETHER
  19:../Dave/Generated/FREERTOS/stream_buffer.c ****  * IN AN ACTION OF CONTRACT, TORT OR OTHERWISE, ARISING FROM, OUT OF OR IN
  20:../Dave/Generated/FREERTOS/stream_buffer.c ****  * CONNECTION WITH THE SOFTWARE OR THE USE OR OTHER DEALINGS IN THE SOFTWARE.
  21:../Dave/Generated/FREERTOS/stream_buffer.c ****  *
  22:../Dave/Generated/FREERTOS/stream_buffer.c ****  * https://www.FreeRTOS.org
  23:../Dave/Generated/FREERTOS/stream_buffer.c ****  * https://github.com/FreeRTOS
  24:../Dave/Generated/FREERTOS/stream_buffer.c ****  *
  25:../Dave/Generated/FREERTOS/stream_buffer.c ****  */
  26:../Dave/Generated/FREERTOS/stream_buffer.c **** 
  27:../Dave/Generated/FREERTOS/stream_buffer.c **** /* Standard includes. */
  28:../Dave/Generated/FREERTOS/stream_buffer.c **** #include <stdint.h>
  29:../Dave/Generated/FREERTOS/stream_buffer.c **** #include <string.h>
  30:../Dave/Generated/FREERTOS/stream_buffer.c **** 
  31:../Dave/Generated/FREERTOS/stream_buffer.c **** /* Defining MPU_WRAPPERS_INCLUDED_FROM_API_FILE prevents task.h from redefining
  32:../Dave/Generated/FREERTOS/stream_buffer.c ****  * all the API functions to use the MPU wrappers.  That should only be done when
  33:../Dave/Generated/FREERTOS/stream_buffer.c ****  * task.h is included from an application file. */
  34:../Dave/Generated/FREERTOS/stream_buffer.c **** #define MPU_WRAPPERS_INCLUDED_FROM_API_FILE
  35:../Dave/Generated/FREERTOS/stream_buffer.c **** 
  36:../Dave/Generated/FREERTOS/stream_buffer.c **** /* FreeRTOS includes. */
  37:../Dave/Generated/FREERTOS/stream_buffer.c **** #include "FreeRTOS.h"
  38:../Dave/Generated/FREERTOS/stream_buffer.c **** #include "task.h"
  39:../Dave/Generated/FREERTOS/stream_buffer.c **** #include "stream_buffer.h"
  40:../Dave/Generated/FREERTOS/stream_buffer.c **** 
  41:../Dave/Generated/FREERTOS/stream_buffer.c **** #if ( configUSE_TASK_NOTIFICATIONS != 1 )
  42:../Dave/Generated/FREERTOS/stream_buffer.c ****     #error configUSE_TASK_NOTIFICATIONS must be set to 1 to build stream_buffer.c
  43:../Dave/Generated/FREERTOS/stream_buffer.c **** #endif
  44:../Dave/Generated/FREERTOS/stream_buffer.c **** 
  45:../Dave/Generated/FREERTOS/stream_buffer.c **** /* Lint e961, e9021 and e750 are suppressed as a MISRA exception justified
  46:../Dave/Generated/FREERTOS/stream_buffer.c ****  * because the MPU ports require MPU_WRAPPERS_INCLUDED_FROM_API_FILE to be defined
  47:../Dave/Generated/FREERTOS/stream_buffer.c ****  * for the header files above, but not in this file, in order to generate the
  48:../Dave/Generated/FREERTOS/stream_buffer.c ****  * correct privileged Vs unprivileged linkage and placement. */
  49:../Dave/Generated/FREERTOS/stream_buffer.c **** #undef MPU_WRAPPERS_INCLUDED_FROM_API_FILE /*lint !e961 !e750 !e9021. */
  50:../Dave/Generated/FREERTOS/stream_buffer.c **** 
  51:../Dave/Generated/FREERTOS/stream_buffer.c **** /* If the user has not provided application specific Rx notification macros,
  52:../Dave/Generated/FREERTOS/stream_buffer.c ****  * or #defined the notification macros away, them provide default implementations
  53:../Dave/Generated/FREERTOS/stream_buffer.c ****  * that uses task notifications. */
  54:../Dave/Generated/FREERTOS/stream_buffer.c **** /*lint -save -e9026 Function like macros allowed and needed here so they can be overridden. */
  55:../Dave/Generated/FREERTOS/stream_buffer.c **** #ifndef sbRECEIVE_COMPLETED
  56:../Dave/Generated/FREERTOS/stream_buffer.c ****     #define sbRECEIVE_COMPLETED( pxStreamBuffer )                         \
  57:../Dave/Generated/FREERTOS/stream_buffer.c ****     vTaskSuspendAll();                                                    \
  58:../Dave/Generated/FREERTOS/stream_buffer.c ****     {                                                                     \
  59:../Dave/Generated/FREERTOS/stream_buffer.c ****         if( ( pxStreamBuffer )->xTaskWaitingToSend != NULL )              \
  60:../Dave/Generated/FREERTOS/stream_buffer.c ****         {                                                                 \
  61:../Dave/Generated/FREERTOS/stream_buffer.c ****             ( void ) xTaskNotify( ( pxStreamBuffer )->xTaskWaitingToSend, \
  62:../Dave/Generated/FREERTOS/stream_buffer.c ****                                   ( uint32_t ) 0,                         \
  63:../Dave/Generated/FREERTOS/stream_buffer.c ****                                   eNoAction );                            \
  64:../Dave/Generated/FREERTOS/stream_buffer.c ****             ( pxStreamBuffer )->xTaskWaitingToSend = NULL;                \
  65:../Dave/Generated/FREERTOS/stream_buffer.c ****         }                                                                 \
  66:../Dave/Generated/FREERTOS/stream_buffer.c ****     }                                                                     \
  67:../Dave/Generated/FREERTOS/stream_buffer.c ****     ( void ) xTaskResumeAll();
  68:../Dave/Generated/FREERTOS/stream_buffer.c **** #endif /* sbRECEIVE_COMPLETED */
  69:../Dave/Generated/FREERTOS/stream_buffer.c **** 
  70:../Dave/Generated/FREERTOS/stream_buffer.c **** #ifndef sbRECEIVE_COMPLETED_FROM_ISR
  71:../Dave/Generated/FREERTOS/stream_buffer.c ****     #define sbRECEIVE_COMPLETED_FROM_ISR( pxStreamBuffer,                            \
  72:../Dave/Generated/FREERTOS/stream_buffer.c ****                                           pxHigherPriorityTaskWoken )                \
  73:../Dave/Generated/FREERTOS/stream_buffer.c ****     {                                                                                \
  74:../Dave/Generated/FREERTOS/stream_buffer.c ****         UBaseType_t uxSavedInterruptStatus;                                          \
  75:../Dave/Generated/FREERTOS/stream_buffer.c ****                                                                                      \
  76:../Dave/Generated/FREERTOS/stream_buffer.c ****         uxSavedInterruptStatus = ( UBaseType_t ) portSET_INTERRUPT_MASK_FROM_ISR();  \
  77:../Dave/Generated/FREERTOS/stream_buffer.c ****         {                                                                            \
  78:../Dave/Generated/FREERTOS/stream_buffer.c ****             if( ( pxStreamBuffer )->xTaskWaitingToSend != NULL )                     \
  79:../Dave/Generated/FREERTOS/stream_buffer.c ****             {                                                                        \
  80:../Dave/Generated/FREERTOS/stream_buffer.c ****                 ( void ) xTaskNotifyFromISR( ( pxStreamBuffer )->xTaskWaitingToSend, \
  81:../Dave/Generated/FREERTOS/stream_buffer.c ****                                              ( uint32_t ) 0,                         \
  82:../Dave/Generated/FREERTOS/stream_buffer.c ****                                              eNoAction,                              \
  83:../Dave/Generated/FREERTOS/stream_buffer.c ****                                              pxHigherPriorityTaskWoken );            \
  84:../Dave/Generated/FREERTOS/stream_buffer.c ****                 ( pxStreamBuffer )->xTaskWaitingToSend = NULL;                       \
  85:../Dave/Generated/FREERTOS/stream_buffer.c ****             }                                                                        \
  86:../Dave/Generated/FREERTOS/stream_buffer.c ****         }                                                                            \
  87:../Dave/Generated/FREERTOS/stream_buffer.c ****         portCLEAR_INTERRUPT_MASK_FROM_ISR( uxSavedInterruptStatus );                 \
  88:../Dave/Generated/FREERTOS/stream_buffer.c ****     }
  89:../Dave/Generated/FREERTOS/stream_buffer.c **** #endif /* sbRECEIVE_COMPLETED_FROM_ISR */
  90:../Dave/Generated/FREERTOS/stream_buffer.c **** 
  91:../Dave/Generated/FREERTOS/stream_buffer.c **** /* If the user has not provided an application specific Tx notification macro,
  92:../Dave/Generated/FREERTOS/stream_buffer.c ****  * or #defined the notification macro away, them provide a default implementation
  93:../Dave/Generated/FREERTOS/stream_buffer.c ****  * that uses task notifications. */
  94:../Dave/Generated/FREERTOS/stream_buffer.c **** #ifndef sbSEND_COMPLETED
  95:../Dave/Generated/FREERTOS/stream_buffer.c ****     #define sbSEND_COMPLETED( pxStreamBuffer )                               \
  96:../Dave/Generated/FREERTOS/stream_buffer.c ****     vTaskSuspendAll();                                                       \
  97:../Dave/Generated/FREERTOS/stream_buffer.c ****     {                                                                        \
  98:../Dave/Generated/FREERTOS/stream_buffer.c ****         if( ( pxStreamBuffer )->xTaskWaitingToReceive != NULL )              \
  99:../Dave/Generated/FREERTOS/stream_buffer.c ****         {                                                                    \
 100:../Dave/Generated/FREERTOS/stream_buffer.c ****             ( void ) xTaskNotify( ( pxStreamBuffer )->xTaskWaitingToReceive, \
 101:../Dave/Generated/FREERTOS/stream_buffer.c ****                                   ( uint32_t ) 0,                            \
 102:../Dave/Generated/FREERTOS/stream_buffer.c ****                                   eNoAction );                               \
 103:../Dave/Generated/FREERTOS/stream_buffer.c ****             ( pxStreamBuffer )->xTaskWaitingToReceive = NULL;                \
 104:../Dave/Generated/FREERTOS/stream_buffer.c ****         }                                                                    \
 105:../Dave/Generated/FREERTOS/stream_buffer.c ****     }                                                                        \
 106:../Dave/Generated/FREERTOS/stream_buffer.c ****     ( void ) xTaskResumeAll();
 107:../Dave/Generated/FREERTOS/stream_buffer.c **** #endif /* sbSEND_COMPLETED */
 108:../Dave/Generated/FREERTOS/stream_buffer.c **** 
 109:../Dave/Generated/FREERTOS/stream_buffer.c **** #ifndef sbSEND_COMPLETE_FROM_ISR
 110:../Dave/Generated/FREERTOS/stream_buffer.c ****     #define sbSEND_COMPLETE_FROM_ISR( pxStreamBuffer, pxHigherPriorityTaskWoken )       \
 111:../Dave/Generated/FREERTOS/stream_buffer.c ****     {                                                                                   \
 112:../Dave/Generated/FREERTOS/stream_buffer.c ****         UBaseType_t uxSavedInterruptStatus;                                             \
 113:../Dave/Generated/FREERTOS/stream_buffer.c ****                                                                                         \
 114:../Dave/Generated/FREERTOS/stream_buffer.c ****         uxSavedInterruptStatus = ( UBaseType_t ) portSET_INTERRUPT_MASK_FROM_ISR();     \
 115:../Dave/Generated/FREERTOS/stream_buffer.c ****         {                                                                               \
 116:../Dave/Generated/FREERTOS/stream_buffer.c ****             if( ( pxStreamBuffer )->xTaskWaitingToReceive != NULL )                     \
 117:../Dave/Generated/FREERTOS/stream_buffer.c ****             {                                                                           \
 118:../Dave/Generated/FREERTOS/stream_buffer.c ****                 ( void ) xTaskNotifyFromISR( ( pxStreamBuffer )->xTaskWaitingToReceive, \
 119:../Dave/Generated/FREERTOS/stream_buffer.c ****                                              ( uint32_t ) 0,                            \
 120:../Dave/Generated/FREERTOS/stream_buffer.c ****                                              eNoAction,                                 \
 121:../Dave/Generated/FREERTOS/stream_buffer.c ****                                              pxHigherPriorityTaskWoken );               \
 122:../Dave/Generated/FREERTOS/stream_buffer.c ****                 ( pxStreamBuffer )->xTaskWaitingToReceive = NULL;                       \
 123:../Dave/Generated/FREERTOS/stream_buffer.c ****             }                                                                           \
 124:../Dave/Generated/FREERTOS/stream_buffer.c ****         }                                                                               \
 125:../Dave/Generated/FREERTOS/stream_buffer.c ****         portCLEAR_INTERRUPT_MASK_FROM_ISR( uxSavedInterruptStatus );                    \
 126:../Dave/Generated/FREERTOS/stream_buffer.c ****     }
 127:../Dave/Generated/FREERTOS/stream_buffer.c **** #endif /* sbSEND_COMPLETE_FROM_ISR */
 128:../Dave/Generated/FREERTOS/stream_buffer.c **** /*lint -restore (9026) */
 129:../Dave/Generated/FREERTOS/stream_buffer.c **** 
 130:../Dave/Generated/FREERTOS/stream_buffer.c **** /* The number of bytes used to hold the length of a message in the buffer. */
 131:../Dave/Generated/FREERTOS/stream_buffer.c **** #define sbBYTES_TO_STORE_MESSAGE_LENGTH    ( sizeof( configMESSAGE_BUFFER_LENGTH_TYPE ) )
 132:../Dave/Generated/FREERTOS/stream_buffer.c **** 
 133:../Dave/Generated/FREERTOS/stream_buffer.c **** /* Bits stored in the ucFlags field of the stream buffer. */
 134:../Dave/Generated/FREERTOS/stream_buffer.c **** #define sbFLAGS_IS_MESSAGE_BUFFER          ( ( uint8_t ) 1 ) /* Set if the stream buffer was create
 135:../Dave/Generated/FREERTOS/stream_buffer.c **** #define sbFLAGS_IS_STATICALLY_ALLOCATED    ( ( uint8_t ) 2 ) /* Set if the stream buffer was create
 136:../Dave/Generated/FREERTOS/stream_buffer.c **** 
 137:../Dave/Generated/FREERTOS/stream_buffer.c **** /*-----------------------------------------------------------*/
 138:../Dave/Generated/FREERTOS/stream_buffer.c **** 
 139:../Dave/Generated/FREERTOS/stream_buffer.c **** /* Structure that hold state information on the buffer. */
 140:../Dave/Generated/FREERTOS/stream_buffer.c **** typedef struct StreamBufferDef_t                 /*lint !e9058 Style convention uses tag. */
 141:../Dave/Generated/FREERTOS/stream_buffer.c **** {
 142:../Dave/Generated/FREERTOS/stream_buffer.c ****     volatile size_t xTail;                       /* Index to the next item to read within the buffe
 143:../Dave/Generated/FREERTOS/stream_buffer.c ****     volatile size_t xHead;                       /* Index to the next item to write within the buff
 144:../Dave/Generated/FREERTOS/stream_buffer.c ****     size_t xLength;                              /* The length of the buffer pointed to by pucBuffe
 145:../Dave/Generated/FREERTOS/stream_buffer.c ****     size_t xTriggerLevelBytes;                   /* The number of bytes that must be in the stream 
 146:../Dave/Generated/FREERTOS/stream_buffer.c ****     volatile TaskHandle_t xTaskWaitingToReceive; /* Holds the handle of a task waiting for data, or
 147:../Dave/Generated/FREERTOS/stream_buffer.c ****     volatile TaskHandle_t xTaskWaitingToSend;    /* Holds the handle of a task waiting to send data
 148:../Dave/Generated/FREERTOS/stream_buffer.c ****     uint8_t * pucBuffer;                         /* Points to the buffer itself - that is - the RAM
 149:../Dave/Generated/FREERTOS/stream_buffer.c ****     uint8_t ucFlags;
 150:../Dave/Generated/FREERTOS/stream_buffer.c **** 
 151:../Dave/Generated/FREERTOS/stream_buffer.c ****     #if ( configUSE_TRACE_FACILITY == 1 )
 152:../Dave/Generated/FREERTOS/stream_buffer.c ****         UBaseType_t uxStreamBufferNumber; /* Used for tracing purposes. */
 153:../Dave/Generated/FREERTOS/stream_buffer.c ****     #endif
 154:../Dave/Generated/FREERTOS/stream_buffer.c **** } StreamBuffer_t;
 155:../Dave/Generated/FREERTOS/stream_buffer.c **** 
 156:../Dave/Generated/FREERTOS/stream_buffer.c **** /*
 157:../Dave/Generated/FREERTOS/stream_buffer.c ****  * The number of bytes available to be read from the buffer.
 158:../Dave/Generated/FREERTOS/stream_buffer.c ****  */
 159:../Dave/Generated/FREERTOS/stream_buffer.c **** static size_t prvBytesInBuffer( const StreamBuffer_t * const pxStreamBuffer ) PRIVILEGED_FUNCTION;
 160:../Dave/Generated/FREERTOS/stream_buffer.c **** 
 161:../Dave/Generated/FREERTOS/stream_buffer.c **** /*
 162:../Dave/Generated/FREERTOS/stream_buffer.c ****  * Add xCount bytes from pucData into the pxStreamBuffer message buffer.
 163:../Dave/Generated/FREERTOS/stream_buffer.c ****  * Returns the number of bytes written, which will either equal xCount in the
 164:../Dave/Generated/FREERTOS/stream_buffer.c ****  * success case, or 0 if there was not enough space in the buffer (in which case
 165:../Dave/Generated/FREERTOS/stream_buffer.c ****  * no data is written into the buffer).
 166:../Dave/Generated/FREERTOS/stream_buffer.c ****  */
 167:../Dave/Generated/FREERTOS/stream_buffer.c **** static size_t prvWriteBytesToBuffer( StreamBuffer_t * const pxStreamBuffer,
 168:../Dave/Generated/FREERTOS/stream_buffer.c ****                                      const uint8_t * pucData,
 169:../Dave/Generated/FREERTOS/stream_buffer.c ****                                      size_t xCount ) PRIVILEGED_FUNCTION;
 170:../Dave/Generated/FREERTOS/stream_buffer.c **** 
 171:../Dave/Generated/FREERTOS/stream_buffer.c **** /*
 172:../Dave/Generated/FREERTOS/stream_buffer.c ****  * If the stream buffer is being used as a message buffer, then reads an entire
 173:../Dave/Generated/FREERTOS/stream_buffer.c ****  * message out of the buffer.  If the stream buffer is being used as a stream
 174:../Dave/Generated/FREERTOS/stream_buffer.c ****  * buffer then read as many bytes as possible from the buffer.
 175:../Dave/Generated/FREERTOS/stream_buffer.c ****  * prvReadBytesFromBuffer() is called to actually extract the bytes from the
 176:../Dave/Generated/FREERTOS/stream_buffer.c ****  * buffer's data storage area.
 177:../Dave/Generated/FREERTOS/stream_buffer.c ****  */
 178:../Dave/Generated/FREERTOS/stream_buffer.c **** static size_t prvReadMessageFromBuffer( StreamBuffer_t * pxStreamBuffer,
 179:../Dave/Generated/FREERTOS/stream_buffer.c ****                                         void * pvRxData,
 180:../Dave/Generated/FREERTOS/stream_buffer.c ****                                         size_t xBufferLengthBytes,
 181:../Dave/Generated/FREERTOS/stream_buffer.c ****                                         size_t xBytesAvailable,
 182:../Dave/Generated/FREERTOS/stream_buffer.c ****                                         size_t xBytesToStoreMessageLength ) PRIVILEGED_FUNCTION;
 183:../Dave/Generated/FREERTOS/stream_buffer.c **** 
 184:../Dave/Generated/FREERTOS/stream_buffer.c **** /*
 185:../Dave/Generated/FREERTOS/stream_buffer.c ****  * If the stream buffer is being used as a message buffer, then writes an entire
 186:../Dave/Generated/FREERTOS/stream_buffer.c ****  * message to the buffer.  If the stream buffer is being used as a stream
 187:../Dave/Generated/FREERTOS/stream_buffer.c ****  * buffer then write as many bytes as possible to the buffer.
 188:../Dave/Generated/FREERTOS/stream_buffer.c ****  * prvWriteBytestoBuffer() is called to actually send the bytes to the buffer's
 189:../Dave/Generated/FREERTOS/stream_buffer.c ****  * data storage area.
 190:../Dave/Generated/FREERTOS/stream_buffer.c ****  */
 191:../Dave/Generated/FREERTOS/stream_buffer.c **** static size_t prvWriteMessageToBuffer( StreamBuffer_t * const pxStreamBuffer,
 192:../Dave/Generated/FREERTOS/stream_buffer.c ****                                        const void * pvTxData,
 193:../Dave/Generated/FREERTOS/stream_buffer.c ****                                        size_t xDataLengthBytes,
 194:../Dave/Generated/FREERTOS/stream_buffer.c ****                                        size_t xSpace,
 195:../Dave/Generated/FREERTOS/stream_buffer.c ****                                        size_t xRequiredSpace ) PRIVILEGED_FUNCTION;
 196:../Dave/Generated/FREERTOS/stream_buffer.c **** 
 197:../Dave/Generated/FREERTOS/stream_buffer.c **** /*
 198:../Dave/Generated/FREERTOS/stream_buffer.c ****  * Read xMaxCount bytes from the pxStreamBuffer message buffer and write them
 199:../Dave/Generated/FREERTOS/stream_buffer.c ****  * to pucData.
 200:../Dave/Generated/FREERTOS/stream_buffer.c ****  */
 201:../Dave/Generated/FREERTOS/stream_buffer.c **** static size_t prvReadBytesFromBuffer( StreamBuffer_t * pxStreamBuffer,
 202:../Dave/Generated/FREERTOS/stream_buffer.c ****                                       uint8_t * pucData,
 203:../Dave/Generated/FREERTOS/stream_buffer.c ****                                       size_t xMaxCount,
 204:../Dave/Generated/FREERTOS/stream_buffer.c ****                                       size_t xBytesAvailable ) PRIVILEGED_FUNCTION;
 205:../Dave/Generated/FREERTOS/stream_buffer.c **** 
 206:../Dave/Generated/FREERTOS/stream_buffer.c **** /*
 207:../Dave/Generated/FREERTOS/stream_buffer.c ****  * Called by both pxStreamBufferCreate() and pxStreamBufferCreateStatic() to
 208:../Dave/Generated/FREERTOS/stream_buffer.c ****  * initialise the members of the newly created stream buffer structure.
 209:../Dave/Generated/FREERTOS/stream_buffer.c ****  */
 210:../Dave/Generated/FREERTOS/stream_buffer.c **** static void prvInitialiseNewStreamBuffer( StreamBuffer_t * const pxStreamBuffer,
 211:../Dave/Generated/FREERTOS/stream_buffer.c ****                                           uint8_t * const pucBuffer,
 212:../Dave/Generated/FREERTOS/stream_buffer.c ****                                           size_t xBufferSizeBytes,
 213:../Dave/Generated/FREERTOS/stream_buffer.c ****                                           size_t xTriggerLevelBytes,
 214:../Dave/Generated/FREERTOS/stream_buffer.c ****                                           uint8_t ucFlags ) PRIVILEGED_FUNCTION;
 215:../Dave/Generated/FREERTOS/stream_buffer.c **** 
 216:../Dave/Generated/FREERTOS/stream_buffer.c **** /*-----------------------------------------------------------*/
 217:../Dave/Generated/FREERTOS/stream_buffer.c **** 
 218:../Dave/Generated/FREERTOS/stream_buffer.c **** #if ( configSUPPORT_DYNAMIC_ALLOCATION == 1 )
 219:../Dave/Generated/FREERTOS/stream_buffer.c **** 
 220:../Dave/Generated/FREERTOS/stream_buffer.c ****     StreamBufferHandle_t xStreamBufferGenericCreate( size_t xBufferSizeBytes,
 221:../Dave/Generated/FREERTOS/stream_buffer.c ****                                                      size_t xTriggerLevelBytes,
 222:../Dave/Generated/FREERTOS/stream_buffer.c ****                                                      BaseType_t xIsMessageBuffer )
 223:../Dave/Generated/FREERTOS/stream_buffer.c ****     {
  28              	 .loc 1 223 0
  29              	 .cfi_startproc
  30              	 
  31              	 
  32 0000 80B5     	 push {r7,lr}
  33              	.LCFI0:
  34              	 .cfi_def_cfa_offset 8
  35              	 .cfi_offset 7,-8
  36              	 .cfi_offset 14,-4
  37 0002 8CB0     	 sub sp,sp,#48
  38              	.LCFI1:
  39              	 .cfi_def_cfa_offset 56
  40 0004 02AF     	 add r7,sp,#8
  41              	.LCFI2:
  42              	 .cfi_def_cfa 7,48
  43 0006 F860     	 str r0,[r7,#12]
  44 0008 B960     	 str r1,[r7,#8]
  45 000a 7A60     	 str r2,[r7,#4]
 224:../Dave/Generated/FREERTOS/stream_buffer.c ****         uint8_t * pucAllocatedMemory;
 225:../Dave/Generated/FREERTOS/stream_buffer.c ****         uint8_t ucFlags;
 226:../Dave/Generated/FREERTOS/stream_buffer.c **** 
 227:../Dave/Generated/FREERTOS/stream_buffer.c ****         /* In case the stream buffer is going to be used as a message buffer
 228:../Dave/Generated/FREERTOS/stream_buffer.c ****          * (that is, it will hold discrete messages with a little meta data that
 229:../Dave/Generated/FREERTOS/stream_buffer.c ****          * says how big the next message is) check the buffer will be large enough
 230:../Dave/Generated/FREERTOS/stream_buffer.c ****          * to hold at least one message. */
 231:../Dave/Generated/FREERTOS/stream_buffer.c ****         if( xIsMessageBuffer == pdTRUE )
  46              	 .loc 1 231 0
  47 000c 7B68     	 ldr r3,[r7,#4]
  48 000e 012B     	 cmp r3,#1
  49 0010 0FD1     	 bne .L2
 232:../Dave/Generated/FREERTOS/stream_buffer.c ****         {
 233:../Dave/Generated/FREERTOS/stream_buffer.c ****             /* Is a message buffer but not statically allocated. */
 234:../Dave/Generated/FREERTOS/stream_buffer.c ****             ucFlags = sbFLAGS_IS_MESSAGE_BUFFER;
  50              	 .loc 1 234 0
  51 0012 0123     	 movs r3,#1
  52 0014 87F82330 	 strb r3,[r7,#35]
 235:../Dave/Generated/FREERTOS/stream_buffer.c ****             configASSERT( xBufferSizeBytes > sbBYTES_TO_STORE_MESSAGE_LENGTH );
  53              	 .loc 1 235 0
  54 0018 FB68     	 ldr r3,[r7,#12]
  55 001a 042B     	 cmp r3,#4
  56 001c 19D8     	 bhi .L3
  57              	.LBB96:
  58              	.LBB97:
  59              	 .file 2 "C:/Infineon/Tools/DAVE IDE/4.5.0.202105191637/eclipse/workspace/xmc4800-CE/Dave/Generated/FREERTOS/portable/GCC/portmacro.h"
   1:C:/Infineon/Tools/DAVE IDE/4.5.0.202105191637/eclipse/workspace/xmc4800-CE/Dave/Generated/FREERTOS/portable/GCC\portmacro.h **** /*
   2:C:/Infineon/Tools/DAVE IDE/4.5.0.202105191637/eclipse/workspace/xmc4800-CE/Dave/Generated/FREERTOS/portable/GCC\portmacro.h ****  * FreeRTOS Kernel V10.4.3
   3:C:/Infineon/Tools/DAVE IDE/4.5.0.202105191637/eclipse/workspace/xmc4800-CE/Dave/Generated/FREERTOS/portable/GCC\portmacro.h ****  * Copyright (C) 2020 Amazon.com, Inc. or its affiliates.  All Rights Reserved.
   4:C:/Infineon/Tools/DAVE IDE/4.5.0.202105191637/eclipse/workspace/xmc4800-CE/Dave/Generated/FREERTOS/portable/GCC\portmacro.h ****  *
   5:C:/Infineon/Tools/DAVE IDE/4.5.0.202105191637/eclipse/workspace/xmc4800-CE/Dave/Generated/FREERTOS/portable/GCC\portmacro.h ****  * Permission is hereby granted, free of charge, to any person obtaining a copy of
   6:C:/Infineon/Tools/DAVE IDE/4.5.0.202105191637/eclipse/workspace/xmc4800-CE/Dave/Generated/FREERTOS/portable/GCC\portmacro.h ****  * this software and associated documentation files (the "Software"), to deal in
   7:C:/Infineon/Tools/DAVE IDE/4.5.0.202105191637/eclipse/workspace/xmc4800-CE/Dave/Generated/FREERTOS/portable/GCC\portmacro.h ****  * the Software without restriction, including without limitation the rights to
   8:C:/Infineon/Tools/DAVE IDE/4.5.0.202105191637/eclipse/workspace/xmc4800-CE/Dave/Generated/FREERTOS/portable/GCC\portmacro.h ****  * use, copy, modify, merge, publish, distribute, sublicense, and/or sell copies of
   9:C:/Infineon/Tools/DAVE IDE/4.5.0.202105191637/eclipse/workspace/xmc4800-CE/Dave/Generated/FREERTOS/portable/GCC\portmacro.h ****  * the Software, and to permit persons to whom the Software is furnished to do so,
  10:C:/Infineon/Tools/DAVE IDE/4.5.0.202105191637/eclipse/workspace/xmc4800-CE/Dave/Generated/FREERTOS/portable/GCC\portmacro.h ****  * subject to the following conditions:
  11:C:/Infineon/Tools/DAVE IDE/4.5.0.202105191637/eclipse/workspace/xmc4800-CE/Dave/Generated/FREERTOS/portable/GCC\portmacro.h ****  *
  12:C:/Infineon/Tools/DAVE IDE/4.5.0.202105191637/eclipse/workspace/xmc4800-CE/Dave/Generated/FREERTOS/portable/GCC\portmacro.h ****  * The above copyright notice and this permission notice shall be included in all
  13:C:/Infineon/Tools/DAVE IDE/4.5.0.202105191637/eclipse/workspace/xmc4800-CE/Dave/Generated/FREERTOS/portable/GCC\portmacro.h ****  * copies or substantial portions of the Software.
  14:C:/Infineon/Tools/DAVE IDE/4.5.0.202105191637/eclipse/workspace/xmc4800-CE/Dave/Generated/FREERTOS/portable/GCC\portmacro.h ****  *
  15:C:/Infineon/Tools/DAVE IDE/4.5.0.202105191637/eclipse/workspace/xmc4800-CE/Dave/Generated/FREERTOS/portable/GCC\portmacro.h ****  * THE SOFTWARE IS PROVIDED "AS IS", WITHOUT WARRANTY OF ANY KIND, EXPRESS OR
  16:C:/Infineon/Tools/DAVE IDE/4.5.0.202105191637/eclipse/workspace/xmc4800-CE/Dave/Generated/FREERTOS/portable/GCC\portmacro.h ****  * IMPLIED, INCLUDING BUT NOT LIMITED TO THE WARRANTIES OF MERCHANTABILITY, FITNESS
  17:C:/Infineon/Tools/DAVE IDE/4.5.0.202105191637/eclipse/workspace/xmc4800-CE/Dave/Generated/FREERTOS/portable/GCC\portmacro.h ****  * FOR A PARTICULAR PURPOSE AND NONINFRINGEMENT. IN NO EVENT SHALL THE AUTHORS OR
  18:C:/Infineon/Tools/DAVE IDE/4.5.0.202105191637/eclipse/workspace/xmc4800-CE/Dave/Generated/FREERTOS/portable/GCC\portmacro.h ****  * COPYRIGHT HOLDERS BE LIABLE FOR ANY CLAIM, DAMAGES OR OTHER LIABILITY, WHETHER
  19:C:/Infineon/Tools/DAVE IDE/4.5.0.202105191637/eclipse/workspace/xmc4800-CE/Dave/Generated/FREERTOS/portable/GCC\portmacro.h ****  * IN AN ACTION OF CONTRACT, TORT OR OTHERWISE, ARISING FROM, OUT OF OR IN
  20:C:/Infineon/Tools/DAVE IDE/4.5.0.202105191637/eclipse/workspace/xmc4800-CE/Dave/Generated/FREERTOS/portable/GCC\portmacro.h ****  * CONNECTION WITH THE SOFTWARE OR THE USE OR OTHER DEALINGS IN THE SOFTWARE.
  21:C:/Infineon/Tools/DAVE IDE/4.5.0.202105191637/eclipse/workspace/xmc4800-CE/Dave/Generated/FREERTOS/portable/GCC\portmacro.h ****  *
  22:C:/Infineon/Tools/DAVE IDE/4.5.0.202105191637/eclipse/workspace/xmc4800-CE/Dave/Generated/FREERTOS/portable/GCC\portmacro.h ****  * https://www.FreeRTOS.org
  23:C:/Infineon/Tools/DAVE IDE/4.5.0.202105191637/eclipse/workspace/xmc4800-CE/Dave/Generated/FREERTOS/portable/GCC\portmacro.h ****  * https://github.com/FreeRTOS
  24:C:/Infineon/Tools/DAVE IDE/4.5.0.202105191637/eclipse/workspace/xmc4800-CE/Dave/Generated/FREERTOS/portable/GCC\portmacro.h ****  *
  25:C:/Infineon/Tools/DAVE IDE/4.5.0.202105191637/eclipse/workspace/xmc4800-CE/Dave/Generated/FREERTOS/portable/GCC\portmacro.h ****  * 1 tab == 4 spaces!
  26:C:/Infineon/Tools/DAVE IDE/4.5.0.202105191637/eclipse/workspace/xmc4800-CE/Dave/Generated/FREERTOS/portable/GCC\portmacro.h ****  */
  27:C:/Infineon/Tools/DAVE IDE/4.5.0.202105191637/eclipse/workspace/xmc4800-CE/Dave/Generated/FREERTOS/portable/GCC\portmacro.h **** 
  28:C:/Infineon/Tools/DAVE IDE/4.5.0.202105191637/eclipse/workspace/xmc4800-CE/Dave/Generated/FREERTOS/portable/GCC\portmacro.h **** 
  29:C:/Infineon/Tools/DAVE IDE/4.5.0.202105191637/eclipse/workspace/xmc4800-CE/Dave/Generated/FREERTOS/portable/GCC\portmacro.h **** #ifndef PORTMACRO_H
  30:C:/Infineon/Tools/DAVE IDE/4.5.0.202105191637/eclipse/workspace/xmc4800-CE/Dave/Generated/FREERTOS/portable/GCC\portmacro.h ****     #define PORTMACRO_H
  31:C:/Infineon/Tools/DAVE IDE/4.5.0.202105191637/eclipse/workspace/xmc4800-CE/Dave/Generated/FREERTOS/portable/GCC\portmacro.h **** 
  32:C:/Infineon/Tools/DAVE IDE/4.5.0.202105191637/eclipse/workspace/xmc4800-CE/Dave/Generated/FREERTOS/portable/GCC\portmacro.h ****     #ifdef __cplusplus
  33:C:/Infineon/Tools/DAVE IDE/4.5.0.202105191637/eclipse/workspace/xmc4800-CE/Dave/Generated/FREERTOS/portable/GCC\portmacro.h ****         extern "C" {
  34:C:/Infineon/Tools/DAVE IDE/4.5.0.202105191637/eclipse/workspace/xmc4800-CE/Dave/Generated/FREERTOS/portable/GCC\portmacro.h ****     #endif
  35:C:/Infineon/Tools/DAVE IDE/4.5.0.202105191637/eclipse/workspace/xmc4800-CE/Dave/Generated/FREERTOS/portable/GCC\portmacro.h **** 
  36:C:/Infineon/Tools/DAVE IDE/4.5.0.202105191637/eclipse/workspace/xmc4800-CE/Dave/Generated/FREERTOS/portable/GCC\portmacro.h **** /*-----------------------------------------------------------
  37:C:/Infineon/Tools/DAVE IDE/4.5.0.202105191637/eclipse/workspace/xmc4800-CE/Dave/Generated/FREERTOS/portable/GCC\portmacro.h ****  * Port specific definitions.
  38:C:/Infineon/Tools/DAVE IDE/4.5.0.202105191637/eclipse/workspace/xmc4800-CE/Dave/Generated/FREERTOS/portable/GCC\portmacro.h ****  *
  39:C:/Infineon/Tools/DAVE IDE/4.5.0.202105191637/eclipse/workspace/xmc4800-CE/Dave/Generated/FREERTOS/portable/GCC\portmacro.h ****  * The settings in this file configure FreeRTOS correctly for the
  40:C:/Infineon/Tools/DAVE IDE/4.5.0.202105191637/eclipse/workspace/xmc4800-CE/Dave/Generated/FREERTOS/portable/GCC\portmacro.h ****  * given hardware and compiler.
  41:C:/Infineon/Tools/DAVE IDE/4.5.0.202105191637/eclipse/workspace/xmc4800-CE/Dave/Generated/FREERTOS/portable/GCC\portmacro.h ****  *
  42:C:/Infineon/Tools/DAVE IDE/4.5.0.202105191637/eclipse/workspace/xmc4800-CE/Dave/Generated/FREERTOS/portable/GCC\portmacro.h ****  * These settings should not be altered.
  43:C:/Infineon/Tools/DAVE IDE/4.5.0.202105191637/eclipse/workspace/xmc4800-CE/Dave/Generated/FREERTOS/portable/GCC\portmacro.h ****  *-----------------------------------------------------------
  44:C:/Infineon/Tools/DAVE IDE/4.5.0.202105191637/eclipse/workspace/xmc4800-CE/Dave/Generated/FREERTOS/portable/GCC\portmacro.h ****  */
  45:C:/Infineon/Tools/DAVE IDE/4.5.0.202105191637/eclipse/workspace/xmc4800-CE/Dave/Generated/FREERTOS/portable/GCC\portmacro.h **** 
  46:C:/Infineon/Tools/DAVE IDE/4.5.0.202105191637/eclipse/workspace/xmc4800-CE/Dave/Generated/FREERTOS/portable/GCC\portmacro.h **** /* Type definitions. */
  47:C:/Infineon/Tools/DAVE IDE/4.5.0.202105191637/eclipse/workspace/xmc4800-CE/Dave/Generated/FREERTOS/portable/GCC\portmacro.h ****     #define portCHAR          char
  48:C:/Infineon/Tools/DAVE IDE/4.5.0.202105191637/eclipse/workspace/xmc4800-CE/Dave/Generated/FREERTOS/portable/GCC\portmacro.h ****     #define portFLOAT         float
  49:C:/Infineon/Tools/DAVE IDE/4.5.0.202105191637/eclipse/workspace/xmc4800-CE/Dave/Generated/FREERTOS/portable/GCC\portmacro.h ****     #define portDOUBLE        double
  50:C:/Infineon/Tools/DAVE IDE/4.5.0.202105191637/eclipse/workspace/xmc4800-CE/Dave/Generated/FREERTOS/portable/GCC\portmacro.h ****     #define portLONG          long
  51:C:/Infineon/Tools/DAVE IDE/4.5.0.202105191637/eclipse/workspace/xmc4800-CE/Dave/Generated/FREERTOS/portable/GCC\portmacro.h ****     #define portSHORT         short
  52:C:/Infineon/Tools/DAVE IDE/4.5.0.202105191637/eclipse/workspace/xmc4800-CE/Dave/Generated/FREERTOS/portable/GCC\portmacro.h ****     #define portSTACK_TYPE    uint32_t
  53:C:/Infineon/Tools/DAVE IDE/4.5.0.202105191637/eclipse/workspace/xmc4800-CE/Dave/Generated/FREERTOS/portable/GCC\portmacro.h ****     #define portBASE_TYPE     long
  54:C:/Infineon/Tools/DAVE IDE/4.5.0.202105191637/eclipse/workspace/xmc4800-CE/Dave/Generated/FREERTOS/portable/GCC\portmacro.h **** 
  55:C:/Infineon/Tools/DAVE IDE/4.5.0.202105191637/eclipse/workspace/xmc4800-CE/Dave/Generated/FREERTOS/portable/GCC\portmacro.h ****     typedef portSTACK_TYPE   StackType_t;
  56:C:/Infineon/Tools/DAVE IDE/4.5.0.202105191637/eclipse/workspace/xmc4800-CE/Dave/Generated/FREERTOS/portable/GCC\portmacro.h ****     typedef long             BaseType_t;
  57:C:/Infineon/Tools/DAVE IDE/4.5.0.202105191637/eclipse/workspace/xmc4800-CE/Dave/Generated/FREERTOS/portable/GCC\portmacro.h ****     typedef unsigned long    UBaseType_t;
  58:C:/Infineon/Tools/DAVE IDE/4.5.0.202105191637/eclipse/workspace/xmc4800-CE/Dave/Generated/FREERTOS/portable/GCC\portmacro.h **** 
  59:C:/Infineon/Tools/DAVE IDE/4.5.0.202105191637/eclipse/workspace/xmc4800-CE/Dave/Generated/FREERTOS/portable/GCC\portmacro.h ****     #if ( configUSE_16_BIT_TICKS == 1 )
  60:C:/Infineon/Tools/DAVE IDE/4.5.0.202105191637/eclipse/workspace/xmc4800-CE/Dave/Generated/FREERTOS/portable/GCC\portmacro.h ****         typedef uint16_t     TickType_t;
  61:C:/Infineon/Tools/DAVE IDE/4.5.0.202105191637/eclipse/workspace/xmc4800-CE/Dave/Generated/FREERTOS/portable/GCC\portmacro.h ****         #define portMAX_DELAY              ( TickType_t ) 0xffff
  62:C:/Infineon/Tools/DAVE IDE/4.5.0.202105191637/eclipse/workspace/xmc4800-CE/Dave/Generated/FREERTOS/portable/GCC\portmacro.h ****     #else
  63:C:/Infineon/Tools/DAVE IDE/4.5.0.202105191637/eclipse/workspace/xmc4800-CE/Dave/Generated/FREERTOS/portable/GCC\portmacro.h ****         typedef uint32_t     TickType_t;
  64:C:/Infineon/Tools/DAVE IDE/4.5.0.202105191637/eclipse/workspace/xmc4800-CE/Dave/Generated/FREERTOS/portable/GCC\portmacro.h ****         #define portMAX_DELAY              ( TickType_t ) 0xffffffffUL
  65:C:/Infineon/Tools/DAVE IDE/4.5.0.202105191637/eclipse/workspace/xmc4800-CE/Dave/Generated/FREERTOS/portable/GCC\portmacro.h **** 
  66:C:/Infineon/Tools/DAVE IDE/4.5.0.202105191637/eclipse/workspace/xmc4800-CE/Dave/Generated/FREERTOS/portable/GCC\portmacro.h **** /* 32-bit tick type on a 32-bit architecture, so reads of the tick count do
  67:C:/Infineon/Tools/DAVE IDE/4.5.0.202105191637/eclipse/workspace/xmc4800-CE/Dave/Generated/FREERTOS/portable/GCC\portmacro.h ****  * not need to be guarded with a critical section. */
  68:C:/Infineon/Tools/DAVE IDE/4.5.0.202105191637/eclipse/workspace/xmc4800-CE/Dave/Generated/FREERTOS/portable/GCC\portmacro.h ****         #define portTICK_TYPE_IS_ATOMIC    1
  69:C:/Infineon/Tools/DAVE IDE/4.5.0.202105191637/eclipse/workspace/xmc4800-CE/Dave/Generated/FREERTOS/portable/GCC\portmacro.h ****     #endif
  70:C:/Infineon/Tools/DAVE IDE/4.5.0.202105191637/eclipse/workspace/xmc4800-CE/Dave/Generated/FREERTOS/portable/GCC\portmacro.h **** /*-----------------------------------------------------------*/
  71:C:/Infineon/Tools/DAVE IDE/4.5.0.202105191637/eclipse/workspace/xmc4800-CE/Dave/Generated/FREERTOS/portable/GCC\portmacro.h **** 
  72:C:/Infineon/Tools/DAVE IDE/4.5.0.202105191637/eclipse/workspace/xmc4800-CE/Dave/Generated/FREERTOS/portable/GCC\portmacro.h **** /* Architecture specifics. */
  73:C:/Infineon/Tools/DAVE IDE/4.5.0.202105191637/eclipse/workspace/xmc4800-CE/Dave/Generated/FREERTOS/portable/GCC\portmacro.h ****     #define portSTACK_GROWTH      ( -1 )
  74:C:/Infineon/Tools/DAVE IDE/4.5.0.202105191637/eclipse/workspace/xmc4800-CE/Dave/Generated/FREERTOS/portable/GCC\portmacro.h ****     #define portTICK_PERIOD_MS    ( ( TickType_t ) 1000 / configTICK_RATE_HZ )
  75:C:/Infineon/Tools/DAVE IDE/4.5.0.202105191637/eclipse/workspace/xmc4800-CE/Dave/Generated/FREERTOS/portable/GCC\portmacro.h ****     #define portBYTE_ALIGNMENT    8
  76:C:/Infineon/Tools/DAVE IDE/4.5.0.202105191637/eclipse/workspace/xmc4800-CE/Dave/Generated/FREERTOS/portable/GCC\portmacro.h ****     #define portDONT_DISCARD      __attribute__( ( used ) )
  77:C:/Infineon/Tools/DAVE IDE/4.5.0.202105191637/eclipse/workspace/xmc4800-CE/Dave/Generated/FREERTOS/portable/GCC\portmacro.h **** /*-----------------------------------------------------------*/
  78:C:/Infineon/Tools/DAVE IDE/4.5.0.202105191637/eclipse/workspace/xmc4800-CE/Dave/Generated/FREERTOS/portable/GCC\portmacro.h **** 
  79:C:/Infineon/Tools/DAVE IDE/4.5.0.202105191637/eclipse/workspace/xmc4800-CE/Dave/Generated/FREERTOS/portable/GCC\portmacro.h **** /* Scheduler utilities. */
  80:C:/Infineon/Tools/DAVE IDE/4.5.0.202105191637/eclipse/workspace/xmc4800-CE/Dave/Generated/FREERTOS/portable/GCC\portmacro.h ****     #define portYIELD()                                 \
  81:C:/Infineon/Tools/DAVE IDE/4.5.0.202105191637/eclipse/workspace/xmc4800-CE/Dave/Generated/FREERTOS/portable/GCC\portmacro.h ****     {                                                   \
  82:C:/Infineon/Tools/DAVE IDE/4.5.0.202105191637/eclipse/workspace/xmc4800-CE/Dave/Generated/FREERTOS/portable/GCC\portmacro.h ****         /* Set a PendSV to request a context switch. */ \
  83:C:/Infineon/Tools/DAVE IDE/4.5.0.202105191637/eclipse/workspace/xmc4800-CE/Dave/Generated/FREERTOS/portable/GCC\portmacro.h ****         portNVIC_INT_CTRL_REG = portNVIC_PENDSVSET_BIT; \
  84:C:/Infineon/Tools/DAVE IDE/4.5.0.202105191637/eclipse/workspace/xmc4800-CE/Dave/Generated/FREERTOS/portable/GCC\portmacro.h ****                                                         \
  85:C:/Infineon/Tools/DAVE IDE/4.5.0.202105191637/eclipse/workspace/xmc4800-CE/Dave/Generated/FREERTOS/portable/GCC\portmacro.h ****         /* Barriers are normally not required but do ensure the code is completely \
  86:C:/Infineon/Tools/DAVE IDE/4.5.0.202105191637/eclipse/workspace/xmc4800-CE/Dave/Generated/FREERTOS/portable/GCC\portmacro.h ****          * within the specified behaviour for the architecture. */ \
  87:C:/Infineon/Tools/DAVE IDE/4.5.0.202105191637/eclipse/workspace/xmc4800-CE/Dave/Generated/FREERTOS/portable/GCC\portmacro.h ****         __asm volatile ( "dsb" ::: "memory" );                     \
  88:C:/Infineon/Tools/DAVE IDE/4.5.0.202105191637/eclipse/workspace/xmc4800-CE/Dave/Generated/FREERTOS/portable/GCC\portmacro.h ****         __asm volatile ( "isb" );                                  \
  89:C:/Infineon/Tools/DAVE IDE/4.5.0.202105191637/eclipse/workspace/xmc4800-CE/Dave/Generated/FREERTOS/portable/GCC\portmacro.h ****     }
  90:C:/Infineon/Tools/DAVE IDE/4.5.0.202105191637/eclipse/workspace/xmc4800-CE/Dave/Generated/FREERTOS/portable/GCC\portmacro.h **** 
  91:C:/Infineon/Tools/DAVE IDE/4.5.0.202105191637/eclipse/workspace/xmc4800-CE/Dave/Generated/FREERTOS/portable/GCC\portmacro.h ****     #define portNVIC_INT_CTRL_REG     ( *( ( volatile uint32_t * ) 0xe000ed04 ) )
  92:C:/Infineon/Tools/DAVE IDE/4.5.0.202105191637/eclipse/workspace/xmc4800-CE/Dave/Generated/FREERTOS/portable/GCC\portmacro.h ****     #define portNVIC_PENDSVSET_BIT    ( 1UL << 28UL )
  93:C:/Infineon/Tools/DAVE IDE/4.5.0.202105191637/eclipse/workspace/xmc4800-CE/Dave/Generated/FREERTOS/portable/GCC\portmacro.h ****     #define portEND_SWITCHING_ISR( xSwitchRequired )    if( xSwitchRequired != pdFALSE ) portYIELD(
  94:C:/Infineon/Tools/DAVE IDE/4.5.0.202105191637/eclipse/workspace/xmc4800-CE/Dave/Generated/FREERTOS/portable/GCC\portmacro.h ****     #define portYIELD_FROM_ISR( x )                     portEND_SWITCHING_ISR( x )
  95:C:/Infineon/Tools/DAVE IDE/4.5.0.202105191637/eclipse/workspace/xmc4800-CE/Dave/Generated/FREERTOS/portable/GCC\portmacro.h **** /*-----------------------------------------------------------*/
  96:C:/Infineon/Tools/DAVE IDE/4.5.0.202105191637/eclipse/workspace/xmc4800-CE/Dave/Generated/FREERTOS/portable/GCC\portmacro.h **** 
  97:C:/Infineon/Tools/DAVE IDE/4.5.0.202105191637/eclipse/workspace/xmc4800-CE/Dave/Generated/FREERTOS/portable/GCC\portmacro.h **** /* Critical section management. */
  98:C:/Infineon/Tools/DAVE IDE/4.5.0.202105191637/eclipse/workspace/xmc4800-CE/Dave/Generated/FREERTOS/portable/GCC\portmacro.h ****     extern void vPortEnterCritical( void );
  99:C:/Infineon/Tools/DAVE IDE/4.5.0.202105191637/eclipse/workspace/xmc4800-CE/Dave/Generated/FREERTOS/portable/GCC\portmacro.h ****     extern void vPortExitCritical( void );
 100:C:/Infineon/Tools/DAVE IDE/4.5.0.202105191637/eclipse/workspace/xmc4800-CE/Dave/Generated/FREERTOS/portable/GCC\portmacro.h ****     #define portSET_INTERRUPT_MASK_FROM_ISR()         ulPortRaiseBASEPRI()
 101:C:/Infineon/Tools/DAVE IDE/4.5.0.202105191637/eclipse/workspace/xmc4800-CE/Dave/Generated/FREERTOS/portable/GCC\portmacro.h ****     #define portCLEAR_INTERRUPT_MASK_FROM_ISR( x )    vPortSetBASEPRI( x )
 102:C:/Infineon/Tools/DAVE IDE/4.5.0.202105191637/eclipse/workspace/xmc4800-CE/Dave/Generated/FREERTOS/portable/GCC\portmacro.h ****     #define portDISABLE_INTERRUPTS()                  vPortRaiseBASEPRI()
 103:C:/Infineon/Tools/DAVE IDE/4.5.0.202105191637/eclipse/workspace/xmc4800-CE/Dave/Generated/FREERTOS/portable/GCC\portmacro.h ****     #define portENABLE_INTERRUPTS()                   vPortSetBASEPRI( 0 )
 104:C:/Infineon/Tools/DAVE IDE/4.5.0.202105191637/eclipse/workspace/xmc4800-CE/Dave/Generated/FREERTOS/portable/GCC\portmacro.h ****     #define portENTER_CRITICAL()                      vPortEnterCritical()
 105:C:/Infineon/Tools/DAVE IDE/4.5.0.202105191637/eclipse/workspace/xmc4800-CE/Dave/Generated/FREERTOS/portable/GCC\portmacro.h ****     #define portEXIT_CRITICAL()                       vPortExitCritical()
 106:C:/Infineon/Tools/DAVE IDE/4.5.0.202105191637/eclipse/workspace/xmc4800-CE/Dave/Generated/FREERTOS/portable/GCC\portmacro.h **** 
 107:C:/Infineon/Tools/DAVE IDE/4.5.0.202105191637/eclipse/workspace/xmc4800-CE/Dave/Generated/FREERTOS/portable/GCC\portmacro.h **** /*-----------------------------------------------------------*/
 108:C:/Infineon/Tools/DAVE IDE/4.5.0.202105191637/eclipse/workspace/xmc4800-CE/Dave/Generated/FREERTOS/portable/GCC\portmacro.h **** 
 109:C:/Infineon/Tools/DAVE IDE/4.5.0.202105191637/eclipse/workspace/xmc4800-CE/Dave/Generated/FREERTOS/portable/GCC\portmacro.h **** /* Task function macros as described on the FreeRTOS.org WEB site.  These are
 110:C:/Infineon/Tools/DAVE IDE/4.5.0.202105191637/eclipse/workspace/xmc4800-CE/Dave/Generated/FREERTOS/portable/GCC\portmacro.h ****  * not necessary for to use this port.  They are defined so the common demo files
 111:C:/Infineon/Tools/DAVE IDE/4.5.0.202105191637/eclipse/workspace/xmc4800-CE/Dave/Generated/FREERTOS/portable/GCC\portmacro.h ****  * (which build with all the ports) will build. */
 112:C:/Infineon/Tools/DAVE IDE/4.5.0.202105191637/eclipse/workspace/xmc4800-CE/Dave/Generated/FREERTOS/portable/GCC\portmacro.h ****     #define portTASK_FUNCTION_PROTO( vFunction, pvParameters )    void vFunction( void * pvParamete
 113:C:/Infineon/Tools/DAVE IDE/4.5.0.202105191637/eclipse/workspace/xmc4800-CE/Dave/Generated/FREERTOS/portable/GCC\portmacro.h ****     #define portTASK_FUNCTION( vFunction, pvParameters )          void vFunction( void * pvParamete
 114:C:/Infineon/Tools/DAVE IDE/4.5.0.202105191637/eclipse/workspace/xmc4800-CE/Dave/Generated/FREERTOS/portable/GCC\portmacro.h **** /*-----------------------------------------------------------*/
 115:C:/Infineon/Tools/DAVE IDE/4.5.0.202105191637/eclipse/workspace/xmc4800-CE/Dave/Generated/FREERTOS/portable/GCC\portmacro.h **** 
 116:C:/Infineon/Tools/DAVE IDE/4.5.0.202105191637/eclipse/workspace/xmc4800-CE/Dave/Generated/FREERTOS/portable/GCC\portmacro.h **** /* Tickless idle/low power functionality. */
 117:C:/Infineon/Tools/DAVE IDE/4.5.0.202105191637/eclipse/workspace/xmc4800-CE/Dave/Generated/FREERTOS/portable/GCC\portmacro.h ****     #ifndef portSUPPRESS_TICKS_AND_SLEEP
 118:C:/Infineon/Tools/DAVE IDE/4.5.0.202105191637/eclipse/workspace/xmc4800-CE/Dave/Generated/FREERTOS/portable/GCC\portmacro.h ****         extern void vPortSuppressTicksAndSleep( TickType_t xExpectedIdleTime );
 119:C:/Infineon/Tools/DAVE IDE/4.5.0.202105191637/eclipse/workspace/xmc4800-CE/Dave/Generated/FREERTOS/portable/GCC\portmacro.h ****         #define portSUPPRESS_TICKS_AND_SLEEP( xExpectedIdleTime )    vPortSuppressTicksAndSleep( xE
 120:C:/Infineon/Tools/DAVE IDE/4.5.0.202105191637/eclipse/workspace/xmc4800-CE/Dave/Generated/FREERTOS/portable/GCC\portmacro.h ****     #endif
 121:C:/Infineon/Tools/DAVE IDE/4.5.0.202105191637/eclipse/workspace/xmc4800-CE/Dave/Generated/FREERTOS/portable/GCC\portmacro.h **** /*-----------------------------------------------------------*/
 122:C:/Infineon/Tools/DAVE IDE/4.5.0.202105191637/eclipse/workspace/xmc4800-CE/Dave/Generated/FREERTOS/portable/GCC\portmacro.h **** 
 123:C:/Infineon/Tools/DAVE IDE/4.5.0.202105191637/eclipse/workspace/xmc4800-CE/Dave/Generated/FREERTOS/portable/GCC\portmacro.h **** /* Architecture specific optimisations. */
 124:C:/Infineon/Tools/DAVE IDE/4.5.0.202105191637/eclipse/workspace/xmc4800-CE/Dave/Generated/FREERTOS/portable/GCC\portmacro.h ****     #ifndef configUSE_PORT_OPTIMISED_TASK_SELECTION
 125:C:/Infineon/Tools/DAVE IDE/4.5.0.202105191637/eclipse/workspace/xmc4800-CE/Dave/Generated/FREERTOS/portable/GCC\portmacro.h ****         #define configUSE_PORT_OPTIMISED_TASK_SELECTION    1
 126:C:/Infineon/Tools/DAVE IDE/4.5.0.202105191637/eclipse/workspace/xmc4800-CE/Dave/Generated/FREERTOS/portable/GCC\portmacro.h ****     #endif
 127:C:/Infineon/Tools/DAVE IDE/4.5.0.202105191637/eclipse/workspace/xmc4800-CE/Dave/Generated/FREERTOS/portable/GCC\portmacro.h **** 
 128:C:/Infineon/Tools/DAVE IDE/4.5.0.202105191637/eclipse/workspace/xmc4800-CE/Dave/Generated/FREERTOS/portable/GCC\portmacro.h ****     #if configUSE_PORT_OPTIMISED_TASK_SELECTION == 1
 129:C:/Infineon/Tools/DAVE IDE/4.5.0.202105191637/eclipse/workspace/xmc4800-CE/Dave/Generated/FREERTOS/portable/GCC\portmacro.h **** 
 130:C:/Infineon/Tools/DAVE IDE/4.5.0.202105191637/eclipse/workspace/xmc4800-CE/Dave/Generated/FREERTOS/portable/GCC\portmacro.h **** /* Generic helper function. */
 131:C:/Infineon/Tools/DAVE IDE/4.5.0.202105191637/eclipse/workspace/xmc4800-CE/Dave/Generated/FREERTOS/portable/GCC\portmacro.h ****         __attribute__( ( always_inline ) ) static inline uint8_t ucPortCountLeadingZeros( uint32_t 
 132:C:/Infineon/Tools/DAVE IDE/4.5.0.202105191637/eclipse/workspace/xmc4800-CE/Dave/Generated/FREERTOS/portable/GCC\portmacro.h ****         {
 133:C:/Infineon/Tools/DAVE IDE/4.5.0.202105191637/eclipse/workspace/xmc4800-CE/Dave/Generated/FREERTOS/portable/GCC\portmacro.h ****             uint8_t ucReturn;
 134:C:/Infineon/Tools/DAVE IDE/4.5.0.202105191637/eclipse/workspace/xmc4800-CE/Dave/Generated/FREERTOS/portable/GCC\portmacro.h **** 
 135:C:/Infineon/Tools/DAVE IDE/4.5.0.202105191637/eclipse/workspace/xmc4800-CE/Dave/Generated/FREERTOS/portable/GCC\portmacro.h ****             __asm volatile ( "clz %0, %1" : "=r" ( ucReturn ) : "r" ( ulBitmap ) : "memory" );
 136:C:/Infineon/Tools/DAVE IDE/4.5.0.202105191637/eclipse/workspace/xmc4800-CE/Dave/Generated/FREERTOS/portable/GCC\portmacro.h **** 
 137:C:/Infineon/Tools/DAVE IDE/4.5.0.202105191637/eclipse/workspace/xmc4800-CE/Dave/Generated/FREERTOS/portable/GCC\portmacro.h ****             return ucReturn;
 138:C:/Infineon/Tools/DAVE IDE/4.5.0.202105191637/eclipse/workspace/xmc4800-CE/Dave/Generated/FREERTOS/portable/GCC\portmacro.h ****         }
 139:C:/Infineon/Tools/DAVE IDE/4.5.0.202105191637/eclipse/workspace/xmc4800-CE/Dave/Generated/FREERTOS/portable/GCC\portmacro.h **** 
 140:C:/Infineon/Tools/DAVE IDE/4.5.0.202105191637/eclipse/workspace/xmc4800-CE/Dave/Generated/FREERTOS/portable/GCC\portmacro.h **** /* Check the configuration. */
 141:C:/Infineon/Tools/DAVE IDE/4.5.0.202105191637/eclipse/workspace/xmc4800-CE/Dave/Generated/FREERTOS/portable/GCC\portmacro.h ****         #if ( configMAX_PRIORITIES > 32 )
 142:C:/Infineon/Tools/DAVE IDE/4.5.0.202105191637/eclipse/workspace/xmc4800-CE/Dave/Generated/FREERTOS/portable/GCC\portmacro.h ****             #error configUSE_PORT_OPTIMISED_TASK_SELECTION can only be set to 1 when configMAX_PRIO
 143:C:/Infineon/Tools/DAVE IDE/4.5.0.202105191637/eclipse/workspace/xmc4800-CE/Dave/Generated/FREERTOS/portable/GCC\portmacro.h ****         #endif
 144:C:/Infineon/Tools/DAVE IDE/4.5.0.202105191637/eclipse/workspace/xmc4800-CE/Dave/Generated/FREERTOS/portable/GCC\portmacro.h **** 
 145:C:/Infineon/Tools/DAVE IDE/4.5.0.202105191637/eclipse/workspace/xmc4800-CE/Dave/Generated/FREERTOS/portable/GCC\portmacro.h **** /* Store/clear the ready priorities in a bit map. */
 146:C:/Infineon/Tools/DAVE IDE/4.5.0.202105191637/eclipse/workspace/xmc4800-CE/Dave/Generated/FREERTOS/portable/GCC\portmacro.h ****         #define portRECORD_READY_PRIORITY( uxPriority, uxReadyPriorities )    ( uxReadyPriorities )
 147:C:/Infineon/Tools/DAVE IDE/4.5.0.202105191637/eclipse/workspace/xmc4800-CE/Dave/Generated/FREERTOS/portable/GCC\portmacro.h ****         #define portRESET_READY_PRIORITY( uxPriority, uxReadyPriorities )     ( uxReadyPriorities )
 148:C:/Infineon/Tools/DAVE IDE/4.5.0.202105191637/eclipse/workspace/xmc4800-CE/Dave/Generated/FREERTOS/portable/GCC\portmacro.h **** 
 149:C:/Infineon/Tools/DAVE IDE/4.5.0.202105191637/eclipse/workspace/xmc4800-CE/Dave/Generated/FREERTOS/portable/GCC\portmacro.h **** /*-----------------------------------------------------------*/
 150:C:/Infineon/Tools/DAVE IDE/4.5.0.202105191637/eclipse/workspace/xmc4800-CE/Dave/Generated/FREERTOS/portable/GCC\portmacro.h **** 
 151:C:/Infineon/Tools/DAVE IDE/4.5.0.202105191637/eclipse/workspace/xmc4800-CE/Dave/Generated/FREERTOS/portable/GCC\portmacro.h ****         #define portGET_HIGHEST_PRIORITY( uxTopPriority, uxReadyPriorities )    uxTopPriority = ( 3
 152:C:/Infineon/Tools/DAVE IDE/4.5.0.202105191637/eclipse/workspace/xmc4800-CE/Dave/Generated/FREERTOS/portable/GCC\portmacro.h **** 
 153:C:/Infineon/Tools/DAVE IDE/4.5.0.202105191637/eclipse/workspace/xmc4800-CE/Dave/Generated/FREERTOS/portable/GCC\portmacro.h ****     #endif /* configUSE_PORT_OPTIMISED_TASK_SELECTION */
 154:C:/Infineon/Tools/DAVE IDE/4.5.0.202105191637/eclipse/workspace/xmc4800-CE/Dave/Generated/FREERTOS/portable/GCC\portmacro.h **** 
 155:C:/Infineon/Tools/DAVE IDE/4.5.0.202105191637/eclipse/workspace/xmc4800-CE/Dave/Generated/FREERTOS/portable/GCC\portmacro.h **** /*-----------------------------------------------------------*/
 156:C:/Infineon/Tools/DAVE IDE/4.5.0.202105191637/eclipse/workspace/xmc4800-CE/Dave/Generated/FREERTOS/portable/GCC\portmacro.h **** 
 157:C:/Infineon/Tools/DAVE IDE/4.5.0.202105191637/eclipse/workspace/xmc4800-CE/Dave/Generated/FREERTOS/portable/GCC\portmacro.h ****     #ifdef configASSERT
 158:C:/Infineon/Tools/DAVE IDE/4.5.0.202105191637/eclipse/workspace/xmc4800-CE/Dave/Generated/FREERTOS/portable/GCC\portmacro.h ****         void vPortValidateInterruptPriority( void );
 159:C:/Infineon/Tools/DAVE IDE/4.5.0.202105191637/eclipse/workspace/xmc4800-CE/Dave/Generated/FREERTOS/portable/GCC\portmacro.h ****         #define portASSERT_IF_INTERRUPT_PRIORITY_INVALID()    vPortValidateInterruptPriority()
 160:C:/Infineon/Tools/DAVE IDE/4.5.0.202105191637/eclipse/workspace/xmc4800-CE/Dave/Generated/FREERTOS/portable/GCC\portmacro.h ****     #endif
 161:C:/Infineon/Tools/DAVE IDE/4.5.0.202105191637/eclipse/workspace/xmc4800-CE/Dave/Generated/FREERTOS/portable/GCC\portmacro.h **** 
 162:C:/Infineon/Tools/DAVE IDE/4.5.0.202105191637/eclipse/workspace/xmc4800-CE/Dave/Generated/FREERTOS/portable/GCC\portmacro.h **** /* portNOP() is not required by this port. */
 163:C:/Infineon/Tools/DAVE IDE/4.5.0.202105191637/eclipse/workspace/xmc4800-CE/Dave/Generated/FREERTOS/portable/GCC\portmacro.h ****     #define portNOP()
 164:C:/Infineon/Tools/DAVE IDE/4.5.0.202105191637/eclipse/workspace/xmc4800-CE/Dave/Generated/FREERTOS/portable/GCC\portmacro.h **** 
 165:C:/Infineon/Tools/DAVE IDE/4.5.0.202105191637/eclipse/workspace/xmc4800-CE/Dave/Generated/FREERTOS/portable/GCC\portmacro.h ****     #define portINLINE              __inline
 166:C:/Infineon/Tools/DAVE IDE/4.5.0.202105191637/eclipse/workspace/xmc4800-CE/Dave/Generated/FREERTOS/portable/GCC\portmacro.h **** 
 167:C:/Infineon/Tools/DAVE IDE/4.5.0.202105191637/eclipse/workspace/xmc4800-CE/Dave/Generated/FREERTOS/portable/GCC\portmacro.h ****     #ifndef portFORCE_INLINE
 168:C:/Infineon/Tools/DAVE IDE/4.5.0.202105191637/eclipse/workspace/xmc4800-CE/Dave/Generated/FREERTOS/portable/GCC\portmacro.h ****         #define portFORCE_INLINE    inline __attribute__( ( always_inline ) )
 169:C:/Infineon/Tools/DAVE IDE/4.5.0.202105191637/eclipse/workspace/xmc4800-CE/Dave/Generated/FREERTOS/portable/GCC\portmacro.h ****     #endif
 170:C:/Infineon/Tools/DAVE IDE/4.5.0.202105191637/eclipse/workspace/xmc4800-CE/Dave/Generated/FREERTOS/portable/GCC\portmacro.h **** 
 171:C:/Infineon/Tools/DAVE IDE/4.5.0.202105191637/eclipse/workspace/xmc4800-CE/Dave/Generated/FREERTOS/portable/GCC\portmacro.h ****     portFORCE_INLINE static BaseType_t xPortIsInsideInterrupt( void )
 172:C:/Infineon/Tools/DAVE IDE/4.5.0.202105191637/eclipse/workspace/xmc4800-CE/Dave/Generated/FREERTOS/portable/GCC\portmacro.h ****     {
 173:C:/Infineon/Tools/DAVE IDE/4.5.0.202105191637/eclipse/workspace/xmc4800-CE/Dave/Generated/FREERTOS/portable/GCC\portmacro.h ****         uint32_t ulCurrentInterrupt;
 174:C:/Infineon/Tools/DAVE IDE/4.5.0.202105191637/eclipse/workspace/xmc4800-CE/Dave/Generated/FREERTOS/portable/GCC\portmacro.h ****         BaseType_t xReturn;
 175:C:/Infineon/Tools/DAVE IDE/4.5.0.202105191637/eclipse/workspace/xmc4800-CE/Dave/Generated/FREERTOS/portable/GCC\portmacro.h **** 
 176:C:/Infineon/Tools/DAVE IDE/4.5.0.202105191637/eclipse/workspace/xmc4800-CE/Dave/Generated/FREERTOS/portable/GCC\portmacro.h ****         /* Obtain the number of the currently executing interrupt. */
 177:C:/Infineon/Tools/DAVE IDE/4.5.0.202105191637/eclipse/workspace/xmc4800-CE/Dave/Generated/FREERTOS/portable/GCC\portmacro.h ****         __asm volatile ( "mrs %0, ipsr" : "=r" ( ulCurrentInterrupt )::"memory" );
 178:C:/Infineon/Tools/DAVE IDE/4.5.0.202105191637/eclipse/workspace/xmc4800-CE/Dave/Generated/FREERTOS/portable/GCC\portmacro.h **** 
 179:C:/Infineon/Tools/DAVE IDE/4.5.0.202105191637/eclipse/workspace/xmc4800-CE/Dave/Generated/FREERTOS/portable/GCC\portmacro.h ****         if( ulCurrentInterrupt == 0 )
 180:C:/Infineon/Tools/DAVE IDE/4.5.0.202105191637/eclipse/workspace/xmc4800-CE/Dave/Generated/FREERTOS/portable/GCC\portmacro.h ****         {
 181:C:/Infineon/Tools/DAVE IDE/4.5.0.202105191637/eclipse/workspace/xmc4800-CE/Dave/Generated/FREERTOS/portable/GCC\portmacro.h ****             xReturn = pdFALSE;
 182:C:/Infineon/Tools/DAVE IDE/4.5.0.202105191637/eclipse/workspace/xmc4800-CE/Dave/Generated/FREERTOS/portable/GCC\portmacro.h ****         }
 183:C:/Infineon/Tools/DAVE IDE/4.5.0.202105191637/eclipse/workspace/xmc4800-CE/Dave/Generated/FREERTOS/portable/GCC\portmacro.h ****         else
 184:C:/Infineon/Tools/DAVE IDE/4.5.0.202105191637/eclipse/workspace/xmc4800-CE/Dave/Generated/FREERTOS/portable/GCC\portmacro.h ****         {
 185:C:/Infineon/Tools/DAVE IDE/4.5.0.202105191637/eclipse/workspace/xmc4800-CE/Dave/Generated/FREERTOS/portable/GCC\portmacro.h ****             xReturn = pdTRUE;
 186:C:/Infineon/Tools/DAVE IDE/4.5.0.202105191637/eclipse/workspace/xmc4800-CE/Dave/Generated/FREERTOS/portable/GCC\portmacro.h ****         }
 187:C:/Infineon/Tools/DAVE IDE/4.5.0.202105191637/eclipse/workspace/xmc4800-CE/Dave/Generated/FREERTOS/portable/GCC\portmacro.h **** 
 188:C:/Infineon/Tools/DAVE IDE/4.5.0.202105191637/eclipse/workspace/xmc4800-CE/Dave/Generated/FREERTOS/portable/GCC\portmacro.h ****         return xReturn;
 189:C:/Infineon/Tools/DAVE IDE/4.5.0.202105191637/eclipse/workspace/xmc4800-CE/Dave/Generated/FREERTOS/portable/GCC\portmacro.h ****     }
 190:C:/Infineon/Tools/DAVE IDE/4.5.0.202105191637/eclipse/workspace/xmc4800-CE/Dave/Generated/FREERTOS/portable/GCC\portmacro.h **** 
 191:C:/Infineon/Tools/DAVE IDE/4.5.0.202105191637/eclipse/workspace/xmc4800-CE/Dave/Generated/FREERTOS/portable/GCC\portmacro.h **** /*-----------------------------------------------------------*/
 192:C:/Infineon/Tools/DAVE IDE/4.5.0.202105191637/eclipse/workspace/xmc4800-CE/Dave/Generated/FREERTOS/portable/GCC\portmacro.h **** 
 193:C:/Infineon/Tools/DAVE IDE/4.5.0.202105191637/eclipse/workspace/xmc4800-CE/Dave/Generated/FREERTOS/portable/GCC\portmacro.h ****     portFORCE_INLINE static void vPortRaiseBASEPRI( void )
 194:C:/Infineon/Tools/DAVE IDE/4.5.0.202105191637/eclipse/workspace/xmc4800-CE/Dave/Generated/FREERTOS/portable/GCC\portmacro.h ****     {
 195:C:/Infineon/Tools/DAVE IDE/4.5.0.202105191637/eclipse/workspace/xmc4800-CE/Dave/Generated/FREERTOS/portable/GCC\portmacro.h ****         uint32_t ulNewBASEPRI;
 196:C:/Infineon/Tools/DAVE IDE/4.5.0.202105191637/eclipse/workspace/xmc4800-CE/Dave/Generated/FREERTOS/portable/GCC\portmacro.h **** 
 197:C:/Infineon/Tools/DAVE IDE/4.5.0.202105191637/eclipse/workspace/xmc4800-CE/Dave/Generated/FREERTOS/portable/GCC\portmacro.h ****         __asm volatile
  60              	 .loc 2 197 0 discriminator 1
  61              	
  62 001e 4FF0FC03 	 mov r3,#252
  63 0022 83F31188 	 msr basepri,r3
  64 0026 BFF36F8F 	 isb 
  65 002a BFF34F8F 	 dsb 
  66              	
  67              	
  68              	 .thumb
  69 002e FB61     	 str r3,[r7,#28]
  70              	.L4:
  71              	.LBE97:
  72              	.LBE96:
  73              	 .loc 1 235 0 discriminator 1
  74 0030 FEE7     	 b .L4
  75              	.L2:
 236:../Dave/Generated/FREERTOS/stream_buffer.c ****         }
 237:../Dave/Generated/FREERTOS/stream_buffer.c ****         else
 238:../Dave/Generated/FREERTOS/stream_buffer.c ****         {
 239:../Dave/Generated/FREERTOS/stream_buffer.c ****             /* Not a message buffer and not statically allocated. */
 240:../Dave/Generated/FREERTOS/stream_buffer.c ****             ucFlags = 0;
  76              	 .loc 1 240 0
  77 0032 0023     	 movs r3,#0
  78 0034 87F82330 	 strb r3,[r7,#35]
 241:../Dave/Generated/FREERTOS/stream_buffer.c ****             configASSERT( xBufferSizeBytes > 0 );
  79              	 .loc 1 241 0
  80 0038 FB68     	 ldr r3,[r7,#12]
  81 003a 002B     	 cmp r3,#0
  82 003c 09D1     	 bne .L3
  83              	.LBB98:
  84              	.LBB99:
  85              	 .loc 2 197 0 discriminator 1
  86              	
  87 003e 4FF0FC03 	 mov r3,#252
  88 0042 83F31188 	 msr basepri,r3
  89 0046 BFF36F8F 	 isb 
  90 004a BFF34F8F 	 dsb 
  91              	
  92              	
  93              	 .thumb
  94 004e BB61     	 str r3,[r7,#24]
  95              	.L5:
  96              	.LBE99:
  97              	.LBE98:
  98              	 .loc 1 241 0 discriminator 2
  99 0050 FEE7     	 b .L5
 100              	.L3:
 242:../Dave/Generated/FREERTOS/stream_buffer.c ****         }
 243:../Dave/Generated/FREERTOS/stream_buffer.c **** 
 244:../Dave/Generated/FREERTOS/stream_buffer.c ****         configASSERT( xTriggerLevelBytes <= xBufferSizeBytes );
 101              	 .loc 1 244 0
 102 0052 BA68     	 ldr r2,[r7,#8]
 103 0054 FB68     	 ldr r3,[r7,#12]
 104 0056 9A42     	 cmp r2,r3
 105 0058 09D9     	 bls .L6
 106              	.LBB100:
 107              	.LBB101:
 108              	 .loc 2 197 0 discriminator 1
 109              	
 110 005a 4FF0FC03 	 mov r3,#252
 111 005e 83F31188 	 msr basepri,r3
 112 0062 BFF36F8F 	 isb 
 113 0066 BFF34F8F 	 dsb 
 114              	
 115              	
 116              	 .thumb
 117 006a 7B61     	 str r3,[r7,#20]
 118              	.L7:
 119              	.LBE101:
 120              	.LBE100:
 121              	 .loc 1 244 0 discriminator 3
 122 006c FEE7     	 b .L7
 123              	.L6:
 245:../Dave/Generated/FREERTOS/stream_buffer.c **** 
 246:../Dave/Generated/FREERTOS/stream_buffer.c ****         /* A trigger level of 0 would cause a waiting task to unblock even when
 247:../Dave/Generated/FREERTOS/stream_buffer.c ****          * the buffer was empty. */
 248:../Dave/Generated/FREERTOS/stream_buffer.c ****         if( xTriggerLevelBytes == ( size_t ) 0 )
 124              	 .loc 1 248 0
 125 006e BB68     	 ldr r3,[r7,#8]
 126 0070 002B     	 cmp r3,#0
 127 0072 01D1     	 bne .L8
 249:../Dave/Generated/FREERTOS/stream_buffer.c ****         {
 250:../Dave/Generated/FREERTOS/stream_buffer.c ****             xTriggerLevelBytes = ( size_t ) 1;
 128              	 .loc 1 250 0
 129 0074 0123     	 movs r3,#1
 130 0076 BB60     	 str r3,[r7,#8]
 131              	.L8:
 251:../Dave/Generated/FREERTOS/stream_buffer.c ****         }
 252:../Dave/Generated/FREERTOS/stream_buffer.c **** 
 253:../Dave/Generated/FREERTOS/stream_buffer.c ****         /* A stream buffer requires a StreamBuffer_t structure and a buffer.
 254:../Dave/Generated/FREERTOS/stream_buffer.c ****          * Both are allocated in a single call to pvPortMalloc().  The
 255:../Dave/Generated/FREERTOS/stream_buffer.c ****          * StreamBuffer_t structure is placed at the start of the allocated memory
 256:../Dave/Generated/FREERTOS/stream_buffer.c ****          * and the buffer follows immediately after.  The requested size is
 257:../Dave/Generated/FREERTOS/stream_buffer.c ****          * incremented so the free space is returned as the user would expect -
 258:../Dave/Generated/FREERTOS/stream_buffer.c ****          * this is a quirk of the implementation that means otherwise the free
 259:../Dave/Generated/FREERTOS/stream_buffer.c ****          * space would be reported as one byte smaller than would be logically
 260:../Dave/Generated/FREERTOS/stream_buffer.c ****          * expected. */
 261:../Dave/Generated/FREERTOS/stream_buffer.c ****         if( xBufferSizeBytes < ( xBufferSizeBytes + 1 + sizeof( StreamBuffer_t ) ) )
 132              	 .loc 1 261 0
 133 0078 FB68     	 ldr r3,[r7,#12]
 134 007a 03F12502 	 add r2,r3,#37
 135 007e FB68     	 ldr r3,[r7,#12]
 136 0080 9A42     	 cmp r2,r3
 137 0082 09D9     	 bls .L9
 262:../Dave/Generated/FREERTOS/stream_buffer.c ****         {
 263:../Dave/Generated/FREERTOS/stream_buffer.c ****             xBufferSizeBytes++;
 138              	 .loc 1 263 0
 139 0084 FB68     	 ldr r3,[r7,#12]
 140 0086 0133     	 adds r3,r3,#1
 141 0088 FB60     	 str r3,[r7,#12]
 264:../Dave/Generated/FREERTOS/stream_buffer.c ****             pucAllocatedMemory = ( uint8_t * ) pvPortMalloc( xBufferSizeBytes + sizeof( StreamBuffe
 142              	 .loc 1 264 0
 143 008a FB68     	 ldr r3,[r7,#12]
 144 008c 2433     	 adds r3,r3,#36
 145 008e 1846     	 mov r0,r3
 146 0090 FFF7FEFF 	 bl pvPortMalloc
 147 0094 7862     	 str r0,[r7,#36]
 148 0096 01E0     	 b .L10
 149              	.L9:
 265:../Dave/Generated/FREERTOS/stream_buffer.c ****         }
 266:../Dave/Generated/FREERTOS/stream_buffer.c ****         else
 267:../Dave/Generated/FREERTOS/stream_buffer.c ****         {
 268:../Dave/Generated/FREERTOS/stream_buffer.c ****             pucAllocatedMemory = NULL;
 150              	 .loc 1 268 0
 151 0098 0023     	 movs r3,#0
 152 009a 7B62     	 str r3,[r7,#36]
 153              	.L10:
 269:../Dave/Generated/FREERTOS/stream_buffer.c ****         }
 270:../Dave/Generated/FREERTOS/stream_buffer.c ****         
 271:../Dave/Generated/FREERTOS/stream_buffer.c **** 
 272:../Dave/Generated/FREERTOS/stream_buffer.c ****         if( pucAllocatedMemory != NULL )
 154              	 .loc 1 272 0
 155 009c 7B6A     	 ldr r3,[r7,#36]
 156 009e 002B     	 cmp r3,#0
 157 00a0 0BD0     	 beq .L11
 273:../Dave/Generated/FREERTOS/stream_buffer.c ****         {
 274:../Dave/Generated/FREERTOS/stream_buffer.c ****             prvInitialiseNewStreamBuffer( ( StreamBuffer_t * ) pucAllocatedMemory,       /* Structu
 158              	 .loc 1 274 0
 159 00a2 7B6A     	 ldr r3,[r7,#36]
 160 00a4 03F12402 	 add r2,r3,#36
 161 00a8 97F82330 	 ldrb r3,[r7,#35]
 162 00ac 0093     	 str r3,[sp]
 163 00ae 786A     	 ldr r0,[r7,#36]
 164 00b0 1146     	 mov r1,r2
 165 00b2 FA68     	 ldr r2,[r7,#12]
 166 00b4 BB68     	 ldr r3,[r7,#8]
 167 00b6 FFF7FEFF 	 bl prvInitialiseNewStreamBuffer
 168              	.L11:
 275:../Dave/Generated/FREERTOS/stream_buffer.c ****                                           pucAllocatedMemory + sizeof( StreamBuffer_t ), /* Storage
 276:../Dave/Generated/FREERTOS/stream_buffer.c ****                                           xBufferSizeBytes,
 277:../Dave/Generated/FREERTOS/stream_buffer.c ****                                           xTriggerLevelBytes,
 278:../Dave/Generated/FREERTOS/stream_buffer.c ****                                           ucFlags );
 279:../Dave/Generated/FREERTOS/stream_buffer.c **** 
 280:../Dave/Generated/FREERTOS/stream_buffer.c ****             traceSTREAM_BUFFER_CREATE( ( ( StreamBuffer_t * ) pucAllocatedMemory ), xIsMessageBuffe
 281:../Dave/Generated/FREERTOS/stream_buffer.c ****         }
 282:../Dave/Generated/FREERTOS/stream_buffer.c ****         else
 283:../Dave/Generated/FREERTOS/stream_buffer.c ****         {
 284:../Dave/Generated/FREERTOS/stream_buffer.c ****             traceSTREAM_BUFFER_CREATE_FAILED( xIsMessageBuffer );
 285:../Dave/Generated/FREERTOS/stream_buffer.c ****         }
 286:../Dave/Generated/FREERTOS/stream_buffer.c **** 
 287:../Dave/Generated/FREERTOS/stream_buffer.c ****         return ( StreamBufferHandle_t ) pucAllocatedMemory; /*lint !e9087 !e826 Safe cast as alloca
 169              	 .loc 1 287 0
 170 00ba 7B6A     	 ldr r3,[r7,#36]
 288:../Dave/Generated/FREERTOS/stream_buffer.c ****     }
 171              	 .loc 1 288 0
 172 00bc 1846     	 mov r0,r3
 173 00be 2837     	 adds r7,r7,#40
 174              	.LCFI3:
 175              	 .cfi_def_cfa_offset 8
 176 00c0 BD46     	 mov sp,r7
 177              	.LCFI4:
 178              	 .cfi_def_cfa_register 13
 179              	 
 180 00c2 80BD     	 pop {r7,pc}
 181              	 .cfi_endproc
 182              	.LFE137:
 184              	 .section .text.xStreamBufferGenericCreateStatic,"ax",%progbits
 185              	 .align 2
 186              	 .global xStreamBufferGenericCreateStatic
 187              	 .thumb
 188              	 .thumb_func
 190              	xStreamBufferGenericCreateStatic:
 191              	.LFB138:
 289:../Dave/Generated/FREERTOS/stream_buffer.c **** 
 290:../Dave/Generated/FREERTOS/stream_buffer.c **** #endif /* configSUPPORT_DYNAMIC_ALLOCATION */
 291:../Dave/Generated/FREERTOS/stream_buffer.c **** /*-----------------------------------------------------------*/
 292:../Dave/Generated/FREERTOS/stream_buffer.c **** 
 293:../Dave/Generated/FREERTOS/stream_buffer.c **** #if ( configSUPPORT_STATIC_ALLOCATION == 1 )
 294:../Dave/Generated/FREERTOS/stream_buffer.c **** 
 295:../Dave/Generated/FREERTOS/stream_buffer.c ****     StreamBufferHandle_t xStreamBufferGenericCreateStatic( size_t xBufferSizeBytes,
 296:../Dave/Generated/FREERTOS/stream_buffer.c ****                                                            size_t xTriggerLevelBytes,
 297:../Dave/Generated/FREERTOS/stream_buffer.c ****                                                            BaseType_t xIsMessageBuffer,
 298:../Dave/Generated/FREERTOS/stream_buffer.c ****                                                            uint8_t * const pucStreamBufferStorageAr
 299:../Dave/Generated/FREERTOS/stream_buffer.c ****                                                            StaticStreamBuffer_t * const pxStaticStr
 300:../Dave/Generated/FREERTOS/stream_buffer.c ****     {
 192              	 .loc 1 300 0
 193              	 .cfi_startproc
 194              	 
 195              	 
 196 0000 80B5     	 push {r7,lr}
 197              	.LCFI5:
 198              	 .cfi_def_cfa_offset 8
 199              	 .cfi_offset 7,-8
 200              	 .cfi_offset 14,-4
 201 0002 90B0     	 sub sp,sp,#64
 202              	.LCFI6:
 203              	 .cfi_def_cfa_offset 72
 204 0004 02AF     	 add r7,sp,#8
 205              	.LCFI7:
 206              	 .cfi_def_cfa 7,64
 207 0006 F860     	 str r0,[r7,#12]
 208 0008 B960     	 str r1,[r7,#8]
 209 000a 7A60     	 str r2,[r7,#4]
 210 000c 3B60     	 str r3,[r7]
 301:../Dave/Generated/FREERTOS/stream_buffer.c ****         StreamBuffer_t * const pxStreamBuffer = ( StreamBuffer_t * ) pxStaticStreamBuffer; /*lint !
 211              	 .loc 1 301 0
 212 000e 3B6C     	 ldr r3,[r7,#64]
 213 0010 FB62     	 str r3,[r7,#44]
 302:../Dave/Generated/FREERTOS/stream_buffer.c ****         StreamBufferHandle_t xReturn;
 303:../Dave/Generated/FREERTOS/stream_buffer.c ****         uint8_t ucFlags;
 304:../Dave/Generated/FREERTOS/stream_buffer.c **** 
 305:../Dave/Generated/FREERTOS/stream_buffer.c ****         configASSERT( pucStreamBufferStorageArea );
 214              	 .loc 1 305 0
 215 0012 3B68     	 ldr r3,[r7]
 216 0014 002B     	 cmp r3,#0
 217 0016 09D1     	 bne .L14
 218              	.LBB102:
 219              	.LBB103:
 220              	 .loc 2 197 0 discriminator 1
 221              	
 222 0018 4FF0FC03 	 mov r3,#252
 223 001c 83F31188 	 msr basepri,r3
 224 0020 BFF36F8F 	 isb 
 225 0024 BFF34F8F 	 dsb 
 226              	
 227              	
 228              	 .thumb
 229 0028 BB62     	 str r3,[r7,#40]
 230              	.L15:
 231              	.LBE103:
 232              	.LBE102:
 233              	 .loc 1 305 0 discriminator 1
 234 002a FEE7     	 b .L15
 235              	.L14:
 306:../Dave/Generated/FREERTOS/stream_buffer.c ****         configASSERT( pxStaticStreamBuffer );
 236              	 .loc 1 306 0
 237 002c 3B6C     	 ldr r3,[r7,#64]
 238 002e 002B     	 cmp r3,#0
 239 0030 09D1     	 bne .L16
 240              	.LBB104:
 241              	.LBB105:
 242              	 .loc 2 197 0 discriminator 1
 243              	
 244 0032 4FF0FC03 	 mov r3,#252
 245 0036 83F31188 	 msr basepri,r3
 246 003a BFF36F8F 	 isb 
 247 003e BFF34F8F 	 dsb 
 248              	
 249              	
 250              	 .thumb
 251 0042 7B62     	 str r3,[r7,#36]
 252              	.L17:
 253              	.LBE105:
 254              	.LBE104:
 255              	 .loc 1 306 0 discriminator 2
 256 0044 FEE7     	 b .L17
 257              	.L16:
 307:../Dave/Generated/FREERTOS/stream_buffer.c ****         configASSERT( xTriggerLevelBytes <= xBufferSizeBytes );
 258              	 .loc 1 307 0
 259 0046 BA68     	 ldr r2,[r7,#8]
 260 0048 FB68     	 ldr r3,[r7,#12]
 261 004a 9A42     	 cmp r2,r3
 262 004c 09D9     	 bls .L18
 263              	.LBB106:
 264              	.LBB107:
 265              	 .loc 2 197 0 discriminator 1
 266              	
 267 004e 4FF0FC03 	 mov r3,#252
 268 0052 83F31188 	 msr basepri,r3
 269 0056 BFF36F8F 	 isb 
 270 005a BFF34F8F 	 dsb 
 271              	
 272              	
 273              	 .thumb
 274 005e 3B62     	 str r3,[r7,#32]
 275              	.L19:
 276              	.LBE107:
 277              	.LBE106:
 278              	 .loc 1 307 0 discriminator 3
 279 0060 FEE7     	 b .L19
 280              	.L18:
 308:../Dave/Generated/FREERTOS/stream_buffer.c **** 
 309:../Dave/Generated/FREERTOS/stream_buffer.c ****         /* A trigger level of 0 would cause a waiting task to unblock even when
 310:../Dave/Generated/FREERTOS/stream_buffer.c ****          * the buffer was empty. */
 311:../Dave/Generated/FREERTOS/stream_buffer.c ****         if( xTriggerLevelBytes == ( size_t ) 0 )
 281              	 .loc 1 311 0
 282 0062 BB68     	 ldr r3,[r7,#8]
 283 0064 002B     	 cmp r3,#0
 284 0066 01D1     	 bne .L20
 312:../Dave/Generated/FREERTOS/stream_buffer.c ****         {
 313:../Dave/Generated/FREERTOS/stream_buffer.c ****             xTriggerLevelBytes = ( size_t ) 1;
 285              	 .loc 1 313 0
 286 0068 0123     	 movs r3,#1
 287 006a BB60     	 str r3,[r7,#8]
 288              	.L20:
 314:../Dave/Generated/FREERTOS/stream_buffer.c ****         }
 315:../Dave/Generated/FREERTOS/stream_buffer.c **** 
 316:../Dave/Generated/FREERTOS/stream_buffer.c ****         if( xIsMessageBuffer != pdFALSE )
 289              	 .loc 1 316 0
 290 006c 7B68     	 ldr r3,[r7,#4]
 291 006e 002B     	 cmp r3,#0
 292 0070 03D0     	 beq .L21
 317:../Dave/Generated/FREERTOS/stream_buffer.c ****         {
 318:../Dave/Generated/FREERTOS/stream_buffer.c ****             /* Statically allocated message buffer. */
 319:../Dave/Generated/FREERTOS/stream_buffer.c ****             ucFlags = sbFLAGS_IS_MESSAGE_BUFFER | sbFLAGS_IS_STATICALLY_ALLOCATED;
 293              	 .loc 1 319 0
 294 0072 0323     	 movs r3,#3
 295 0074 87F83330 	 strb r3,[r7,#51]
 296 0078 02E0     	 b .L22
 297              	.L21:
 320:../Dave/Generated/FREERTOS/stream_buffer.c ****         }
 321:../Dave/Generated/FREERTOS/stream_buffer.c ****         else
 322:../Dave/Generated/FREERTOS/stream_buffer.c ****         {
 323:../Dave/Generated/FREERTOS/stream_buffer.c ****             /* Statically allocated stream buffer. */
 324:../Dave/Generated/FREERTOS/stream_buffer.c ****             ucFlags = sbFLAGS_IS_STATICALLY_ALLOCATED;
 298              	 .loc 1 324 0
 299 007a 0223     	 movs r3,#2
 300 007c 87F83330 	 strb r3,[r7,#51]
 301              	.L22:
 325:../Dave/Generated/FREERTOS/stream_buffer.c ****         }
 326:../Dave/Generated/FREERTOS/stream_buffer.c **** 
 327:../Dave/Generated/FREERTOS/stream_buffer.c ****         /* In case the stream buffer is going to be used as a message buffer
 328:../Dave/Generated/FREERTOS/stream_buffer.c ****          * (that is, it will hold discrete messages with a little meta data that
 329:../Dave/Generated/FREERTOS/stream_buffer.c ****          * says how big the next message is) check the buffer will be large enough
 330:../Dave/Generated/FREERTOS/stream_buffer.c ****          * to hold at least one message. */
 331:../Dave/Generated/FREERTOS/stream_buffer.c ****         configASSERT( xBufferSizeBytes > sbBYTES_TO_STORE_MESSAGE_LENGTH );
 302              	 .loc 1 331 0
 303 0080 FB68     	 ldr r3,[r7,#12]
 304 0082 042B     	 cmp r3,#4
 305 0084 09D8     	 bhi .L23
 306              	.LBB108:
 307              	.LBB109:
 308              	 .loc 2 197 0 discriminator 1
 309              	
 310 0086 4FF0FC03 	 mov r3,#252
 311 008a 83F31188 	 msr basepri,r3
 312 008e BFF36F8F 	 isb 
 313 0092 BFF34F8F 	 dsb 
 314              	
 315              	
 316              	 .thumb
 317 0096 FB61     	 str r3,[r7,#28]
 318              	.L24:
 319              	.LBE109:
 320              	.LBE108:
 321              	 .loc 1 331 0 discriminator 4
 322 0098 FEE7     	 b .L24
 323              	.L23:
 324              	.LBB110:
 332:../Dave/Generated/FREERTOS/stream_buffer.c **** 
 333:../Dave/Generated/FREERTOS/stream_buffer.c ****         #if ( configASSERT_DEFINED == 1 )
 334:../Dave/Generated/FREERTOS/stream_buffer.c ****             {
 335:../Dave/Generated/FREERTOS/stream_buffer.c ****                 /* Sanity check that the size of the structure used to declare a
 336:../Dave/Generated/FREERTOS/stream_buffer.c ****                  * variable of type StaticStreamBuffer_t equals the size of the real
 337:../Dave/Generated/FREERTOS/stream_buffer.c ****                  * message buffer structure. */
 338:../Dave/Generated/FREERTOS/stream_buffer.c ****                 volatile size_t xSize = sizeof( StaticStreamBuffer_t );
 325              	 .loc 1 338 0
 326 009a 2423     	 movs r3,#36
 327 009c 7B61     	 str r3,[r7,#20]
 339:../Dave/Generated/FREERTOS/stream_buffer.c ****                 configASSERT( xSize == sizeof( StreamBuffer_t ) );
 328              	 .loc 1 339 0
 329 009e 7B69     	 ldr r3,[r7,#20]
 330 00a0 242B     	 cmp r3,#36
 331 00a2 09D0     	 beq .L25
 332              	.LBB111:
 333              	.LBB112:
 334              	 .loc 2 197 0 discriminator 1
 335              	
 336 00a4 4FF0FC03 	 mov r3,#252
 337 00a8 83F31188 	 msr basepri,r3
 338 00ac BFF36F8F 	 isb 
 339 00b0 BFF34F8F 	 dsb 
 340              	
 341              	
 342              	 .thumb
 343 00b4 BB61     	 str r3,[r7,#24]
 344              	.L26:
 345              	.LBE112:
 346              	.LBE111:
 347              	 .loc 1 339 0 discriminator 5
 348 00b6 FEE7     	 b .L26
 349              	.L25:
 350              	.LBE110:
 340:../Dave/Generated/FREERTOS/stream_buffer.c ****             } /*lint !e529 xSize is referenced is configASSERT() is defined. */
 341:../Dave/Generated/FREERTOS/stream_buffer.c ****         #endif /* configASSERT_DEFINED */
 342:../Dave/Generated/FREERTOS/stream_buffer.c **** 
 343:../Dave/Generated/FREERTOS/stream_buffer.c ****         if( ( pucStreamBufferStorageArea != NULL ) && ( pxStaticStreamBuffer != NULL ) )
 351              	 .loc 1 343 0
 352 00b8 3B68     	 ldr r3,[r7]
 353 00ba 002B     	 cmp r3,#0
 354 00bc 15D0     	 beq .L27
 355              	 .loc 1 343 0 is_stmt 0 discriminator 1
 356 00be 3B6C     	 ldr r3,[r7,#64]
 357 00c0 002B     	 cmp r3,#0
 358 00c2 12D0     	 beq .L27
 344:../Dave/Generated/FREERTOS/stream_buffer.c ****         {
 345:../Dave/Generated/FREERTOS/stream_buffer.c ****             prvInitialiseNewStreamBuffer( pxStreamBuffer,
 359              	 .loc 1 345 0 is_stmt 1
 360 00c4 97F83330 	 ldrb r3,[r7,#51]
 361 00c8 0093     	 str r3,[sp]
 362 00ca F86A     	 ldr r0,[r7,#44]
 363 00cc 3968     	 ldr r1,[r7]
 364 00ce FA68     	 ldr r2,[r7,#12]
 365 00d0 BB68     	 ldr r3,[r7,#8]
 366 00d2 FFF7FEFF 	 bl prvInitialiseNewStreamBuffer
 346:../Dave/Generated/FREERTOS/stream_buffer.c ****                                           pucStreamBufferStorageArea,
 347:../Dave/Generated/FREERTOS/stream_buffer.c ****                                           xBufferSizeBytes,
 348:../Dave/Generated/FREERTOS/stream_buffer.c ****                                           xTriggerLevelBytes,
 349:../Dave/Generated/FREERTOS/stream_buffer.c ****                                           ucFlags );
 350:../Dave/Generated/FREERTOS/stream_buffer.c **** 
 351:../Dave/Generated/FREERTOS/stream_buffer.c ****             /* Remember this was statically allocated in case it is ever deleted
 352:../Dave/Generated/FREERTOS/stream_buffer.c ****              * again. */
 353:../Dave/Generated/FREERTOS/stream_buffer.c ****             pxStreamBuffer->ucFlags |= sbFLAGS_IS_STATICALLY_ALLOCATED;
 367              	 .loc 1 353 0
 368 00d6 FB6A     	 ldr r3,[r7,#44]
 369 00d8 1B7F     	 ldrb r3,[r3,#28]
 370 00da 43F00203 	 orr r3,r3,#2
 371 00de DAB2     	 uxtb r2,r3
 372 00e0 FB6A     	 ldr r3,[r7,#44]
 373 00e2 1A77     	 strb r2,[r3,#28]
 354:../Dave/Generated/FREERTOS/stream_buffer.c **** 
 355:../Dave/Generated/FREERTOS/stream_buffer.c ****             traceSTREAM_BUFFER_CREATE( pxStreamBuffer, xIsMessageBuffer );
 356:../Dave/Generated/FREERTOS/stream_buffer.c **** 
 357:../Dave/Generated/FREERTOS/stream_buffer.c ****             xReturn = ( StreamBufferHandle_t ) pxStaticStreamBuffer; /*lint !e9087 Data hiding requ
 374              	 .loc 1 357 0
 375 00e4 3B6C     	 ldr r3,[r7,#64]
 376 00e6 7B63     	 str r3,[r7,#52]
 377 00e8 01E0     	 b .L28
 378              	.L27:
 358:../Dave/Generated/FREERTOS/stream_buffer.c ****         }
 359:../Dave/Generated/FREERTOS/stream_buffer.c ****         else
 360:../Dave/Generated/FREERTOS/stream_buffer.c ****         {
 361:../Dave/Generated/FREERTOS/stream_buffer.c ****             xReturn = NULL;
 379              	 .loc 1 361 0
 380 00ea 0023     	 movs r3,#0
 381 00ec 7B63     	 str r3,[r7,#52]
 382              	.L28:
 362:../Dave/Generated/FREERTOS/stream_buffer.c ****             traceSTREAM_BUFFER_CREATE_STATIC_FAILED( xReturn, xIsMessageBuffer );
 363:../Dave/Generated/FREERTOS/stream_buffer.c ****         }
 364:../Dave/Generated/FREERTOS/stream_buffer.c **** 
 365:../Dave/Generated/FREERTOS/stream_buffer.c ****         return xReturn;
 383              	 .loc 1 365 0
 384 00ee 7B6B     	 ldr r3,[r7,#52]
 366:../Dave/Generated/FREERTOS/stream_buffer.c ****     }
 385              	 .loc 1 366 0
 386 00f0 1846     	 mov r0,r3
 387 00f2 3837     	 adds r7,r7,#56
 388              	.LCFI8:
 389              	 .cfi_def_cfa_offset 8
 390 00f4 BD46     	 mov sp,r7
 391              	.LCFI9:
 392              	 .cfi_def_cfa_register 13
 393              	 
 394 00f6 80BD     	 pop {r7,pc}
 395              	 .cfi_endproc
 396              	.LFE138:
 398              	 .section .text.vStreamBufferDelete,"ax",%progbits
 399              	 .align 2
 400              	 .global vStreamBufferDelete
 401              	 .thumb
 402              	 .thumb_func
 404              	vStreamBufferDelete:
 405              	.LFB139:
 367:../Dave/Generated/FREERTOS/stream_buffer.c **** 
 368:../Dave/Generated/FREERTOS/stream_buffer.c **** #endif /* ( configSUPPORT_STATIC_ALLOCATION == 1 ) */
 369:../Dave/Generated/FREERTOS/stream_buffer.c **** /*-----------------------------------------------------------*/
 370:../Dave/Generated/FREERTOS/stream_buffer.c **** 
 371:../Dave/Generated/FREERTOS/stream_buffer.c **** void vStreamBufferDelete( StreamBufferHandle_t xStreamBuffer )
 372:../Dave/Generated/FREERTOS/stream_buffer.c **** {
 406              	 .loc 1 372 0
 407              	 .cfi_startproc
 408              	 
 409              	 
 410 0000 80B5     	 push {r7,lr}
 411              	.LCFI10:
 412              	 .cfi_def_cfa_offset 8
 413              	 .cfi_offset 7,-8
 414              	 .cfi_offset 14,-4
 415 0002 84B0     	 sub sp,sp,#16
 416              	.LCFI11:
 417              	 .cfi_def_cfa_offset 24
 418 0004 00AF     	 add r7,sp,#0
 419              	.LCFI12:
 420              	 .cfi_def_cfa_register 7
 421 0006 7860     	 str r0,[r7,#4]
 373:../Dave/Generated/FREERTOS/stream_buffer.c ****     StreamBuffer_t * pxStreamBuffer = xStreamBuffer;
 422              	 .loc 1 373 0
 423 0008 7B68     	 ldr r3,[r7,#4]
 424 000a FB60     	 str r3,[r7,#12]
 374:../Dave/Generated/FREERTOS/stream_buffer.c **** 
 375:../Dave/Generated/FREERTOS/stream_buffer.c ****     configASSERT( pxStreamBuffer );
 425              	 .loc 1 375 0
 426 000c FB68     	 ldr r3,[r7,#12]
 427 000e 002B     	 cmp r3,#0
 428 0010 09D1     	 bne .L31
 429              	.LBB113:
 430              	.LBB114:
 431              	 .loc 2 197 0 discriminator 1
 432              	
 433 0012 4FF0FC03 	 mov r3,#252
 434 0016 83F31188 	 msr basepri,r3
 435 001a BFF36F8F 	 isb 
 436 001e BFF34F8F 	 dsb 
 437              	
 438              	
 439              	 .thumb
 440 0022 BB60     	 str r3,[r7,#8]
 441              	.L32:
 442              	.LBE114:
 443              	.LBE113:
 444              	 .loc 1 375 0 discriminator 1
 445 0024 FEE7     	 b .L32
 446              	.L31:
 376:../Dave/Generated/FREERTOS/stream_buffer.c **** 
 377:../Dave/Generated/FREERTOS/stream_buffer.c ****     traceSTREAM_BUFFER_DELETE( xStreamBuffer );
 378:../Dave/Generated/FREERTOS/stream_buffer.c **** 
 379:../Dave/Generated/FREERTOS/stream_buffer.c ****     if( ( pxStreamBuffer->ucFlags & sbFLAGS_IS_STATICALLY_ALLOCATED ) == ( uint8_t ) pdFALSE )
 447              	 .loc 1 379 0
 448 0026 FB68     	 ldr r3,[r7,#12]
 449 0028 1B7F     	 ldrb r3,[r3,#28]
 450 002a 03F00203 	 and r3,r3,#2
 451 002e 002B     	 cmp r3,#0
 452 0030 03D1     	 bne .L33
 380:../Dave/Generated/FREERTOS/stream_buffer.c ****     {
 381:../Dave/Generated/FREERTOS/stream_buffer.c ****         #if ( configSUPPORT_DYNAMIC_ALLOCATION == 1 )
 382:../Dave/Generated/FREERTOS/stream_buffer.c ****             {
 383:../Dave/Generated/FREERTOS/stream_buffer.c ****                 /* Both the structure and the buffer were allocated using a single call
 384:../Dave/Generated/FREERTOS/stream_buffer.c ****                 * to pvPortMalloc(), hence only one call to vPortFree() is required. */
 385:../Dave/Generated/FREERTOS/stream_buffer.c ****                 vPortFree( ( void * ) pxStreamBuffer ); /*lint !e9087 Standard free() semantics req
 453              	 .loc 1 385 0
 454 0032 F868     	 ldr r0,[r7,#12]
 455 0034 FFF7FEFF 	 bl vPortFree
 456 0038 04E0     	 b .L30
 457              	.L33:
 386:../Dave/Generated/FREERTOS/stream_buffer.c ****             }
 387:../Dave/Generated/FREERTOS/stream_buffer.c ****         #else
 388:../Dave/Generated/FREERTOS/stream_buffer.c ****             {
 389:../Dave/Generated/FREERTOS/stream_buffer.c ****                 /* Should not be possible to get here, ucFlags must be corrupt.
 390:../Dave/Generated/FREERTOS/stream_buffer.c ****                  * Force an assert. */
 391:../Dave/Generated/FREERTOS/stream_buffer.c ****                 configASSERT( xStreamBuffer == ( StreamBufferHandle_t ) ~0 );
 392:../Dave/Generated/FREERTOS/stream_buffer.c ****             }
 393:../Dave/Generated/FREERTOS/stream_buffer.c ****         #endif
 394:../Dave/Generated/FREERTOS/stream_buffer.c ****     }
 395:../Dave/Generated/FREERTOS/stream_buffer.c ****     else
 396:../Dave/Generated/FREERTOS/stream_buffer.c ****     {
 397:../Dave/Generated/FREERTOS/stream_buffer.c ****         /* The structure and buffer were not allocated dynamically and cannot be
 398:../Dave/Generated/FREERTOS/stream_buffer.c ****          * freed - just scrub the structure so future use will assert. */
 399:../Dave/Generated/FREERTOS/stream_buffer.c ****         ( void ) memset( pxStreamBuffer, 0x00, sizeof( StreamBuffer_t ) );
 458              	 .loc 1 399 0
 459 003a F868     	 ldr r0,[r7,#12]
 460 003c 0021     	 movs r1,#0
 461 003e 2422     	 movs r2,#36
 462 0040 FFF7FEFF 	 bl memset
 463              	.L30:
 400:../Dave/Generated/FREERTOS/stream_buffer.c ****     }
 401:../Dave/Generated/FREERTOS/stream_buffer.c **** }
 464              	 .loc 1 401 0
 465 0044 1037     	 adds r7,r7,#16
 466              	.LCFI13:
 467              	 .cfi_def_cfa_offset 8
 468 0046 BD46     	 mov sp,r7
 469              	.LCFI14:
 470              	 .cfi_def_cfa_register 13
 471              	 
 472 0048 80BD     	 pop {r7,pc}
 473              	 .cfi_endproc
 474              	.LFE139:
 476 004a 00BF     	 .section .text.xStreamBufferReset,"ax",%progbits
 477              	 .align 2
 478              	 .global xStreamBufferReset
 479              	 .thumb
 480              	 .thumb_func
 482              	xStreamBufferReset:
 483              	.LFB140:
 402:../Dave/Generated/FREERTOS/stream_buffer.c **** /*-----------------------------------------------------------*/
 403:../Dave/Generated/FREERTOS/stream_buffer.c **** 
 404:../Dave/Generated/FREERTOS/stream_buffer.c **** BaseType_t xStreamBufferReset( StreamBufferHandle_t xStreamBuffer )
 405:../Dave/Generated/FREERTOS/stream_buffer.c **** {
 484              	 .loc 1 405 0
 485              	 .cfi_startproc
 486              	 
 487              	 
 488 0000 90B5     	 push {r4,r7,lr}
 489              	.LCFI15:
 490              	 .cfi_def_cfa_offset 12
 491              	 .cfi_offset 4,-12
 492              	 .cfi_offset 7,-8
 493              	 .cfi_offset 14,-4
 494 0002 89B0     	 sub sp,sp,#36
 495              	.LCFI16:
 496              	 .cfi_def_cfa_offset 48
 497 0004 02AF     	 add r7,sp,#8
 498              	.LCFI17:
 499              	 .cfi_def_cfa 7,40
 500 0006 7860     	 str r0,[r7,#4]
 406:../Dave/Generated/FREERTOS/stream_buffer.c ****     StreamBuffer_t * const pxStreamBuffer = xStreamBuffer;
 501              	 .loc 1 406 0
 502 0008 7B68     	 ldr r3,[r7,#4]
 503 000a 3B61     	 str r3,[r7,#16]
 407:../Dave/Generated/FREERTOS/stream_buffer.c ****     BaseType_t xReturn = pdFAIL;
 504              	 .loc 1 407 0
 505 000c 0023     	 movs r3,#0
 506 000e 7B61     	 str r3,[r7,#20]
 408:../Dave/Generated/FREERTOS/stream_buffer.c **** 
 409:../Dave/Generated/FREERTOS/stream_buffer.c ****     #if ( configUSE_TRACE_FACILITY == 1 )
 410:../Dave/Generated/FREERTOS/stream_buffer.c ****         UBaseType_t uxStreamBufferNumber;
 411:../Dave/Generated/FREERTOS/stream_buffer.c ****     #endif
 412:../Dave/Generated/FREERTOS/stream_buffer.c **** 
 413:../Dave/Generated/FREERTOS/stream_buffer.c ****     configASSERT( pxStreamBuffer );
 507              	 .loc 1 413 0
 508 0010 3B69     	 ldr r3,[r7,#16]
 509 0012 002B     	 cmp r3,#0
 510 0014 09D1     	 bne .L36
 511              	.LBB115:
 512              	.LBB116:
 513              	 .loc 2 197 0 discriminator 1
 514              	
 515 0016 4FF0FC03 	 mov r3,#252
 516 001a 83F31188 	 msr basepri,r3
 517 001e BFF36F8F 	 isb 
 518 0022 BFF34F8F 	 dsb 
 519              	
 520              	
 521              	 .thumb
 522 0026 BB60     	 str r3,[r7,#8]
 523              	.L37:
 524              	.LBE116:
 525              	.LBE115:
 526              	 .loc 1 413 0 discriminator 1
 527 0028 FEE7     	 b .L37
 528              	.L36:
 414:../Dave/Generated/FREERTOS/stream_buffer.c **** 
 415:../Dave/Generated/FREERTOS/stream_buffer.c ****     #if ( configUSE_TRACE_FACILITY == 1 )
 416:../Dave/Generated/FREERTOS/stream_buffer.c ****         {
 417:../Dave/Generated/FREERTOS/stream_buffer.c ****             /* Store the stream buffer number so it can be restored after the
 418:../Dave/Generated/FREERTOS/stream_buffer.c ****              * reset. */
 419:../Dave/Generated/FREERTOS/stream_buffer.c ****             uxStreamBufferNumber = pxStreamBuffer->uxStreamBufferNumber;
 529              	 .loc 1 419 0
 530 002a 3B69     	 ldr r3,[r7,#16]
 531 002c 1B6A     	 ldr r3,[r3,#32]
 532 002e FB60     	 str r3,[r7,#12]
 420:../Dave/Generated/FREERTOS/stream_buffer.c ****         }
 421:../Dave/Generated/FREERTOS/stream_buffer.c ****     #endif
 422:../Dave/Generated/FREERTOS/stream_buffer.c **** 
 423:../Dave/Generated/FREERTOS/stream_buffer.c ****     /* Can only reset a message buffer if there are no tasks blocked on it. */
 424:../Dave/Generated/FREERTOS/stream_buffer.c ****     taskENTER_CRITICAL();
 533              	 .loc 1 424 0
 534 0030 FFF7FEFF 	 bl vPortEnterCritical
 425:../Dave/Generated/FREERTOS/stream_buffer.c ****     {
 426:../Dave/Generated/FREERTOS/stream_buffer.c ****         if( pxStreamBuffer->xTaskWaitingToReceive == NULL )
 535              	 .loc 1 426 0
 536 0034 3B69     	 ldr r3,[r7,#16]
 537 0036 1B69     	 ldr r3,[r3,#16]
 538 0038 002B     	 cmp r3,#0
 539 003a 15D1     	 bne .L38
 427:../Dave/Generated/FREERTOS/stream_buffer.c ****         {
 428:../Dave/Generated/FREERTOS/stream_buffer.c ****             if( pxStreamBuffer->xTaskWaitingToSend == NULL )
 540              	 .loc 1 428 0
 541 003c 3B69     	 ldr r3,[r7,#16]
 542 003e 5B69     	 ldr r3,[r3,#20]
 543 0040 002B     	 cmp r3,#0
 544 0042 11D1     	 bne .L38
 429:../Dave/Generated/FREERTOS/stream_buffer.c ****             {
 430:../Dave/Generated/FREERTOS/stream_buffer.c ****                 prvInitialiseNewStreamBuffer( pxStreamBuffer,
 545              	 .loc 1 430 0
 546 0044 3B69     	 ldr r3,[r7,#16]
 547 0046 9969     	 ldr r1,[r3,#24]
 548 0048 3B69     	 ldr r3,[r7,#16]
 549 004a 9A68     	 ldr r2,[r3,#8]
 550 004c 3B69     	 ldr r3,[r7,#16]
 551 004e DC68     	 ldr r4,[r3,#12]
 552 0050 3B69     	 ldr r3,[r7,#16]
 553 0052 1B7F     	 ldrb r3,[r3,#28]
 554 0054 0093     	 str r3,[sp]
 555 0056 3869     	 ldr r0,[r7,#16]
 556 0058 2346     	 mov r3,r4
 557 005a FFF7FEFF 	 bl prvInitialiseNewStreamBuffer
 431:../Dave/Generated/FREERTOS/stream_buffer.c ****                                               pxStreamBuffer->pucBuffer,
 432:../Dave/Generated/FREERTOS/stream_buffer.c ****                                               pxStreamBuffer->xLength,
 433:../Dave/Generated/FREERTOS/stream_buffer.c ****                                               pxStreamBuffer->xTriggerLevelBytes,
 434:../Dave/Generated/FREERTOS/stream_buffer.c ****                                               pxStreamBuffer->ucFlags );
 435:../Dave/Generated/FREERTOS/stream_buffer.c ****                 xReturn = pdPASS;
 558              	 .loc 1 435 0
 559 005e 0123     	 movs r3,#1
 560 0060 7B61     	 str r3,[r7,#20]
 436:../Dave/Generated/FREERTOS/stream_buffer.c **** 
 437:../Dave/Generated/FREERTOS/stream_buffer.c ****                 #if ( configUSE_TRACE_FACILITY == 1 )
 438:../Dave/Generated/FREERTOS/stream_buffer.c ****                     {
 439:../Dave/Generated/FREERTOS/stream_buffer.c ****                         pxStreamBuffer->uxStreamBufferNumber = uxStreamBufferNumber;
 561              	 .loc 1 439 0
 562 0062 3B69     	 ldr r3,[r7,#16]
 563 0064 FA68     	 ldr r2,[r7,#12]
 564 0066 1A62     	 str r2,[r3,#32]
 565              	.L38:
 440:../Dave/Generated/FREERTOS/stream_buffer.c ****                     }
 441:../Dave/Generated/FREERTOS/stream_buffer.c ****                 #endif
 442:../Dave/Generated/FREERTOS/stream_buffer.c **** 
 443:../Dave/Generated/FREERTOS/stream_buffer.c ****                 traceSTREAM_BUFFER_RESET( xStreamBuffer );
 444:../Dave/Generated/FREERTOS/stream_buffer.c ****             }
 445:../Dave/Generated/FREERTOS/stream_buffer.c ****         }
 446:../Dave/Generated/FREERTOS/stream_buffer.c ****     }
 447:../Dave/Generated/FREERTOS/stream_buffer.c ****     taskEXIT_CRITICAL();
 566              	 .loc 1 447 0
 567 0068 FFF7FEFF 	 bl vPortExitCritical
 448:../Dave/Generated/FREERTOS/stream_buffer.c **** 
 449:../Dave/Generated/FREERTOS/stream_buffer.c ****     return xReturn;
 568              	 .loc 1 449 0
 569 006c 7B69     	 ldr r3,[r7,#20]
 450:../Dave/Generated/FREERTOS/stream_buffer.c **** }
 570              	 .loc 1 450 0
 571 006e 1846     	 mov r0,r3
 572 0070 1C37     	 adds r7,r7,#28
 573              	.LCFI18:
 574              	 .cfi_def_cfa_offset 12
 575 0072 BD46     	 mov sp,r7
 576              	.LCFI19:
 577              	 .cfi_def_cfa_register 13
 578              	 
 579 0074 90BD     	 pop {r4,r7,pc}
 580              	 .cfi_endproc
 581              	.LFE140:
 583 0076 00BF     	 .section .text.xStreamBufferSetTriggerLevel,"ax",%progbits
 584              	 .align 2
 585              	 .global xStreamBufferSetTriggerLevel
 586              	 .thumb
 587              	 .thumb_func
 589              	xStreamBufferSetTriggerLevel:
 590              	.LFB141:
 451:../Dave/Generated/FREERTOS/stream_buffer.c **** /*-----------------------------------------------------------*/
 452:../Dave/Generated/FREERTOS/stream_buffer.c **** 
 453:../Dave/Generated/FREERTOS/stream_buffer.c **** BaseType_t xStreamBufferSetTriggerLevel( StreamBufferHandle_t xStreamBuffer,
 454:../Dave/Generated/FREERTOS/stream_buffer.c ****                                          size_t xTriggerLevel )
 455:../Dave/Generated/FREERTOS/stream_buffer.c **** {
 591              	 .loc 1 455 0
 592              	 .cfi_startproc
 593              	 
 594              	 
 595              	 
 596 0000 80B4     	 push {r7}
 597              	.LCFI20:
 598              	 .cfi_def_cfa_offset 4
 599              	 .cfi_offset 7,-4
 600 0002 87B0     	 sub sp,sp,#28
 601              	.LCFI21:
 602              	 .cfi_def_cfa_offset 32
 603 0004 00AF     	 add r7,sp,#0
 604              	.LCFI22:
 605              	 .cfi_def_cfa_register 7
 606 0006 7860     	 str r0,[r7,#4]
 607 0008 3960     	 str r1,[r7]
 456:../Dave/Generated/FREERTOS/stream_buffer.c ****     StreamBuffer_t * const pxStreamBuffer = xStreamBuffer;
 608              	 .loc 1 456 0
 609 000a 7B68     	 ldr r3,[r7,#4]
 610 000c 3B61     	 str r3,[r7,#16]
 457:../Dave/Generated/FREERTOS/stream_buffer.c ****     BaseType_t xReturn;
 458:../Dave/Generated/FREERTOS/stream_buffer.c **** 
 459:../Dave/Generated/FREERTOS/stream_buffer.c ****     configASSERT( pxStreamBuffer );
 611              	 .loc 1 459 0
 612 000e 3B69     	 ldr r3,[r7,#16]
 613 0010 002B     	 cmp r3,#0
 614 0012 09D1     	 bne .L41
 615              	.LBB117:
 616              	.LBB118:
 617              	 .loc 2 197 0 discriminator 1
 618              	
 619 0014 4FF0FC03 	 mov r3,#252
 620 0018 83F31188 	 msr basepri,r3
 621 001c BFF36F8F 	 isb 
 622 0020 BFF34F8F 	 dsb 
 623              	
 624              	
 625              	 .thumb
 626 0024 FB60     	 str r3,[r7,#12]
 627              	.L42:
 628              	.LBE118:
 629              	.LBE117:
 630              	 .loc 1 459 0 discriminator 1
 631 0026 FEE7     	 b .L42
 632              	.L41:
 460:../Dave/Generated/FREERTOS/stream_buffer.c **** 
 461:../Dave/Generated/FREERTOS/stream_buffer.c ****     /* It is not valid for the trigger level to be 0. */
 462:../Dave/Generated/FREERTOS/stream_buffer.c ****     if( xTriggerLevel == ( size_t ) 0 )
 633              	 .loc 1 462 0
 634 0028 3B68     	 ldr r3,[r7]
 635 002a 002B     	 cmp r3,#0
 636 002c 01D1     	 bne .L43
 463:../Dave/Generated/FREERTOS/stream_buffer.c ****     {
 464:../Dave/Generated/FREERTOS/stream_buffer.c ****         xTriggerLevel = ( size_t ) 1;
 637              	 .loc 1 464 0
 638 002e 0123     	 movs r3,#1
 639 0030 3B60     	 str r3,[r7]
 640              	.L43:
 465:../Dave/Generated/FREERTOS/stream_buffer.c ****     }
 466:../Dave/Generated/FREERTOS/stream_buffer.c **** 
 467:../Dave/Generated/FREERTOS/stream_buffer.c ****     /* The trigger level is the number of bytes that must be in the stream
 468:../Dave/Generated/FREERTOS/stream_buffer.c ****      * buffer before a task that is waiting for data is unblocked. */
 469:../Dave/Generated/FREERTOS/stream_buffer.c ****     if( xTriggerLevel <= pxStreamBuffer->xLength )
 641              	 .loc 1 469 0
 642 0032 3B69     	 ldr r3,[r7,#16]
 643 0034 9A68     	 ldr r2,[r3,#8]
 644 0036 3B68     	 ldr r3,[r7]
 645 0038 9A42     	 cmp r2,r3
 646 003a 05D3     	 bcc .L44
 470:../Dave/Generated/FREERTOS/stream_buffer.c ****     {
 471:../Dave/Generated/FREERTOS/stream_buffer.c ****         pxStreamBuffer->xTriggerLevelBytes = xTriggerLevel;
 647              	 .loc 1 471 0
 648 003c 3B69     	 ldr r3,[r7,#16]
 649 003e 3A68     	 ldr r2,[r7]
 650 0040 DA60     	 str r2,[r3,#12]
 472:../Dave/Generated/FREERTOS/stream_buffer.c ****         xReturn = pdPASS;
 651              	 .loc 1 472 0
 652 0042 0123     	 movs r3,#1
 653 0044 7B61     	 str r3,[r7,#20]
 654 0046 01E0     	 b .L45
 655              	.L44:
 473:../Dave/Generated/FREERTOS/stream_buffer.c ****     }
 474:../Dave/Generated/FREERTOS/stream_buffer.c ****     else
 475:../Dave/Generated/FREERTOS/stream_buffer.c ****     {
 476:../Dave/Generated/FREERTOS/stream_buffer.c ****         xReturn = pdFALSE;
 656              	 .loc 1 476 0
 657 0048 0023     	 movs r3,#0
 658 004a 7B61     	 str r3,[r7,#20]
 659              	.L45:
 477:../Dave/Generated/FREERTOS/stream_buffer.c ****     }
 478:../Dave/Generated/FREERTOS/stream_buffer.c **** 
 479:../Dave/Generated/FREERTOS/stream_buffer.c ****     return xReturn;
 660              	 .loc 1 479 0
 661 004c 7B69     	 ldr r3,[r7,#20]
 480:../Dave/Generated/FREERTOS/stream_buffer.c **** }
 662              	 .loc 1 480 0
 663 004e 1846     	 mov r0,r3
 664 0050 1C37     	 adds r7,r7,#28
 665              	.LCFI23:
 666              	 .cfi_def_cfa_offset 4
 667 0052 BD46     	 mov sp,r7
 668              	.LCFI24:
 669              	 .cfi_def_cfa_register 13
 670              	 
 671 0054 5DF8047B 	 ldr r7,[sp],#4
 672              	.LCFI25:
 673              	 .cfi_restore 7
 674              	 .cfi_def_cfa_offset 0
 675 0058 7047     	 bx lr
 676              	 .cfi_endproc
 677              	.LFE141:
 679 005a 00BF     	 .section .text.xStreamBufferSpacesAvailable,"ax",%progbits
 680              	 .align 2
 681              	 .global xStreamBufferSpacesAvailable
 682              	 .thumb
 683              	 .thumb_func
 685              	xStreamBufferSpacesAvailable:
 686              	.LFB142:
 481:../Dave/Generated/FREERTOS/stream_buffer.c **** /*-----------------------------------------------------------*/
 482:../Dave/Generated/FREERTOS/stream_buffer.c **** 
 483:../Dave/Generated/FREERTOS/stream_buffer.c **** size_t xStreamBufferSpacesAvailable( StreamBufferHandle_t xStreamBuffer )
 484:../Dave/Generated/FREERTOS/stream_buffer.c **** {
 687              	 .loc 1 484 0
 688              	 .cfi_startproc
 689              	 
 690              	 
 691              	 
 692 0000 80B4     	 push {r7}
 693              	.LCFI26:
 694              	 .cfi_def_cfa_offset 4
 695              	 .cfi_offset 7,-4
 696 0002 87B0     	 sub sp,sp,#28
 697              	.LCFI27:
 698              	 .cfi_def_cfa_offset 32
 699 0004 00AF     	 add r7,sp,#0
 700              	.LCFI28:
 701              	 .cfi_def_cfa_register 7
 702 0006 7860     	 str r0,[r7,#4]
 485:../Dave/Generated/FREERTOS/stream_buffer.c ****     const StreamBuffer_t * const pxStreamBuffer = xStreamBuffer;
 703              	 .loc 1 485 0
 704 0008 7B68     	 ldr r3,[r7,#4]
 705 000a 3B61     	 str r3,[r7,#16]
 486:../Dave/Generated/FREERTOS/stream_buffer.c ****     size_t xSpace;
 487:../Dave/Generated/FREERTOS/stream_buffer.c **** 
 488:../Dave/Generated/FREERTOS/stream_buffer.c ****     configASSERT( pxStreamBuffer );
 706              	 .loc 1 488 0
 707 000c 3B69     	 ldr r3,[r7,#16]
 708 000e 002B     	 cmp r3,#0
 709 0010 09D1     	 bne .L48
 710              	.LBB119:
 711              	.LBB120:
 712              	 .loc 2 197 0 discriminator 1
 713              	
 714 0012 4FF0FC03 	 mov r3,#252
 715 0016 83F31188 	 msr basepri,r3
 716 001a BFF36F8F 	 isb 
 717 001e BFF34F8F 	 dsb 
 718              	
 719              	
 720              	 .thumb
 721 0022 FB60     	 str r3,[r7,#12]
 722              	.L49:
 723              	.LBE120:
 724              	.LBE119:
 725              	 .loc 1 488 0 discriminator 1
 726 0024 FEE7     	 b .L49
 727              	.L48:
 489:../Dave/Generated/FREERTOS/stream_buffer.c **** 
 490:../Dave/Generated/FREERTOS/stream_buffer.c ****     xSpace = pxStreamBuffer->xLength + pxStreamBuffer->xTail;
 728              	 .loc 1 490 0
 729 0026 3B69     	 ldr r3,[r7,#16]
 730 0028 9A68     	 ldr r2,[r3,#8]
 731 002a 3B69     	 ldr r3,[r7,#16]
 732 002c 1B68     	 ldr r3,[r3]
 733 002e 1344     	 add r3,r3,r2
 734 0030 7B61     	 str r3,[r7,#20]
 491:../Dave/Generated/FREERTOS/stream_buffer.c ****     xSpace -= pxStreamBuffer->xHead;
 735              	 .loc 1 491 0
 736 0032 3B69     	 ldr r3,[r7,#16]
 737 0034 5B68     	 ldr r3,[r3,#4]
 738 0036 7A69     	 ldr r2,[r7,#20]
 739 0038 D31A     	 subs r3,r2,r3
 740 003a 7B61     	 str r3,[r7,#20]
 492:../Dave/Generated/FREERTOS/stream_buffer.c ****     xSpace -= ( size_t ) 1;
 741              	 .loc 1 492 0
 742 003c 7B69     	 ldr r3,[r7,#20]
 743 003e 013B     	 subs r3,r3,#1
 744 0040 7B61     	 str r3,[r7,#20]
 493:../Dave/Generated/FREERTOS/stream_buffer.c **** 
 494:../Dave/Generated/FREERTOS/stream_buffer.c ****     if( xSpace >= pxStreamBuffer->xLength )
 745              	 .loc 1 494 0
 746 0042 3B69     	 ldr r3,[r7,#16]
 747 0044 9A68     	 ldr r2,[r3,#8]
 748 0046 7B69     	 ldr r3,[r7,#20]
 749 0048 9A42     	 cmp r2,r3
 750 004a 04D8     	 bhi .L50
 495:../Dave/Generated/FREERTOS/stream_buffer.c ****     {
 496:../Dave/Generated/FREERTOS/stream_buffer.c ****         xSpace -= pxStreamBuffer->xLength;
 751              	 .loc 1 496 0
 752 004c 3B69     	 ldr r3,[r7,#16]
 753 004e 9B68     	 ldr r3,[r3,#8]
 754 0050 7A69     	 ldr r2,[r7,#20]
 755 0052 D31A     	 subs r3,r2,r3
 756 0054 7B61     	 str r3,[r7,#20]
 757              	.L50:
 497:../Dave/Generated/FREERTOS/stream_buffer.c ****     }
 498:../Dave/Generated/FREERTOS/stream_buffer.c ****     else
 499:../Dave/Generated/FREERTOS/stream_buffer.c ****     {
 500:../Dave/Generated/FREERTOS/stream_buffer.c ****         mtCOVERAGE_TEST_MARKER();
 501:../Dave/Generated/FREERTOS/stream_buffer.c ****     }
 502:../Dave/Generated/FREERTOS/stream_buffer.c **** 
 503:../Dave/Generated/FREERTOS/stream_buffer.c ****     return xSpace;
 758              	 .loc 1 503 0
 759 0056 7B69     	 ldr r3,[r7,#20]
 504:../Dave/Generated/FREERTOS/stream_buffer.c **** }
 760              	 .loc 1 504 0
 761 0058 1846     	 mov r0,r3
 762 005a 1C37     	 adds r7,r7,#28
 763              	.LCFI29:
 764              	 .cfi_def_cfa_offset 4
 765 005c BD46     	 mov sp,r7
 766              	.LCFI30:
 767              	 .cfi_def_cfa_register 13
 768              	 
 769 005e 5DF8047B 	 ldr r7,[sp],#4
 770              	.LCFI31:
 771              	 .cfi_restore 7
 772              	 .cfi_def_cfa_offset 0
 773 0062 7047     	 bx lr
 774              	 .cfi_endproc
 775              	.LFE142:
 777              	 .section .text.xStreamBufferBytesAvailable,"ax",%progbits
 778              	 .align 2
 779              	 .global xStreamBufferBytesAvailable
 780              	 .thumb
 781              	 .thumb_func
 783              	xStreamBufferBytesAvailable:
 784              	.LFB143:
 505:../Dave/Generated/FREERTOS/stream_buffer.c **** /*-----------------------------------------------------------*/
 506:../Dave/Generated/FREERTOS/stream_buffer.c **** 
 507:../Dave/Generated/FREERTOS/stream_buffer.c **** size_t xStreamBufferBytesAvailable( StreamBufferHandle_t xStreamBuffer )
 508:../Dave/Generated/FREERTOS/stream_buffer.c **** {
 785              	 .loc 1 508 0
 786              	 .cfi_startproc
 787              	 
 788              	 
 789 0000 80B5     	 push {r7,lr}
 790              	.LCFI32:
 791              	 .cfi_def_cfa_offset 8
 792              	 .cfi_offset 7,-8
 793              	 .cfi_offset 14,-4
 794 0002 86B0     	 sub sp,sp,#24
 795              	.LCFI33:
 796              	 .cfi_def_cfa_offset 32
 797 0004 00AF     	 add r7,sp,#0
 798              	.LCFI34:
 799              	 .cfi_def_cfa_register 7
 800 0006 7860     	 str r0,[r7,#4]
 509:../Dave/Generated/FREERTOS/stream_buffer.c ****     const StreamBuffer_t * const pxStreamBuffer = xStreamBuffer;
 801              	 .loc 1 509 0
 802 0008 7B68     	 ldr r3,[r7,#4]
 803 000a 7B61     	 str r3,[r7,#20]
 510:../Dave/Generated/FREERTOS/stream_buffer.c ****     size_t xReturn;
 511:../Dave/Generated/FREERTOS/stream_buffer.c **** 
 512:../Dave/Generated/FREERTOS/stream_buffer.c ****     configASSERT( pxStreamBuffer );
 804              	 .loc 1 512 0
 805 000c 7B69     	 ldr r3,[r7,#20]
 806 000e 002B     	 cmp r3,#0
 807 0010 09D1     	 bne .L53
 808              	.LBB121:
 809              	.LBB122:
 810              	 .loc 2 197 0 discriminator 1
 811              	
 812 0012 4FF0FC03 	 mov r3,#252
 813 0016 83F31188 	 msr basepri,r3
 814 001a BFF36F8F 	 isb 
 815 001e BFF34F8F 	 dsb 
 816              	
 817              	
 818              	 .thumb
 819 0022 FB60     	 str r3,[r7,#12]
 820              	.L54:
 821              	.LBE122:
 822              	.LBE121:
 823              	 .loc 1 512 0 discriminator 1
 824 0024 FEE7     	 b .L54
 825              	.L53:
 513:../Dave/Generated/FREERTOS/stream_buffer.c **** 
 514:../Dave/Generated/FREERTOS/stream_buffer.c ****     xReturn = prvBytesInBuffer( pxStreamBuffer );
 826              	 .loc 1 514 0
 827 0026 7869     	 ldr r0,[r7,#20]
 828 0028 FFF7FEFF 	 bl prvBytesInBuffer
 829 002c 3861     	 str r0,[r7,#16]
 515:../Dave/Generated/FREERTOS/stream_buffer.c ****     return xReturn;
 830              	 .loc 1 515 0
 831 002e 3B69     	 ldr r3,[r7,#16]
 516:../Dave/Generated/FREERTOS/stream_buffer.c **** }
 832              	 .loc 1 516 0
 833 0030 1846     	 mov r0,r3
 834 0032 1837     	 adds r7,r7,#24
 835              	.LCFI35:
 836              	 .cfi_def_cfa_offset 8
 837 0034 BD46     	 mov sp,r7
 838              	.LCFI36:
 839              	 .cfi_def_cfa_register 13
 840              	 
 841 0036 80BD     	 pop {r7,pc}
 842              	 .cfi_endproc
 843              	.LFE143:
 845              	 .section .text.xStreamBufferSend,"ax",%progbits
 846              	 .align 2
 847              	 .global xStreamBufferSend
 848              	 .thumb
 849              	 .thumb_func
 851              	xStreamBufferSend:
 852              	.LFB144:
 517:../Dave/Generated/FREERTOS/stream_buffer.c **** /*-----------------------------------------------------------*/
 518:../Dave/Generated/FREERTOS/stream_buffer.c **** 
 519:../Dave/Generated/FREERTOS/stream_buffer.c **** size_t xStreamBufferSend( StreamBufferHandle_t xStreamBuffer,
 520:../Dave/Generated/FREERTOS/stream_buffer.c ****                           const void * pvTxData,
 521:../Dave/Generated/FREERTOS/stream_buffer.c ****                           size_t xDataLengthBytes,
 522:../Dave/Generated/FREERTOS/stream_buffer.c ****                           TickType_t xTicksToWait )
 523:../Dave/Generated/FREERTOS/stream_buffer.c **** {
 853              	 .loc 1 523 0
 854              	 .cfi_startproc
 855              	 
 856              	 
 857 0000 80B5     	 push {r7,lr}
 858              	.LCFI37:
 859              	 .cfi_def_cfa_offset 8
 860              	 .cfi_offset 7,-8
 861              	 .cfi_offset 14,-4
 862 0002 92B0     	 sub sp,sp,#72
 863              	.LCFI38:
 864              	 .cfi_def_cfa_offset 80
 865 0004 02AF     	 add r7,sp,#8
 866              	.LCFI39:
 867              	 .cfi_def_cfa 7,72
 868 0006 F860     	 str r0,[r7,#12]
 869 0008 B960     	 str r1,[r7,#8]
 870 000a 7A60     	 str r2,[r7,#4]
 871 000c 3B60     	 str r3,[r7]
 524:../Dave/Generated/FREERTOS/stream_buffer.c ****     StreamBuffer_t * const pxStreamBuffer = xStreamBuffer;
 872              	 .loc 1 524 0
 873 000e FB68     	 ldr r3,[r7,#12]
 874 0010 7B63     	 str r3,[r7,#52]
 525:../Dave/Generated/FREERTOS/stream_buffer.c ****     size_t xReturn, xSpace = 0;
 875              	 .loc 1 525 0
 876 0012 0023     	 movs r3,#0
 877 0014 FB63     	 str r3,[r7,#60]
 526:../Dave/Generated/FREERTOS/stream_buffer.c ****     size_t xRequiredSpace = xDataLengthBytes;
 878              	 .loc 1 526 0
 879 0016 7B68     	 ldr r3,[r7,#4]
 880 0018 BB63     	 str r3,[r7,#56]
 527:../Dave/Generated/FREERTOS/stream_buffer.c ****     TimeOut_t xTimeOut;
 528:../Dave/Generated/FREERTOS/stream_buffer.c **** 
 529:../Dave/Generated/FREERTOS/stream_buffer.c ****     /* The maximum amount of space a stream buffer will ever report is its length
 530:../Dave/Generated/FREERTOS/stream_buffer.c ****      * minus 1. */
 531:../Dave/Generated/FREERTOS/stream_buffer.c ****     const size_t xMaxReportedSpace = pxStreamBuffer->xLength - ( size_t ) 1;
 881              	 .loc 1 531 0
 882 001a 7B6B     	 ldr r3,[r7,#52]
 883 001c 9B68     	 ldr r3,[r3,#8]
 884 001e 013B     	 subs r3,r3,#1
 885 0020 3B63     	 str r3,[r7,#48]
 532:../Dave/Generated/FREERTOS/stream_buffer.c **** 
 533:../Dave/Generated/FREERTOS/stream_buffer.c ****     configASSERT( pvTxData );
 886              	 .loc 1 533 0
 887 0022 BB68     	 ldr r3,[r7,#8]
 888 0024 002B     	 cmp r3,#0
 889 0026 09D1     	 bne .L57
 890              	.LBB123:
 891              	.LBB124:
 892              	 .loc 2 197 0 discriminator 1
 893              	
 894 0028 4FF0FC03 	 mov r3,#252
 895 002c 83F31188 	 msr basepri,r3
 896 0030 BFF36F8F 	 isb 
 897 0034 BFF34F8F 	 dsb 
 898              	
 899              	
 900              	 .thumb
 901 0038 BB62     	 str r3,[r7,#40]
 902              	.L58:
 903              	.LBE124:
 904              	.LBE123:
 905              	 .loc 1 533 0 discriminator 1
 906 003a FEE7     	 b .L58
 907              	.L57:
 534:../Dave/Generated/FREERTOS/stream_buffer.c ****     configASSERT( pxStreamBuffer );
 908              	 .loc 1 534 0
 909 003c 7B6B     	 ldr r3,[r7,#52]
 910 003e 002B     	 cmp r3,#0
 911 0040 09D1     	 bne .L59
 912              	.LBB125:
 913              	.LBB126:
 914              	 .loc 2 197 0 discriminator 1
 915              	
 916 0042 4FF0FC03 	 mov r3,#252
 917 0046 83F31188 	 msr basepri,r3
 918 004a BFF36F8F 	 isb 
 919 004e BFF34F8F 	 dsb 
 920              	
 921              	
 922              	 .thumb
 923 0052 7B62     	 str r3,[r7,#36]
 924              	.L60:
 925              	.LBE126:
 926              	.LBE125:
 927              	 .loc 1 534 0 discriminator 2
 928 0054 FEE7     	 b .L60
 929              	.L59:
 535:../Dave/Generated/FREERTOS/stream_buffer.c **** 
 536:../Dave/Generated/FREERTOS/stream_buffer.c ****     /* This send function is used to write to both message buffers and stream
 537:../Dave/Generated/FREERTOS/stream_buffer.c ****      * buffers.  If this is a message buffer then the space needed must be
 538:../Dave/Generated/FREERTOS/stream_buffer.c ****      * increased by the amount of bytes needed to store the length of the
 539:../Dave/Generated/FREERTOS/stream_buffer.c ****      * message. */
 540:../Dave/Generated/FREERTOS/stream_buffer.c ****     if( ( pxStreamBuffer->ucFlags & sbFLAGS_IS_MESSAGE_BUFFER ) != ( uint8_t ) 0 )
 930              	 .loc 1 540 0
 931 0056 7B6B     	 ldr r3,[r7,#52]
 932 0058 1B7F     	 ldrb r3,[r3,#28]
 933 005a 03F00103 	 and r3,r3,#1
 934 005e 002B     	 cmp r3,#0
 935 0060 17D0     	 beq .L61
 541:../Dave/Generated/FREERTOS/stream_buffer.c ****     {
 542:../Dave/Generated/FREERTOS/stream_buffer.c ****         xRequiredSpace += sbBYTES_TO_STORE_MESSAGE_LENGTH;
 936              	 .loc 1 542 0
 937 0062 BB6B     	 ldr r3,[r7,#56]
 938 0064 0433     	 adds r3,r3,#4
 939 0066 BB63     	 str r3,[r7,#56]
 543:../Dave/Generated/FREERTOS/stream_buffer.c **** 
 544:../Dave/Generated/FREERTOS/stream_buffer.c ****         /* Overflow? */
 545:../Dave/Generated/FREERTOS/stream_buffer.c ****         configASSERT( xRequiredSpace > xDataLengthBytes );
 940              	 .loc 1 545 0
 941 0068 BA6B     	 ldr r2,[r7,#56]
 942 006a 7B68     	 ldr r3,[r7,#4]
 943 006c 9A42     	 cmp r2,r3
 944 006e 09D8     	 bhi .L62
 945              	.LBB127:
 946              	.LBB128:
 947              	 .loc 2 197 0 discriminator 1
 948              	
 949 0070 4FF0FC03 	 mov r3,#252
 950 0074 83F31188 	 msr basepri,r3
 951 0078 BFF36F8F 	 isb 
 952 007c BFF34F8F 	 dsb 
 953              	
 954              	
 955              	 .thumb
 956 0080 3B62     	 str r3,[r7,#32]
 957              	.L63:
 958              	.LBE128:
 959              	.LBE127:
 960              	 .loc 1 545 0 discriminator 3
 961 0082 FEE7     	 b .L63
 962              	.L62:
 546:../Dave/Generated/FREERTOS/stream_buffer.c **** 
 547:../Dave/Generated/FREERTOS/stream_buffer.c ****         /* If this is a message buffer then it must be possible to write the
 548:../Dave/Generated/FREERTOS/stream_buffer.c ****          * whole message. */
 549:../Dave/Generated/FREERTOS/stream_buffer.c ****         if( xRequiredSpace > xMaxReportedSpace )
 963              	 .loc 1 549 0
 964 0084 BA6B     	 ldr r2,[r7,#56]
 965 0086 3B6B     	 ldr r3,[r7,#48]
 966 0088 9A42     	 cmp r2,r3
 967 008a 08D9     	 bls .L64
 550:../Dave/Generated/FREERTOS/stream_buffer.c ****         {
 551:../Dave/Generated/FREERTOS/stream_buffer.c ****             /* The message would not fit even if the entire buffer was empty,
 552:../Dave/Generated/FREERTOS/stream_buffer.c ****              * so don't wait for space. */
 553:../Dave/Generated/FREERTOS/stream_buffer.c ****             xTicksToWait = ( TickType_t ) 0;
 968              	 .loc 1 553 0
 969 008c 0023     	 movs r3,#0
 970 008e 3B60     	 str r3,[r7]
 971 0090 05E0     	 b .L64
 972              	.L61:
 554:../Dave/Generated/FREERTOS/stream_buffer.c ****         }
 555:../Dave/Generated/FREERTOS/stream_buffer.c ****         else
 556:../Dave/Generated/FREERTOS/stream_buffer.c ****         {
 557:../Dave/Generated/FREERTOS/stream_buffer.c ****             mtCOVERAGE_TEST_MARKER();
 558:../Dave/Generated/FREERTOS/stream_buffer.c ****         }
 559:../Dave/Generated/FREERTOS/stream_buffer.c ****     }
 560:../Dave/Generated/FREERTOS/stream_buffer.c ****     else
 561:../Dave/Generated/FREERTOS/stream_buffer.c ****     {
 562:../Dave/Generated/FREERTOS/stream_buffer.c ****         /* If this is a stream buffer then it is acceptable to write only part
 563:../Dave/Generated/FREERTOS/stream_buffer.c ****          * of the message to the buffer.  Cap the length to the total length of
 564:../Dave/Generated/FREERTOS/stream_buffer.c ****          * the buffer. */
 565:../Dave/Generated/FREERTOS/stream_buffer.c ****         if( xRequiredSpace > xMaxReportedSpace )
 973              	 .loc 1 565 0
 974 0092 BA6B     	 ldr r2,[r7,#56]
 975 0094 3B6B     	 ldr r3,[r7,#48]
 976 0096 9A42     	 cmp r2,r3
 977 0098 01D9     	 bls .L64
 566:../Dave/Generated/FREERTOS/stream_buffer.c ****         {
 567:../Dave/Generated/FREERTOS/stream_buffer.c ****             xRequiredSpace = xMaxReportedSpace;
 978              	 .loc 1 567 0
 979 009a 3B6B     	 ldr r3,[r7,#48]
 980 009c BB63     	 str r3,[r7,#56]
 981              	.L64:
 568:../Dave/Generated/FREERTOS/stream_buffer.c ****         }
 569:../Dave/Generated/FREERTOS/stream_buffer.c ****         else
 570:../Dave/Generated/FREERTOS/stream_buffer.c ****         {
 571:../Dave/Generated/FREERTOS/stream_buffer.c ****             mtCOVERAGE_TEST_MARKER();
 572:../Dave/Generated/FREERTOS/stream_buffer.c ****         }
 573:../Dave/Generated/FREERTOS/stream_buffer.c ****     }
 574:../Dave/Generated/FREERTOS/stream_buffer.c **** 
 575:../Dave/Generated/FREERTOS/stream_buffer.c ****     if( xTicksToWait != ( TickType_t ) 0 )
 982              	 .loc 1 575 0
 983 009e 3B68     	 ldr r3,[r7]
 984 00a0 002B     	 cmp r3,#0
 985 00a2 41D0     	 beq .L65
 576:../Dave/Generated/FREERTOS/stream_buffer.c ****     {
 577:../Dave/Generated/FREERTOS/stream_buffer.c ****         vTaskSetTimeOutState( &xTimeOut );
 986              	 .loc 1 577 0
 987 00a4 07F11403 	 add r3,r7,#20
 988 00a8 1846     	 mov r0,r3
 989 00aa FFF7FEFF 	 bl vTaskSetTimeOutState
 990              	.L71:
 578:../Dave/Generated/FREERTOS/stream_buffer.c **** 
 579:../Dave/Generated/FREERTOS/stream_buffer.c ****         do
 580:../Dave/Generated/FREERTOS/stream_buffer.c ****         {
 581:../Dave/Generated/FREERTOS/stream_buffer.c ****             /* Wait until the required number of bytes are free in the message
 582:../Dave/Generated/FREERTOS/stream_buffer.c ****              * buffer. */
 583:../Dave/Generated/FREERTOS/stream_buffer.c ****             taskENTER_CRITICAL();
 991              	 .loc 1 583 0
 992 00ae FFF7FEFF 	 bl vPortEnterCritical
 584:../Dave/Generated/FREERTOS/stream_buffer.c ****             {
 585:../Dave/Generated/FREERTOS/stream_buffer.c ****                 xSpace = xStreamBufferSpacesAvailable( pxStreamBuffer );
 993              	 .loc 1 585 0
 994 00b2 786B     	 ldr r0,[r7,#52]
 995 00b4 FFF7FEFF 	 bl xStreamBufferSpacesAvailable
 996 00b8 F863     	 str r0,[r7,#60]
 586:../Dave/Generated/FREERTOS/stream_buffer.c **** 
 587:../Dave/Generated/FREERTOS/stream_buffer.c ****                 if( xSpace < xRequiredSpace )
 997              	 .loc 1 587 0
 998 00ba FA6B     	 ldr r2,[r7,#60]
 999 00bc BB6B     	 ldr r3,[r7,#56]
 1000 00be 9A42     	 cmp r2,r3
 1001 00c0 17D2     	 bcs .L66
 588:../Dave/Generated/FREERTOS/stream_buffer.c ****                 {
 589:../Dave/Generated/FREERTOS/stream_buffer.c ****                     /* Clear notification state as going to wait for space. */
 590:../Dave/Generated/FREERTOS/stream_buffer.c ****                     ( void ) xTaskNotifyStateClear( NULL );
 1002              	 .loc 1 590 0
 1003 00c2 0020     	 movs r0,#0
 1004 00c4 0021     	 movs r1,#0
 1005 00c6 FFF7FEFF 	 bl xTaskGenericNotifyStateClear
 591:../Dave/Generated/FREERTOS/stream_buffer.c **** 
 592:../Dave/Generated/FREERTOS/stream_buffer.c ****                     /* Should only be one writer. */
 593:../Dave/Generated/FREERTOS/stream_buffer.c ****                     configASSERT( pxStreamBuffer->xTaskWaitingToSend == NULL );
 1006              	 .loc 1 593 0
 1007 00ca 7B6B     	 ldr r3,[r7,#52]
 1008 00cc 5B69     	 ldr r3,[r3,#20]
 1009 00ce 002B     	 cmp r3,#0
 1010 00d0 09D0     	 beq .L67
 1011              	.LBB129:
 1012              	.LBB130:
 1013              	 .loc 2 197 0 discriminator 1
 1014              	
 1015 00d2 4FF0FC03 	 mov r3,#252
 1016 00d6 83F31188 	 msr basepri,r3
 1017 00da BFF36F8F 	 isb 
 1018 00de BFF34F8F 	 dsb 
 1019              	
 1020              	
 1021              	 .thumb
 1022 00e2 FB61     	 str r3,[r7,#28]
 1023              	.L68:
 1024              	.LBE130:
 1025              	.LBE129:
 1026              	 .loc 1 593 0 discriminator 4
 1027 00e4 FEE7     	 b .L68
 1028              	.L67:
 594:../Dave/Generated/FREERTOS/stream_buffer.c ****                     pxStreamBuffer->xTaskWaitingToSend = xTaskGetCurrentTaskHandle();
 1029              	 .loc 1 594 0
 1030 00e6 FFF7FEFF 	 bl xTaskGetCurrentTaskHandle
 1031 00ea 0246     	 mov r2,r0
 1032 00ec 7B6B     	 ldr r3,[r7,#52]
 1033 00ee 5A61     	 str r2,[r3,#20]
 1034 00f0 03E0     	 b .L76
 1035              	.L66:
 595:../Dave/Generated/FREERTOS/stream_buffer.c ****                 }
 596:../Dave/Generated/FREERTOS/stream_buffer.c ****                 else
 597:../Dave/Generated/FREERTOS/stream_buffer.c ****                 {
 598:../Dave/Generated/FREERTOS/stream_buffer.c ****                     taskEXIT_CRITICAL();
 1036              	 .loc 1 598 0
 1037 00f2 FFF7FEFF 	 bl vPortExitCritical
 599:../Dave/Generated/FREERTOS/stream_buffer.c ****                     break;
 1038              	 .loc 1 599 0
 1039 00f6 00BF     	 nop
 1040 00f8 16E0     	 b .L65
 1041              	.L76:
 600:../Dave/Generated/FREERTOS/stream_buffer.c ****                 }
 601:../Dave/Generated/FREERTOS/stream_buffer.c ****             }
 602:../Dave/Generated/FREERTOS/stream_buffer.c ****             taskEXIT_CRITICAL();
 1042              	 .loc 1 602 0
 1043 00fa FFF7FEFF 	 bl vPortExitCritical
 603:../Dave/Generated/FREERTOS/stream_buffer.c **** 
 604:../Dave/Generated/FREERTOS/stream_buffer.c ****             traceBLOCKING_ON_STREAM_BUFFER_SEND( xStreamBuffer );
 605:../Dave/Generated/FREERTOS/stream_buffer.c ****             ( void ) xTaskNotifyWait( ( uint32_t ) 0, ( uint32_t ) 0, NULL, xTicksToWait );
 1044              	 .loc 1 605 0
 1045 00fe 3B68     	 ldr r3,[r7]
 1046 0100 0093     	 str r3,[sp]
 1047 0102 0020     	 movs r0,#0
 1048 0104 0021     	 movs r1,#0
 1049 0106 0022     	 movs r2,#0
 1050 0108 0023     	 movs r3,#0
 1051 010a FFF7FEFF 	 bl xTaskGenericNotifyWait
 606:../Dave/Generated/FREERTOS/stream_buffer.c ****             pxStreamBuffer->xTaskWaitingToSend = NULL;
 1052              	 .loc 1 606 0
 1053 010e 7B6B     	 ldr r3,[r7,#52]
 1054 0110 0022     	 movs r2,#0
 1055 0112 5A61     	 str r2,[r3,#20]
 607:../Dave/Generated/FREERTOS/stream_buffer.c ****         } while( xTaskCheckForTimeOut( &xTimeOut, &xTicksToWait ) == pdFALSE );
 1056              	 .loc 1 607 0
 1057 0114 07F11402 	 add r2,r7,#20
 1058 0118 3B46     	 mov r3,r7
 1059 011a 1046     	 mov r0,r2
 1060 011c 1946     	 mov r1,r3
 1061 011e FFF7FEFF 	 bl xTaskCheckForTimeOut
 1062 0122 0346     	 mov r3,r0
 1063 0124 002B     	 cmp r3,#0
 1064 0126 C2D0     	 beq .L71
 1065              	.L65:
 608:../Dave/Generated/FREERTOS/stream_buffer.c ****     }
 609:../Dave/Generated/FREERTOS/stream_buffer.c ****     else
 610:../Dave/Generated/FREERTOS/stream_buffer.c ****     {
 611:../Dave/Generated/FREERTOS/stream_buffer.c ****         mtCOVERAGE_TEST_MARKER();
 612:../Dave/Generated/FREERTOS/stream_buffer.c ****     }
 613:../Dave/Generated/FREERTOS/stream_buffer.c **** 
 614:../Dave/Generated/FREERTOS/stream_buffer.c ****     if( xSpace == ( size_t ) 0 )
 1066              	 .loc 1 614 0
 1067 0128 FB6B     	 ldr r3,[r7,#60]
 1068 012a 002B     	 cmp r3,#0
 1069 012c 03D1     	 bne .L72
 615:../Dave/Generated/FREERTOS/stream_buffer.c ****     {
 616:../Dave/Generated/FREERTOS/stream_buffer.c ****         xSpace = xStreamBufferSpacesAvailable( pxStreamBuffer );
 1070              	 .loc 1 616 0
 1071 012e 786B     	 ldr r0,[r7,#52]
 1072 0130 FFF7FEFF 	 bl xStreamBufferSpacesAvailable
 1073 0134 F863     	 str r0,[r7,#60]
 1074              	.L72:
 617:../Dave/Generated/FREERTOS/stream_buffer.c ****     }
 618:../Dave/Generated/FREERTOS/stream_buffer.c ****     else
 619:../Dave/Generated/FREERTOS/stream_buffer.c ****     {
 620:../Dave/Generated/FREERTOS/stream_buffer.c ****         mtCOVERAGE_TEST_MARKER();
 621:../Dave/Generated/FREERTOS/stream_buffer.c ****     }
 622:../Dave/Generated/FREERTOS/stream_buffer.c **** 
 623:../Dave/Generated/FREERTOS/stream_buffer.c ****     xReturn = prvWriteMessageToBuffer( pxStreamBuffer, pvTxData, xDataLengthBytes, xSpace, xRequire
 1075              	 .loc 1 623 0
 1076 0136 BB6B     	 ldr r3,[r7,#56]
 1077 0138 0093     	 str r3,[sp]
 1078 013a 786B     	 ldr r0,[r7,#52]
 1079 013c B968     	 ldr r1,[r7,#8]
 1080 013e 7A68     	 ldr r2,[r7,#4]
 1081 0140 FB6B     	 ldr r3,[r7,#60]
 1082 0142 FFF7FEFF 	 bl prvWriteMessageToBuffer
 1083 0146 F862     	 str r0,[r7,#44]
 624:../Dave/Generated/FREERTOS/stream_buffer.c **** 
 625:../Dave/Generated/FREERTOS/stream_buffer.c ****     if( xReturn > ( size_t ) 0 )
 1084              	 .loc 1 625 0
 1085 0148 FB6A     	 ldr r3,[r7,#44]
 1086 014a 002B     	 cmp r3,#0
 1087 014c 1CD0     	 beq .L73
 626:../Dave/Generated/FREERTOS/stream_buffer.c ****     {
 627:../Dave/Generated/FREERTOS/stream_buffer.c ****         traceSTREAM_BUFFER_SEND( xStreamBuffer, xReturn );
 628:../Dave/Generated/FREERTOS/stream_buffer.c **** 
 629:../Dave/Generated/FREERTOS/stream_buffer.c ****         /* Was a task waiting for the data? */
 630:../Dave/Generated/FREERTOS/stream_buffer.c ****         if( prvBytesInBuffer( pxStreamBuffer ) >= pxStreamBuffer->xTriggerLevelBytes )
 1088              	 .loc 1 630 0
 1089 014e 786B     	 ldr r0,[r7,#52]
 1090 0150 FFF7FEFF 	 bl prvBytesInBuffer
 1091 0154 0246     	 mov r2,r0
 1092 0156 7B6B     	 ldr r3,[r7,#52]
 1093 0158 DB68     	 ldr r3,[r3,#12]
 1094 015a 9A42     	 cmp r2,r3
 1095 015c 14D3     	 bcc .L73
 631:../Dave/Generated/FREERTOS/stream_buffer.c ****         {
 632:../Dave/Generated/FREERTOS/stream_buffer.c ****             sbSEND_COMPLETED( pxStreamBuffer );
 1096              	 .loc 1 632 0
 1097 015e FFF7FEFF 	 bl vTaskSuspendAll
 1098 0162 7B6B     	 ldr r3,[r7,#52]
 1099 0164 1B69     	 ldr r3,[r3,#16]
 1100 0166 002B     	 cmp r3,#0
 1101 0168 0CD0     	 beq .L74
 1102              	 .loc 1 632 0 is_stmt 0 discriminator 1
 1103 016a 7B6B     	 ldr r3,[r7,#52]
 1104 016c 1A69     	 ldr r2,[r3,#16]
 1105 016e 0023     	 movs r3,#0
 1106 0170 0093     	 str r3,[sp]
 1107 0172 1046     	 mov r0,r2
 1108 0174 0021     	 movs r1,#0
 1109 0176 0022     	 movs r2,#0
 1110 0178 0023     	 movs r3,#0
 1111 017a FFF7FEFF 	 bl xTaskGenericNotify
 1112 017e 7B6B     	 ldr r3,[r7,#52]
 1113 0180 0022     	 movs r2,#0
 1114 0182 1A61     	 str r2,[r3,#16]
 1115              	.L74:
 1116              	 .loc 1 632 0 discriminator 3
 1117 0184 FFF7FEFF 	 bl xTaskResumeAll
 1118              	.L73:
 633:../Dave/Generated/FREERTOS/stream_buffer.c ****         }
 634:../Dave/Generated/FREERTOS/stream_buffer.c ****         else
 635:../Dave/Generated/FREERTOS/stream_buffer.c ****         {
 636:../Dave/Generated/FREERTOS/stream_buffer.c ****             mtCOVERAGE_TEST_MARKER();
 637:../Dave/Generated/FREERTOS/stream_buffer.c ****         }
 638:../Dave/Generated/FREERTOS/stream_buffer.c ****     }
 639:../Dave/Generated/FREERTOS/stream_buffer.c ****     else
 640:../Dave/Generated/FREERTOS/stream_buffer.c ****     {
 641:../Dave/Generated/FREERTOS/stream_buffer.c ****         mtCOVERAGE_TEST_MARKER();
 642:../Dave/Generated/FREERTOS/stream_buffer.c ****         traceSTREAM_BUFFER_SEND_FAILED( xStreamBuffer );
 643:../Dave/Generated/FREERTOS/stream_buffer.c ****     }
 644:../Dave/Generated/FREERTOS/stream_buffer.c **** 
 645:../Dave/Generated/FREERTOS/stream_buffer.c ****     return xReturn;
 1119              	 .loc 1 645 0 is_stmt 1
 1120 0188 FB6A     	 ldr r3,[r7,#44]
 646:../Dave/Generated/FREERTOS/stream_buffer.c **** }
 1121              	 .loc 1 646 0
 1122 018a 1846     	 mov r0,r3
 1123 018c 4037     	 adds r7,r7,#64
 1124              	.LCFI40:
 1125              	 .cfi_def_cfa_offset 8
 1126 018e BD46     	 mov sp,r7
 1127              	.LCFI41:
 1128              	 .cfi_def_cfa_register 13
 1129              	 
 1130 0190 80BD     	 pop {r7,pc}
 1131              	 .cfi_endproc
 1132              	.LFE144:
 1134 0192 00BF     	 .section .text.xStreamBufferSendFromISR,"ax",%progbits
 1135              	 .align 2
 1136              	 .global xStreamBufferSendFromISR
 1137              	 .thumb
 1138              	 .thumb_func
 1140              	xStreamBufferSendFromISR:
 1141              	.LFB145:
 647:../Dave/Generated/FREERTOS/stream_buffer.c **** /*-----------------------------------------------------------*/
 648:../Dave/Generated/FREERTOS/stream_buffer.c **** 
 649:../Dave/Generated/FREERTOS/stream_buffer.c **** size_t xStreamBufferSendFromISR( StreamBufferHandle_t xStreamBuffer,
 650:../Dave/Generated/FREERTOS/stream_buffer.c ****                                  const void * pvTxData,
 651:../Dave/Generated/FREERTOS/stream_buffer.c ****                                  size_t xDataLengthBytes,
 652:../Dave/Generated/FREERTOS/stream_buffer.c ****                                  BaseType_t * const pxHigherPriorityTaskWoken )
 653:../Dave/Generated/FREERTOS/stream_buffer.c **** {
 1142              	 .loc 1 653 0
 1143              	 .cfi_startproc
 1144              	 
 1145              	 
 1146 0000 80B5     	 push {r7,lr}
 1147              	.LCFI42:
 1148              	 .cfi_def_cfa_offset 8
 1149              	 .cfi_offset 7,-8
 1150              	 .cfi_offset 14,-4
 1151 0002 90B0     	 sub sp,sp,#64
 1152              	.LCFI43:
 1153              	 .cfi_def_cfa_offset 72
 1154 0004 02AF     	 add r7,sp,#8
 1155              	.LCFI44:
 1156              	 .cfi_def_cfa 7,64
 1157 0006 F860     	 str r0,[r7,#12]
 1158 0008 B960     	 str r1,[r7,#8]
 1159 000a 7A60     	 str r2,[r7,#4]
 1160 000c 3B60     	 str r3,[r7]
 654:../Dave/Generated/FREERTOS/stream_buffer.c ****     StreamBuffer_t * const pxStreamBuffer = xStreamBuffer;
 1161              	 .loc 1 654 0
 1162 000e FB68     	 ldr r3,[r7,#12]
 1163 0010 3B63     	 str r3,[r7,#48]
 655:../Dave/Generated/FREERTOS/stream_buffer.c ****     size_t xReturn, xSpace;
 656:../Dave/Generated/FREERTOS/stream_buffer.c ****     size_t xRequiredSpace = xDataLengthBytes;
 1164              	 .loc 1 656 0
 1165 0012 7B68     	 ldr r3,[r7,#4]
 1166 0014 7B63     	 str r3,[r7,#52]
 657:../Dave/Generated/FREERTOS/stream_buffer.c **** 
 658:../Dave/Generated/FREERTOS/stream_buffer.c ****     configASSERT( pvTxData );
 1167              	 .loc 1 658 0
 1168 0016 BB68     	 ldr r3,[r7,#8]
 1169 0018 002B     	 cmp r3,#0
 1170 001a 09D1     	 bne .L78
 1171              	.LBB131:
 1172              	.LBB132:
 1173              	 .loc 2 197 0 discriminator 1
 1174              	
 1175 001c 4FF0FC03 	 mov r3,#252
 1176 0020 83F31188 	 msr basepri,r3
 1177 0024 BFF36F8F 	 isb 
 1178 0028 BFF34F8F 	 dsb 
 1179              	
 1180              	
 1181              	 .thumb
 1182 002c 3B62     	 str r3,[r7,#32]
 1183              	.L79:
 1184              	.LBE132:
 1185              	.LBE131:
 1186              	 .loc 1 658 0 discriminator 1
 1187 002e FEE7     	 b .L79
 1188              	.L78:
 659:../Dave/Generated/FREERTOS/stream_buffer.c ****     configASSERT( pxStreamBuffer );
 1189              	 .loc 1 659 0
 1190 0030 3B6B     	 ldr r3,[r7,#48]
 1191 0032 002B     	 cmp r3,#0
 1192 0034 09D1     	 bne .L80
 1193              	.LBB133:
 1194              	.LBB134:
 1195              	 .loc 2 197 0 discriminator 1
 1196              	
 1197 0036 4FF0FC03 	 mov r3,#252
 1198 003a 83F31188 	 msr basepri,r3
 1199 003e BFF36F8F 	 isb 
 1200 0042 BFF34F8F 	 dsb 
 1201              	
 1202              	
 1203              	 .thumb
 1204 0046 FB61     	 str r3,[r7,#28]
 1205              	.L81:
 1206              	.LBE134:
 1207              	.LBE133:
 1208              	 .loc 1 659 0 discriminator 2
 1209 0048 FEE7     	 b .L81
 1210              	.L80:
 660:../Dave/Generated/FREERTOS/stream_buffer.c **** 
 661:../Dave/Generated/FREERTOS/stream_buffer.c ****     /* This send function is used to write to both message buffers and stream
 662:../Dave/Generated/FREERTOS/stream_buffer.c ****      * buffers.  If this is a message buffer then the space needed must be
 663:../Dave/Generated/FREERTOS/stream_buffer.c ****      * increased by the amount of bytes needed to store the length of the
 664:../Dave/Generated/FREERTOS/stream_buffer.c ****      * message. */
 665:../Dave/Generated/FREERTOS/stream_buffer.c ****     if( ( pxStreamBuffer->ucFlags & sbFLAGS_IS_MESSAGE_BUFFER ) != ( uint8_t ) 0 )
 1211              	 .loc 1 665 0
 1212 004a 3B6B     	 ldr r3,[r7,#48]
 1213 004c 1B7F     	 ldrb r3,[r3,#28]
 1214 004e 03F00103 	 and r3,r3,#1
 1215 0052 002B     	 cmp r3,#0
 1216 0054 02D0     	 beq .L82
 666:../Dave/Generated/FREERTOS/stream_buffer.c ****     {
 667:../Dave/Generated/FREERTOS/stream_buffer.c ****         xRequiredSpace += sbBYTES_TO_STORE_MESSAGE_LENGTH;
 1217              	 .loc 1 667 0
 1218 0056 7B6B     	 ldr r3,[r7,#52]
 1219 0058 0433     	 adds r3,r3,#4
 1220 005a 7B63     	 str r3,[r7,#52]
 1221              	.L82:
 668:../Dave/Generated/FREERTOS/stream_buffer.c ****     }
 669:../Dave/Generated/FREERTOS/stream_buffer.c ****     else
 670:../Dave/Generated/FREERTOS/stream_buffer.c ****     {
 671:../Dave/Generated/FREERTOS/stream_buffer.c ****         mtCOVERAGE_TEST_MARKER();
 672:../Dave/Generated/FREERTOS/stream_buffer.c ****     }
 673:../Dave/Generated/FREERTOS/stream_buffer.c **** 
 674:../Dave/Generated/FREERTOS/stream_buffer.c ****     xSpace = xStreamBufferSpacesAvailable( pxStreamBuffer );
 1222              	 .loc 1 674 0
 1223 005c 386B     	 ldr r0,[r7,#48]
 1224 005e FFF7FEFF 	 bl xStreamBufferSpacesAvailable
 1225 0062 F862     	 str r0,[r7,#44]
 675:../Dave/Generated/FREERTOS/stream_buffer.c ****     xReturn = prvWriteMessageToBuffer( pxStreamBuffer, pvTxData, xDataLengthBytes, xSpace, xRequire
 1226              	 .loc 1 675 0
 1227 0064 7B6B     	 ldr r3,[r7,#52]
 1228 0066 0093     	 str r3,[sp]
 1229 0068 386B     	 ldr r0,[r7,#48]
 1230 006a B968     	 ldr r1,[r7,#8]
 1231 006c 7A68     	 ldr r2,[r7,#4]
 1232 006e FB6A     	 ldr r3,[r7,#44]
 1233 0070 FFF7FEFF 	 bl prvWriteMessageToBuffer
 1234 0074 B862     	 str r0,[r7,#40]
 676:../Dave/Generated/FREERTOS/stream_buffer.c **** 
 677:../Dave/Generated/FREERTOS/stream_buffer.c ****     if( xReturn > ( size_t ) 0 )
 1235              	 .loc 1 677 0
 1236 0076 BB6A     	 ldr r3,[r7,#40]
 1237 0078 002B     	 cmp r3,#0
 1238 007a 2DD0     	 beq .L83
 678:../Dave/Generated/FREERTOS/stream_buffer.c ****     {
 679:../Dave/Generated/FREERTOS/stream_buffer.c ****         /* Was a task waiting for the data? */
 680:../Dave/Generated/FREERTOS/stream_buffer.c ****         if( prvBytesInBuffer( pxStreamBuffer ) >= pxStreamBuffer->xTriggerLevelBytes )
 1239              	 .loc 1 680 0
 1240 007c 386B     	 ldr r0,[r7,#48]
 1241 007e FFF7FEFF 	 bl prvBytesInBuffer
 1242 0082 0246     	 mov r2,r0
 1243 0084 3B6B     	 ldr r3,[r7,#48]
 1244 0086 DB68     	 ldr r3,[r3,#12]
 1245 0088 9A42     	 cmp r2,r3
 1246 008a 25D3     	 bcc .L83
 1247              	.LBB135:
 1248              	.LBB136:
 1249              	.LBB137:
 198:C:/Infineon/Tools/DAVE IDE/4.5.0.202105191637/eclipse/workspace/xmc4800-CE/Dave/Generated/FREERTOS/portable/GCC\portmacro.h ****         (
 199:C:/Infineon/Tools/DAVE IDE/4.5.0.202105191637/eclipse/workspace/xmc4800-CE/Dave/Generated/FREERTOS/portable/GCC\portmacro.h ****             "	mov %0, %1												\n"\
 200:C:/Infineon/Tools/DAVE IDE/4.5.0.202105191637/eclipse/workspace/xmc4800-CE/Dave/Generated/FREERTOS/portable/GCC\portmacro.h ****             "	msr basepri, %0											\n"\
 201:C:/Infineon/Tools/DAVE IDE/4.5.0.202105191637/eclipse/workspace/xmc4800-CE/Dave/Generated/FREERTOS/portable/GCC\portmacro.h ****             "	isb														\n"\
 202:C:/Infineon/Tools/DAVE IDE/4.5.0.202105191637/eclipse/workspace/xmc4800-CE/Dave/Generated/FREERTOS/portable/GCC\portmacro.h ****             "	dsb														\n"\
 203:C:/Infineon/Tools/DAVE IDE/4.5.0.202105191637/eclipse/workspace/xmc4800-CE/Dave/Generated/FREERTOS/portable/GCC\portmacro.h ****             : "=r" ( ulNewBASEPRI ) : "i" ( configMAX_SYSCALL_INTERRUPT_PRIORITY ) : "memory"
 204:C:/Infineon/Tools/DAVE IDE/4.5.0.202105191637/eclipse/workspace/xmc4800-CE/Dave/Generated/FREERTOS/portable/GCC\portmacro.h ****         );
 205:C:/Infineon/Tools/DAVE IDE/4.5.0.202105191637/eclipse/workspace/xmc4800-CE/Dave/Generated/FREERTOS/portable/GCC\portmacro.h ****     }
 206:C:/Infineon/Tools/DAVE IDE/4.5.0.202105191637/eclipse/workspace/xmc4800-CE/Dave/Generated/FREERTOS/portable/GCC\portmacro.h **** 
 207:C:/Infineon/Tools/DAVE IDE/4.5.0.202105191637/eclipse/workspace/xmc4800-CE/Dave/Generated/FREERTOS/portable/GCC\portmacro.h **** /*-----------------------------------------------------------*/
 208:C:/Infineon/Tools/DAVE IDE/4.5.0.202105191637/eclipse/workspace/xmc4800-CE/Dave/Generated/FREERTOS/portable/GCC\portmacro.h **** 
 209:C:/Infineon/Tools/DAVE IDE/4.5.0.202105191637/eclipse/workspace/xmc4800-CE/Dave/Generated/FREERTOS/portable/GCC\portmacro.h ****     portFORCE_INLINE static uint32_t ulPortRaiseBASEPRI( void )
 210:C:/Infineon/Tools/DAVE IDE/4.5.0.202105191637/eclipse/workspace/xmc4800-CE/Dave/Generated/FREERTOS/portable/GCC\portmacro.h ****     {
 211:C:/Infineon/Tools/DAVE IDE/4.5.0.202105191637/eclipse/workspace/xmc4800-CE/Dave/Generated/FREERTOS/portable/GCC\portmacro.h ****         uint32_t ulOriginalBASEPRI, ulNewBASEPRI;
 212:C:/Infineon/Tools/DAVE IDE/4.5.0.202105191637/eclipse/workspace/xmc4800-CE/Dave/Generated/FREERTOS/portable/GCC\portmacro.h **** 
 213:C:/Infineon/Tools/DAVE IDE/4.5.0.202105191637/eclipse/workspace/xmc4800-CE/Dave/Generated/FREERTOS/portable/GCC\portmacro.h ****         __asm volatile
 1250              	 .loc 2 213 0
 1251              	
 1252 008c EFF31182 	 mrs r2,basepri
 1253 0090 4FF0FC03 	 mov r3,#252
 1254 0094 83F31188 	 msr basepri,r3
 1255 0098 BFF36F8F 	 isb 
 1256 009c BFF34F8F 	 dsb 
 1257              	
 1258              	
 1259              	 .thumb
 1260 00a0 BA61     	 str r2,[r7,#24]
 1261 00a2 7B61     	 str r3,[r7,#20]
 214:C:/Infineon/Tools/DAVE IDE/4.5.0.202105191637/eclipse/workspace/xmc4800-CE/Dave/Generated/FREERTOS/portable/GCC\portmacro.h ****         (
 215:C:/Infineon/Tools/DAVE IDE/4.5.0.202105191637/eclipse/workspace/xmc4800-CE/Dave/Generated/FREERTOS/portable/GCC\portmacro.h ****             "	mrs %0, basepri											\n"\
 216:C:/Infineon/Tools/DAVE IDE/4.5.0.202105191637/eclipse/workspace/xmc4800-CE/Dave/Generated/FREERTOS/portable/GCC\portmacro.h ****             "	mov %1, %2												\n"\
 217:C:/Infineon/Tools/DAVE IDE/4.5.0.202105191637/eclipse/workspace/xmc4800-CE/Dave/Generated/FREERTOS/portable/GCC\portmacro.h ****             "	msr basepri, %1											\n"\
 218:C:/Infineon/Tools/DAVE IDE/4.5.0.202105191637/eclipse/workspace/xmc4800-CE/Dave/Generated/FREERTOS/portable/GCC\portmacro.h ****             "	isb														\n"\
 219:C:/Infineon/Tools/DAVE IDE/4.5.0.202105191637/eclipse/workspace/xmc4800-CE/Dave/Generated/FREERTOS/portable/GCC\portmacro.h ****             "	dsb														\n"\
 220:C:/Infineon/Tools/DAVE IDE/4.5.0.202105191637/eclipse/workspace/xmc4800-CE/Dave/Generated/FREERTOS/portable/GCC\portmacro.h ****             : "=r" ( ulOriginalBASEPRI ), "=r" ( ulNewBASEPRI ) : "i" ( configMAX_SYSCALL_INTERRUPT
 221:C:/Infineon/Tools/DAVE IDE/4.5.0.202105191637/eclipse/workspace/xmc4800-CE/Dave/Generated/FREERTOS/portable/GCC\portmacro.h ****         );
 222:C:/Infineon/Tools/DAVE IDE/4.5.0.202105191637/eclipse/workspace/xmc4800-CE/Dave/Generated/FREERTOS/portable/GCC\portmacro.h **** 
 223:C:/Infineon/Tools/DAVE IDE/4.5.0.202105191637/eclipse/workspace/xmc4800-CE/Dave/Generated/FREERTOS/portable/GCC\portmacro.h ****         /* This return will not be reached but is necessary to prevent compiler
 224:C:/Infineon/Tools/DAVE IDE/4.5.0.202105191637/eclipse/workspace/xmc4800-CE/Dave/Generated/FREERTOS/portable/GCC\portmacro.h ****          * warnings. */
 225:C:/Infineon/Tools/DAVE IDE/4.5.0.202105191637/eclipse/workspace/xmc4800-CE/Dave/Generated/FREERTOS/portable/GCC\portmacro.h ****         return ulOriginalBASEPRI;
 1262              	 .loc 2 225 0
 1263 00a4 BB69     	 ldr r3,[r7,#24]
 1264              	.LBE137:
 1265              	.LBE136:
 681:../Dave/Generated/FREERTOS/stream_buffer.c ****         {
 682:../Dave/Generated/FREERTOS/stream_buffer.c ****             sbSEND_COMPLETE_FROM_ISR( pxStreamBuffer, pxHigherPriorityTaskWoken );
 1266              	 .loc 1 682 0
 1267 00a6 7B62     	 str r3,[r7,#36]
 1268 00a8 3B6B     	 ldr r3,[r7,#48]
 1269 00aa 1B69     	 ldr r3,[r3,#16]
 1270 00ac 002B     	 cmp r3,#0
 1271 00ae 0ED0     	 beq .L85
 1272              	 .loc 1 682 0 is_stmt 0 discriminator 1
 1273 00b0 3B6B     	 ldr r3,[r7,#48]
 1274 00b2 1A69     	 ldr r2,[r3,#16]
 1275 00b4 0023     	 movs r3,#0
 1276 00b6 0093     	 str r3,[sp]
 1277 00b8 3B68     	 ldr r3,[r7]
 1278 00ba 0193     	 str r3,[sp,#4]
 1279 00bc 1046     	 mov r0,r2
 1280 00be 0021     	 movs r1,#0
 1281 00c0 0022     	 movs r2,#0
 1282 00c2 0023     	 movs r3,#0
 1283 00c4 FFF7FEFF 	 bl xTaskGenericNotifyFromISR
 1284 00c8 3B6B     	 ldr r3,[r7,#48]
 1285 00ca 0022     	 movs r2,#0
 1286 00cc 1A61     	 str r2,[r3,#16]
 1287              	.L85:
 1288 00ce 7B6A     	 ldr r3,[r7,#36]
 1289 00d0 3B61     	 str r3,[r7,#16]
 1290              	.LBB138:
 1291              	.LBB139:
 226:C:/Infineon/Tools/DAVE IDE/4.5.0.202105191637/eclipse/workspace/xmc4800-CE/Dave/Generated/FREERTOS/portable/GCC\portmacro.h ****     }
 227:C:/Infineon/Tools/DAVE IDE/4.5.0.202105191637/eclipse/workspace/xmc4800-CE/Dave/Generated/FREERTOS/portable/GCC\portmacro.h **** /*-----------------------------------------------------------*/
 228:C:/Infineon/Tools/DAVE IDE/4.5.0.202105191637/eclipse/workspace/xmc4800-CE/Dave/Generated/FREERTOS/portable/GCC\portmacro.h **** 
 229:C:/Infineon/Tools/DAVE IDE/4.5.0.202105191637/eclipse/workspace/xmc4800-CE/Dave/Generated/FREERTOS/portable/GCC\portmacro.h ****     portFORCE_INLINE static void vPortSetBASEPRI( uint32_t ulNewMaskValue )
 230:C:/Infineon/Tools/DAVE IDE/4.5.0.202105191637/eclipse/workspace/xmc4800-CE/Dave/Generated/FREERTOS/portable/GCC\portmacro.h ****     {
 231:C:/Infineon/Tools/DAVE IDE/4.5.0.202105191637/eclipse/workspace/xmc4800-CE/Dave/Generated/FREERTOS/portable/GCC\portmacro.h ****         __asm volatile
 1292              	 .loc 2 231 0 is_stmt 1 discriminator 3
 1293 00d2 3B69     	 ldr r3,[r7,#16]
 1294              	
 1295 00d4 83F31188 	 msr basepri,r3
 1296              	
 1297              	 .thumb
 1298              	.L83:
 1299              	.LBE139:
 1300              	.LBE138:
 1301              	.LBE135:
 683:../Dave/Generated/FREERTOS/stream_buffer.c ****         }
 684:../Dave/Generated/FREERTOS/stream_buffer.c ****         else
 685:../Dave/Generated/FREERTOS/stream_buffer.c ****         {
 686:../Dave/Generated/FREERTOS/stream_buffer.c ****             mtCOVERAGE_TEST_MARKER();
 687:../Dave/Generated/FREERTOS/stream_buffer.c ****         }
 688:../Dave/Generated/FREERTOS/stream_buffer.c ****     }
 689:../Dave/Generated/FREERTOS/stream_buffer.c ****     else
 690:../Dave/Generated/FREERTOS/stream_buffer.c ****     {
 691:../Dave/Generated/FREERTOS/stream_buffer.c ****         mtCOVERAGE_TEST_MARKER();
 692:../Dave/Generated/FREERTOS/stream_buffer.c ****     }
 693:../Dave/Generated/FREERTOS/stream_buffer.c **** 
 694:../Dave/Generated/FREERTOS/stream_buffer.c ****     traceSTREAM_BUFFER_SEND_FROM_ISR( xStreamBuffer, xReturn );
 695:../Dave/Generated/FREERTOS/stream_buffer.c **** 
 696:../Dave/Generated/FREERTOS/stream_buffer.c ****     return xReturn;
 1302              	 .loc 1 696 0
 1303 00d8 BB6A     	 ldr r3,[r7,#40]
 697:../Dave/Generated/FREERTOS/stream_buffer.c **** }
 1304              	 .loc 1 697 0
 1305 00da 1846     	 mov r0,r3
 1306 00dc 3837     	 adds r7,r7,#56
 1307              	.LCFI45:
 1308              	 .cfi_def_cfa_offset 8
 1309 00de BD46     	 mov sp,r7
 1310              	.LCFI46:
 1311              	 .cfi_def_cfa_register 13
 1312              	 
 1313 00e0 80BD     	 pop {r7,pc}
 1314              	 .cfi_endproc
 1315              	.LFE145:
 1317 00e2 00BF     	 .section .text.prvWriteMessageToBuffer,"ax",%progbits
 1318              	 .align 2
 1319              	 .thumb
 1320              	 .thumb_func
 1322              	prvWriteMessageToBuffer:
 1323              	.LFB146:
 698:../Dave/Generated/FREERTOS/stream_buffer.c **** /*-----------------------------------------------------------*/
 699:../Dave/Generated/FREERTOS/stream_buffer.c **** 
 700:../Dave/Generated/FREERTOS/stream_buffer.c **** static size_t prvWriteMessageToBuffer( StreamBuffer_t * const pxStreamBuffer,
 701:../Dave/Generated/FREERTOS/stream_buffer.c ****                                        const void * pvTxData,
 702:../Dave/Generated/FREERTOS/stream_buffer.c ****                                        size_t xDataLengthBytes,
 703:../Dave/Generated/FREERTOS/stream_buffer.c ****                                        size_t xSpace,
 704:../Dave/Generated/FREERTOS/stream_buffer.c ****                                        size_t xRequiredSpace )
 705:../Dave/Generated/FREERTOS/stream_buffer.c **** {
 1324              	 .loc 1 705 0
 1325              	 .cfi_startproc
 1326              	 
 1327              	 
 1328 0000 80B5     	 push {r7,lr}
 1329              	.LCFI47:
 1330              	 .cfi_def_cfa_offset 8
 1331              	 .cfi_offset 7,-8
 1332              	 .cfi_offset 14,-4
 1333 0002 86B0     	 sub sp,sp,#24
 1334              	.LCFI48:
 1335              	 .cfi_def_cfa_offset 32
 1336 0004 00AF     	 add r7,sp,#0
 1337              	.LCFI49:
 1338              	 .cfi_def_cfa_register 7
 1339 0006 F860     	 str r0,[r7,#12]
 1340 0008 B960     	 str r1,[r7,#8]
 1341 000a 7A60     	 str r2,[r7,#4]
 1342 000c 3B60     	 str r3,[r7]
 706:../Dave/Generated/FREERTOS/stream_buffer.c ****     BaseType_t xShouldWrite;
 707:../Dave/Generated/FREERTOS/stream_buffer.c ****     size_t xReturn;
 708:../Dave/Generated/FREERTOS/stream_buffer.c **** 
 709:../Dave/Generated/FREERTOS/stream_buffer.c ****     if( xSpace == ( size_t ) 0 )
 1343              	 .loc 1 709 0
 1344 000e 3B68     	 ldr r3,[r7]
 1345 0010 002B     	 cmp r3,#0
 1346 0012 02D1     	 bne .L88
 710:../Dave/Generated/FREERTOS/stream_buffer.c ****     {
 711:../Dave/Generated/FREERTOS/stream_buffer.c ****         /* Doesn't matter if this is a stream buffer or a message buffer, there
 712:../Dave/Generated/FREERTOS/stream_buffer.c ****          * is no space to write. */
 713:../Dave/Generated/FREERTOS/stream_buffer.c ****         xShouldWrite = pdFALSE;
 1347              	 .loc 1 713 0
 1348 0014 0023     	 movs r3,#0
 1349 0016 7B61     	 str r3,[r7,#20]
 1350 0018 1DE0     	 b .L89
 1351              	.L88:
 714:../Dave/Generated/FREERTOS/stream_buffer.c ****     }
 715:../Dave/Generated/FREERTOS/stream_buffer.c ****     else if( ( pxStreamBuffer->ucFlags & sbFLAGS_IS_MESSAGE_BUFFER ) == ( uint8_t ) 0 )
 1352              	 .loc 1 715 0
 1353 001a FB68     	 ldr r3,[r7,#12]
 1354 001c 1B7F     	 ldrb r3,[r3,#28]
 1355 001e 03F00103 	 and r3,r3,#1
 1356 0022 002B     	 cmp r3,#0
 1357 0024 08D1     	 bne .L90
 716:../Dave/Generated/FREERTOS/stream_buffer.c ****     {
 717:../Dave/Generated/FREERTOS/stream_buffer.c ****         /* This is a stream buffer, as opposed to a message buffer, so writing a
 718:../Dave/Generated/FREERTOS/stream_buffer.c ****          * stream of bytes rather than discrete messages.  Write as many bytes as
 719:../Dave/Generated/FREERTOS/stream_buffer.c ****          * possible. */
 720:../Dave/Generated/FREERTOS/stream_buffer.c ****         xShouldWrite = pdTRUE;
 1358              	 .loc 1 720 0
 1359 0026 0123     	 movs r3,#1
 1360 0028 7B61     	 str r3,[r7,#20]
 721:../Dave/Generated/FREERTOS/stream_buffer.c ****         xDataLengthBytes = configMIN( xDataLengthBytes, xSpace );
 1361              	 .loc 1 721 0
 1362 002a 7A68     	 ldr r2,[r7,#4]
 1363 002c 3B68     	 ldr r3,[r7]
 1364 002e 9342     	 cmp r3,r2
 1365 0030 28BF     	 it cs
 1366 0032 1346     	 movcs r3,r2
 1367 0034 7B60     	 str r3,[r7,#4]
 1368 0036 0EE0     	 b .L89
 1369              	.L90:
 722:../Dave/Generated/FREERTOS/stream_buffer.c ****     }
 723:../Dave/Generated/FREERTOS/stream_buffer.c ****     else if( xSpace >= xRequiredSpace )
 1370              	 .loc 1 723 0
 1371 0038 3A68     	 ldr r2,[r7]
 1372 003a 3B6A     	 ldr r3,[r7,#32]
 1373 003c 9A42     	 cmp r2,r3
 1374 003e 08D3     	 bcc .L91
 724:../Dave/Generated/FREERTOS/stream_buffer.c ****     {
 725:../Dave/Generated/FREERTOS/stream_buffer.c ****         /* This is a message buffer, as opposed to a stream buffer, and there
 726:../Dave/Generated/FREERTOS/stream_buffer.c ****          * is enough space to write both the message length and the message itself
 727:../Dave/Generated/FREERTOS/stream_buffer.c ****          * into the buffer.  Start by writing the length of the data, the data
 728:../Dave/Generated/FREERTOS/stream_buffer.c ****          * itself will be written later in this function. */
 729:../Dave/Generated/FREERTOS/stream_buffer.c ****         xShouldWrite = pdTRUE;
 1375              	 .loc 1 729 0
 1376 0040 0123     	 movs r3,#1
 1377 0042 7B61     	 str r3,[r7,#20]
 730:../Dave/Generated/FREERTOS/stream_buffer.c ****         ( void ) prvWriteBytesToBuffer( pxStreamBuffer, ( const uint8_t * ) &( xDataLengthBytes ), 
 1378              	 .loc 1 730 0
 1379 0044 3B1D     	 adds r3,r7,#4
 1380 0046 F868     	 ldr r0,[r7,#12]
 1381 0048 1946     	 mov r1,r3
 1382 004a 0422     	 movs r2,#4
 1383 004c FFF7FEFF 	 bl prvWriteBytesToBuffer
 1384 0050 01E0     	 b .L89
 1385              	.L91:
 731:../Dave/Generated/FREERTOS/stream_buffer.c ****     }
 732:../Dave/Generated/FREERTOS/stream_buffer.c ****     else
 733:../Dave/Generated/FREERTOS/stream_buffer.c ****     {
 734:../Dave/Generated/FREERTOS/stream_buffer.c ****         /* There is space available, but not enough space. */
 735:../Dave/Generated/FREERTOS/stream_buffer.c ****         xShouldWrite = pdFALSE;
 1386              	 .loc 1 735 0
 1387 0052 0023     	 movs r3,#0
 1388 0054 7B61     	 str r3,[r7,#20]
 1389              	.L89:
 736:../Dave/Generated/FREERTOS/stream_buffer.c ****     }
 737:../Dave/Generated/FREERTOS/stream_buffer.c **** 
 738:../Dave/Generated/FREERTOS/stream_buffer.c ****     if( xShouldWrite != pdFALSE )
 1390              	 .loc 1 738 0
 1391 0056 7B69     	 ldr r3,[r7,#20]
 1392 0058 002B     	 cmp r3,#0
 1393 005a 07D0     	 beq .L92
 739:../Dave/Generated/FREERTOS/stream_buffer.c ****     {
 740:../Dave/Generated/FREERTOS/stream_buffer.c ****         /* Writes the data itself. */
 741:../Dave/Generated/FREERTOS/stream_buffer.c ****         xReturn = prvWriteBytesToBuffer( pxStreamBuffer, ( const uint8_t * ) pvTxData, xDataLengthB
 1394              	 .loc 1 741 0
 1395 005c 7B68     	 ldr r3,[r7,#4]
 1396 005e F868     	 ldr r0,[r7,#12]
 1397 0060 B968     	 ldr r1,[r7,#8]
 1398 0062 1A46     	 mov r2,r3
 1399 0064 FFF7FEFF 	 bl prvWriteBytesToBuffer
 1400 0068 3861     	 str r0,[r7,#16]
 1401 006a 01E0     	 b .L93
 1402              	.L92:
 742:../Dave/Generated/FREERTOS/stream_buffer.c ****     }
 743:../Dave/Generated/FREERTOS/stream_buffer.c ****     else
 744:../Dave/Generated/FREERTOS/stream_buffer.c ****     {
 745:../Dave/Generated/FREERTOS/stream_buffer.c ****         xReturn = 0;
 1403              	 .loc 1 745 0
 1404 006c 0023     	 movs r3,#0
 1405 006e 3B61     	 str r3,[r7,#16]
 1406              	.L93:
 746:../Dave/Generated/FREERTOS/stream_buffer.c ****     }
 747:../Dave/Generated/FREERTOS/stream_buffer.c **** 
 748:../Dave/Generated/FREERTOS/stream_buffer.c ****     return xReturn;
 1407              	 .loc 1 748 0
 1408 0070 3B69     	 ldr r3,[r7,#16]
 749:../Dave/Generated/FREERTOS/stream_buffer.c **** }
 1409              	 .loc 1 749 0
 1410 0072 1846     	 mov r0,r3
 1411 0074 1837     	 adds r7,r7,#24
 1412              	.LCFI50:
 1413              	 .cfi_def_cfa_offset 8
 1414 0076 BD46     	 mov sp,r7
 1415              	.LCFI51:
 1416              	 .cfi_def_cfa_register 13
 1417              	 
 1418 0078 80BD     	 pop {r7,pc}
 1419              	 .cfi_endproc
 1420              	.LFE146:
 1422 007a 00BF     	 .section .text.xStreamBufferReceive,"ax",%progbits
 1423              	 .align 2
 1424              	 .global xStreamBufferReceive
 1425              	 .thumb
 1426              	 .thumb_func
 1428              	xStreamBufferReceive:
 1429              	.LFB147:
 750:../Dave/Generated/FREERTOS/stream_buffer.c **** /*-----------------------------------------------------------*/
 751:../Dave/Generated/FREERTOS/stream_buffer.c **** 
 752:../Dave/Generated/FREERTOS/stream_buffer.c **** size_t xStreamBufferReceive( StreamBufferHandle_t xStreamBuffer,
 753:../Dave/Generated/FREERTOS/stream_buffer.c ****                              void * pvRxData,
 754:../Dave/Generated/FREERTOS/stream_buffer.c ****                              size_t xBufferLengthBytes,
 755:../Dave/Generated/FREERTOS/stream_buffer.c ****                              TickType_t xTicksToWait )
 756:../Dave/Generated/FREERTOS/stream_buffer.c **** {
 1430              	 .loc 1 756 0
 1431              	 .cfi_startproc
 1432              	 
 1433              	 
 1434 0000 80B5     	 push {r7,lr}
 1435              	.LCFI52:
 1436              	 .cfi_def_cfa_offset 8
 1437              	 .cfi_offset 7,-8
 1438              	 .cfi_offset 14,-4
 1439 0002 8EB0     	 sub sp,sp,#56
 1440              	.LCFI53:
 1441              	 .cfi_def_cfa_offset 64
 1442 0004 02AF     	 add r7,sp,#8
 1443              	.LCFI54:
 1444              	 .cfi_def_cfa 7,56
 1445 0006 F860     	 str r0,[r7,#12]
 1446 0008 B960     	 str r1,[r7,#8]
 1447 000a 7A60     	 str r2,[r7,#4]
 1448 000c 3B60     	 str r3,[r7]
 757:../Dave/Generated/FREERTOS/stream_buffer.c ****     StreamBuffer_t * const pxStreamBuffer = xStreamBuffer;
 1449              	 .loc 1 757 0
 1450 000e FB68     	 ldr r3,[r7,#12]
 1451 0010 3B62     	 str r3,[r7,#32]
 758:../Dave/Generated/FREERTOS/stream_buffer.c ****     size_t xReceivedLength = 0, xBytesAvailable, xBytesToStoreMessageLength;
 1452              	 .loc 1 758 0
 1453 0012 0023     	 movs r3,#0
 1454 0014 FB62     	 str r3,[r7,#44]
 759:../Dave/Generated/FREERTOS/stream_buffer.c **** 
 760:../Dave/Generated/FREERTOS/stream_buffer.c ****     configASSERT( pvRxData );
 1455              	 .loc 1 760 0
 1456 0016 BB68     	 ldr r3,[r7,#8]
 1457 0018 002B     	 cmp r3,#0
 1458 001a 09D1     	 bne .L96
 1459              	.LBB140:
 1460              	.LBB141:
 197:C:/Infineon/Tools/DAVE IDE/4.5.0.202105191637/eclipse/workspace/xmc4800-CE/Dave/Generated/FREERTOS/portable/GCC\portmacro.h ****         (
 1461              	 .loc 2 197 0 discriminator 1
 1462              	
 1463 001c 4FF0FC03 	 mov r3,#252
 1464 0020 83F31188 	 msr basepri,r3
 1465 0024 BFF36F8F 	 isb 
 1466 0028 BFF34F8F 	 dsb 
 1467              	
 1468              	
 1469              	 .thumb
 1470 002c FB61     	 str r3,[r7,#28]
 1471              	.L97:
 1472              	.LBE141:
 1473              	.LBE140:
 1474              	 .loc 1 760 0 discriminator 1
 1475 002e FEE7     	 b .L97
 1476              	.L96:
 761:../Dave/Generated/FREERTOS/stream_buffer.c ****     configASSERT( pxStreamBuffer );
 1477              	 .loc 1 761 0
 1478 0030 3B6A     	 ldr r3,[r7,#32]
 1479 0032 002B     	 cmp r3,#0
 1480 0034 09D1     	 bne .L98
 1481              	.LBB142:
 1482              	.LBB143:
 197:C:/Infineon/Tools/DAVE IDE/4.5.0.202105191637/eclipse/workspace/xmc4800-CE/Dave/Generated/FREERTOS/portable/GCC\portmacro.h ****         (
 1483              	 .loc 2 197 0 discriminator 1
 1484              	
 1485 0036 4FF0FC03 	 mov r3,#252
 1486 003a 83F31188 	 msr basepri,r3
 1487 003e BFF36F8F 	 isb 
 1488 0042 BFF34F8F 	 dsb 
 1489              	
 1490              	
 1491              	 .thumb
 1492 0046 BB61     	 str r3,[r7,#24]
 1493              	.L99:
 1494              	.LBE143:
 1495              	.LBE142:
 1496              	 .loc 1 761 0 discriminator 2
 1497 0048 FEE7     	 b .L99
 1498              	.L98:
 762:../Dave/Generated/FREERTOS/stream_buffer.c **** 
 763:../Dave/Generated/FREERTOS/stream_buffer.c ****     /* This receive function is used by both message buffers, which store
 764:../Dave/Generated/FREERTOS/stream_buffer.c ****      * discrete messages, and stream buffers, which store a continuous stream of
 765:../Dave/Generated/FREERTOS/stream_buffer.c ****      * bytes.  Discrete messages include an additional
 766:../Dave/Generated/FREERTOS/stream_buffer.c ****      * sbBYTES_TO_STORE_MESSAGE_LENGTH bytes that hold the length of the
 767:../Dave/Generated/FREERTOS/stream_buffer.c ****      * message. */
 768:../Dave/Generated/FREERTOS/stream_buffer.c ****     if( ( pxStreamBuffer->ucFlags & sbFLAGS_IS_MESSAGE_BUFFER ) != ( uint8_t ) 0 )
 1499              	 .loc 1 768 0
 1500 004a 3B6A     	 ldr r3,[r7,#32]
 1501 004c 1B7F     	 ldrb r3,[r3,#28]
 1502 004e 03F00103 	 and r3,r3,#1
 1503 0052 002B     	 cmp r3,#0
 1504 0054 02D0     	 beq .L100
 769:../Dave/Generated/FREERTOS/stream_buffer.c ****     {
 770:../Dave/Generated/FREERTOS/stream_buffer.c ****         xBytesToStoreMessageLength = sbBYTES_TO_STORE_MESSAGE_LENGTH;
 1505              	 .loc 1 770 0
 1506 0056 0423     	 movs r3,#4
 1507 0058 7B62     	 str r3,[r7,#36]
 1508 005a 01E0     	 b .L101
 1509              	.L100:
 771:../Dave/Generated/FREERTOS/stream_buffer.c ****     }
 772:../Dave/Generated/FREERTOS/stream_buffer.c ****     else
 773:../Dave/Generated/FREERTOS/stream_buffer.c ****     {
 774:../Dave/Generated/FREERTOS/stream_buffer.c ****         xBytesToStoreMessageLength = 0;
 1510              	 .loc 1 774 0
 1511 005c 0023     	 movs r3,#0
 1512 005e 7B62     	 str r3,[r7,#36]
 1513              	.L101:
 775:../Dave/Generated/FREERTOS/stream_buffer.c ****     }
 776:../Dave/Generated/FREERTOS/stream_buffer.c **** 
 777:../Dave/Generated/FREERTOS/stream_buffer.c ****     if( xTicksToWait != ( TickType_t ) 0 )
 1514              	 .loc 1 777 0
 1515 0060 3B68     	 ldr r3,[r7]
 1516 0062 002B     	 cmp r3,#0
 1517 0064 36D0     	 beq .L102
 778:../Dave/Generated/FREERTOS/stream_buffer.c ****     {
 779:../Dave/Generated/FREERTOS/stream_buffer.c ****         /* Checking if there is data and clearing the notification state must be
 780:../Dave/Generated/FREERTOS/stream_buffer.c ****          * performed atomically. */
 781:../Dave/Generated/FREERTOS/stream_buffer.c ****         taskENTER_CRITICAL();
 1518              	 .loc 1 781 0
 1519 0066 FFF7FEFF 	 bl vPortEnterCritical
 782:../Dave/Generated/FREERTOS/stream_buffer.c ****         {
 783:../Dave/Generated/FREERTOS/stream_buffer.c ****             xBytesAvailable = prvBytesInBuffer( pxStreamBuffer );
 1520              	 .loc 1 783 0
 1521 006a 386A     	 ldr r0,[r7,#32]
 1522 006c FFF7FEFF 	 bl prvBytesInBuffer
 1523 0070 B862     	 str r0,[r7,#40]
 784:../Dave/Generated/FREERTOS/stream_buffer.c **** 
 785:../Dave/Generated/FREERTOS/stream_buffer.c ****             /* If this function was invoked by a message buffer read then
 786:../Dave/Generated/FREERTOS/stream_buffer.c ****              * xBytesToStoreMessageLength holds the number of bytes used to hold
 787:../Dave/Generated/FREERTOS/stream_buffer.c ****              * the length of the next discrete message.  If this function was
 788:../Dave/Generated/FREERTOS/stream_buffer.c ****              * invoked by a stream buffer read then xBytesToStoreMessageLength will
 789:../Dave/Generated/FREERTOS/stream_buffer.c ****              * be 0. */
 790:../Dave/Generated/FREERTOS/stream_buffer.c ****             if( xBytesAvailable <= xBytesToStoreMessageLength )
 1524              	 .loc 1 790 0
 1525 0072 BA6A     	 ldr r2,[r7,#40]
 1526 0074 7B6A     	 ldr r3,[r7,#36]
 1527 0076 9A42     	 cmp r2,r3
 1528 0078 16D8     	 bhi .L103
 791:../Dave/Generated/FREERTOS/stream_buffer.c ****             {
 792:../Dave/Generated/FREERTOS/stream_buffer.c ****                 /* Clear notification state as going to wait for data. */
 793:../Dave/Generated/FREERTOS/stream_buffer.c ****                 ( void ) xTaskNotifyStateClear( NULL );
 1529              	 .loc 1 793 0
 1530 007a 0020     	 movs r0,#0
 1531 007c 0021     	 movs r1,#0
 1532 007e FFF7FEFF 	 bl xTaskGenericNotifyStateClear
 794:../Dave/Generated/FREERTOS/stream_buffer.c **** 
 795:../Dave/Generated/FREERTOS/stream_buffer.c ****                 /* Should only be one reader. */
 796:../Dave/Generated/FREERTOS/stream_buffer.c ****                 configASSERT( pxStreamBuffer->xTaskWaitingToReceive == NULL );
 1533              	 .loc 1 796 0
 1534 0082 3B6A     	 ldr r3,[r7,#32]
 1535 0084 1B69     	 ldr r3,[r3,#16]
 1536 0086 002B     	 cmp r3,#0
 1537 0088 09D0     	 beq .L104
 1538              	.LBB144:
 1539              	.LBB145:
 197:C:/Infineon/Tools/DAVE IDE/4.5.0.202105191637/eclipse/workspace/xmc4800-CE/Dave/Generated/FREERTOS/portable/GCC\portmacro.h ****         (
 1540              	 .loc 2 197 0 discriminator 1
 1541              	
 1542 008a 4FF0FC03 	 mov r3,#252
 1543 008e 83F31188 	 msr basepri,r3
 1544 0092 BFF36F8F 	 isb 
 1545 0096 BFF34F8F 	 dsb 
 1546              	
 1547              	
 1548              	 .thumb
 1549 009a 7B61     	 str r3,[r7,#20]
 1550              	.L105:
 1551              	.LBE145:
 1552              	.LBE144:
 1553              	 .loc 1 796 0 discriminator 3
 1554 009c FEE7     	 b .L105
 1555              	.L104:
 797:../Dave/Generated/FREERTOS/stream_buffer.c ****                 pxStreamBuffer->xTaskWaitingToReceive = xTaskGetCurrentTaskHandle();
 1556              	 .loc 1 797 0
 1557 009e FFF7FEFF 	 bl xTaskGetCurrentTaskHandle
 1558 00a2 0246     	 mov r2,r0
 1559 00a4 3B6A     	 ldr r3,[r7,#32]
 1560 00a6 1A61     	 str r2,[r3,#16]
 1561              	.L103:
 798:../Dave/Generated/FREERTOS/stream_buffer.c ****             }
 799:../Dave/Generated/FREERTOS/stream_buffer.c ****             else
 800:../Dave/Generated/FREERTOS/stream_buffer.c ****             {
 801:../Dave/Generated/FREERTOS/stream_buffer.c ****                 mtCOVERAGE_TEST_MARKER();
 802:../Dave/Generated/FREERTOS/stream_buffer.c ****             }
 803:../Dave/Generated/FREERTOS/stream_buffer.c ****         }
 804:../Dave/Generated/FREERTOS/stream_buffer.c ****         taskEXIT_CRITICAL();
 1562              	 .loc 1 804 0
 1563 00a8 FFF7FEFF 	 bl vPortExitCritical
 805:../Dave/Generated/FREERTOS/stream_buffer.c **** 
 806:../Dave/Generated/FREERTOS/stream_buffer.c ****         if( xBytesAvailable <= xBytesToStoreMessageLength )
 1564              	 .loc 1 806 0
 1565 00ac BA6A     	 ldr r2,[r7,#40]
 1566 00ae 7B6A     	 ldr r3,[r7,#36]
 1567 00b0 9A42     	 cmp r2,r3
 1568 00b2 13D8     	 bhi .L106
 807:../Dave/Generated/FREERTOS/stream_buffer.c ****         {
 808:../Dave/Generated/FREERTOS/stream_buffer.c ****             /* Wait for data to be available. */
 809:../Dave/Generated/FREERTOS/stream_buffer.c ****             traceBLOCKING_ON_STREAM_BUFFER_RECEIVE( xStreamBuffer );
 810:../Dave/Generated/FREERTOS/stream_buffer.c ****             ( void ) xTaskNotifyWait( ( uint32_t ) 0, ( uint32_t ) 0, NULL, xTicksToWait );
 1569              	 .loc 1 810 0
 1570 00b4 3B68     	 ldr r3,[r7]
 1571 00b6 0093     	 str r3,[sp]
 1572 00b8 0020     	 movs r0,#0
 1573 00ba 0021     	 movs r1,#0
 1574 00bc 0022     	 movs r2,#0
 1575 00be 0023     	 movs r3,#0
 1576 00c0 FFF7FEFF 	 bl xTaskGenericNotifyWait
 811:../Dave/Generated/FREERTOS/stream_buffer.c ****             pxStreamBuffer->xTaskWaitingToReceive = NULL;
 1577              	 .loc 1 811 0
 1578 00c4 3B6A     	 ldr r3,[r7,#32]
 1579 00c6 0022     	 movs r2,#0
 1580 00c8 1A61     	 str r2,[r3,#16]
 812:../Dave/Generated/FREERTOS/stream_buffer.c **** 
 813:../Dave/Generated/FREERTOS/stream_buffer.c ****             /* Recheck the data available after blocking. */
 814:../Dave/Generated/FREERTOS/stream_buffer.c ****             xBytesAvailable = prvBytesInBuffer( pxStreamBuffer );
 1581              	 .loc 1 814 0
 1582 00ca 386A     	 ldr r0,[r7,#32]
 1583 00cc FFF7FEFF 	 bl prvBytesInBuffer
 1584 00d0 B862     	 str r0,[r7,#40]
 1585 00d2 03E0     	 b .L106
 1586              	.L102:
 815:../Dave/Generated/FREERTOS/stream_buffer.c ****         }
 816:../Dave/Generated/FREERTOS/stream_buffer.c ****         else
 817:../Dave/Generated/FREERTOS/stream_buffer.c ****         {
 818:../Dave/Generated/FREERTOS/stream_buffer.c ****             mtCOVERAGE_TEST_MARKER();
 819:../Dave/Generated/FREERTOS/stream_buffer.c ****         }
 820:../Dave/Generated/FREERTOS/stream_buffer.c ****     }
 821:../Dave/Generated/FREERTOS/stream_buffer.c ****     else
 822:../Dave/Generated/FREERTOS/stream_buffer.c ****     {
 823:../Dave/Generated/FREERTOS/stream_buffer.c ****         xBytesAvailable = prvBytesInBuffer( pxStreamBuffer );
 1587              	 .loc 1 823 0
 1588 00d4 386A     	 ldr r0,[r7,#32]
 1589 00d6 FFF7FEFF 	 bl prvBytesInBuffer
 1590 00da B862     	 str r0,[r7,#40]
 1591              	.L106:
 824:../Dave/Generated/FREERTOS/stream_buffer.c ****     }
 825:../Dave/Generated/FREERTOS/stream_buffer.c **** 
 826:../Dave/Generated/FREERTOS/stream_buffer.c ****     /* Whether receiving a discrete message (where xBytesToStoreMessageLength
 827:../Dave/Generated/FREERTOS/stream_buffer.c ****      * holds the number of bytes used to store the message length) or a stream of
 828:../Dave/Generated/FREERTOS/stream_buffer.c ****      * bytes (where xBytesToStoreMessageLength is zero), the number of bytes
 829:../Dave/Generated/FREERTOS/stream_buffer.c ****      * available must be greater than xBytesToStoreMessageLength to be able to
 830:../Dave/Generated/FREERTOS/stream_buffer.c ****      * read bytes from the buffer. */
 831:../Dave/Generated/FREERTOS/stream_buffer.c ****     if( xBytesAvailable > xBytesToStoreMessageLength )
 1592              	 .loc 1 831 0
 1593 00dc BA6A     	 ldr r2,[r7,#40]
 1594 00de 7B6A     	 ldr r3,[r7,#36]
 1595 00e0 9A42     	 cmp r2,r3
 1596 00e2 20D9     	 bls .L107
 832:../Dave/Generated/FREERTOS/stream_buffer.c ****     {
 833:../Dave/Generated/FREERTOS/stream_buffer.c ****         xReceivedLength = prvReadMessageFromBuffer( pxStreamBuffer, pvRxData, xBufferLengthBytes, x
 1597              	 .loc 1 833 0
 1598 00e4 7B6A     	 ldr r3,[r7,#36]
 1599 00e6 0093     	 str r3,[sp]
 1600 00e8 386A     	 ldr r0,[r7,#32]
 1601 00ea B968     	 ldr r1,[r7,#8]
 1602 00ec 7A68     	 ldr r2,[r7,#4]
 1603 00ee BB6A     	 ldr r3,[r7,#40]
 1604 00f0 FFF7FEFF 	 bl prvReadMessageFromBuffer
 1605 00f4 F862     	 str r0,[r7,#44]
 834:../Dave/Generated/FREERTOS/stream_buffer.c **** 
 835:../Dave/Generated/FREERTOS/stream_buffer.c ****         /* Was a task waiting for space in the buffer? */
 836:../Dave/Generated/FREERTOS/stream_buffer.c ****         if( xReceivedLength != ( size_t ) 0 )
 1606              	 .loc 1 836 0
 1607 00f6 FB6A     	 ldr r3,[r7,#44]
 1608 00f8 002B     	 cmp r3,#0
 1609 00fa 14D0     	 beq .L107
 837:../Dave/Generated/FREERTOS/stream_buffer.c ****         {
 838:../Dave/Generated/FREERTOS/stream_buffer.c ****             traceSTREAM_BUFFER_RECEIVE( xStreamBuffer, xReceivedLength );
 839:../Dave/Generated/FREERTOS/stream_buffer.c ****             sbRECEIVE_COMPLETED( pxStreamBuffer );
 1610              	 .loc 1 839 0
 1611 00fc FFF7FEFF 	 bl vTaskSuspendAll
 1612 0100 3B6A     	 ldr r3,[r7,#32]
 1613 0102 5B69     	 ldr r3,[r3,#20]
 1614 0104 002B     	 cmp r3,#0
 1615 0106 0CD0     	 beq .L108
 1616              	 .loc 1 839 0 is_stmt 0 discriminator 1
 1617 0108 3B6A     	 ldr r3,[r7,#32]
 1618 010a 5A69     	 ldr r2,[r3,#20]
 1619 010c 0023     	 movs r3,#0
 1620 010e 0093     	 str r3,[sp]
 1621 0110 1046     	 mov r0,r2
 1622 0112 0021     	 movs r1,#0
 1623 0114 0022     	 movs r2,#0
 1624 0116 0023     	 movs r3,#0
 1625 0118 FFF7FEFF 	 bl xTaskGenericNotify
 1626 011c 3B6A     	 ldr r3,[r7,#32]
 1627 011e 0022     	 movs r2,#0
 1628 0120 5A61     	 str r2,[r3,#20]
 1629              	.L108:
 1630              	 .loc 1 839 0 discriminator 3
 1631 0122 FFF7FEFF 	 bl xTaskResumeAll
 1632              	.L107:
 840:../Dave/Generated/FREERTOS/stream_buffer.c ****         }
 841:../Dave/Generated/FREERTOS/stream_buffer.c ****         else
 842:../Dave/Generated/FREERTOS/stream_buffer.c ****         {
 843:../Dave/Generated/FREERTOS/stream_buffer.c ****             mtCOVERAGE_TEST_MARKER();
 844:../Dave/Generated/FREERTOS/stream_buffer.c ****         }
 845:../Dave/Generated/FREERTOS/stream_buffer.c ****     }
 846:../Dave/Generated/FREERTOS/stream_buffer.c ****     else
 847:../Dave/Generated/FREERTOS/stream_buffer.c ****     {
 848:../Dave/Generated/FREERTOS/stream_buffer.c ****         traceSTREAM_BUFFER_RECEIVE_FAILED( xStreamBuffer );
 849:../Dave/Generated/FREERTOS/stream_buffer.c ****         mtCOVERAGE_TEST_MARKER();
 850:../Dave/Generated/FREERTOS/stream_buffer.c ****     }
 851:../Dave/Generated/FREERTOS/stream_buffer.c **** 
 852:../Dave/Generated/FREERTOS/stream_buffer.c ****     return xReceivedLength;
 1633              	 .loc 1 852 0 is_stmt 1
 1634 0126 FB6A     	 ldr r3,[r7,#44]
 853:../Dave/Generated/FREERTOS/stream_buffer.c **** }
 1635              	 .loc 1 853 0
 1636 0128 1846     	 mov r0,r3
 1637 012a 3037     	 adds r7,r7,#48
 1638              	.LCFI55:
 1639              	 .cfi_def_cfa_offset 8
 1640 012c BD46     	 mov sp,r7
 1641              	.LCFI56:
 1642              	 .cfi_def_cfa_register 13
 1643              	 
 1644 012e 80BD     	 pop {r7,pc}
 1645              	 .cfi_endproc
 1646              	.LFE147:
 1648              	 .section .text.xStreamBufferNextMessageLengthBytes,"ax",%progbits
 1649              	 .align 2
 1650              	 .global xStreamBufferNextMessageLengthBytes
 1651              	 .thumb
 1652              	 .thumb_func
 1654              	xStreamBufferNextMessageLengthBytes:
 1655              	.LFB148:
 854:../Dave/Generated/FREERTOS/stream_buffer.c **** /*-----------------------------------------------------------*/
 855:../Dave/Generated/FREERTOS/stream_buffer.c **** 
 856:../Dave/Generated/FREERTOS/stream_buffer.c **** size_t xStreamBufferNextMessageLengthBytes( StreamBufferHandle_t xStreamBuffer )
 857:../Dave/Generated/FREERTOS/stream_buffer.c **** {
 1656              	 .loc 1 857 0
 1657              	 .cfi_startproc
 1658              	 
 1659              	 
 1660 0000 80B5     	 push {r7,lr}
 1661              	.LCFI57:
 1662              	 .cfi_def_cfa_offset 8
 1663              	 .cfi_offset 7,-8
 1664              	 .cfi_offset 14,-4
 1665 0002 8AB0     	 sub sp,sp,#40
 1666              	.LCFI58:
 1667              	 .cfi_def_cfa_offset 48
 1668 0004 00AF     	 add r7,sp,#0
 1669              	.LCFI59:
 1670              	 .cfi_def_cfa_register 7
 1671 0006 7860     	 str r0,[r7,#4]
 858:../Dave/Generated/FREERTOS/stream_buffer.c ****     StreamBuffer_t * const pxStreamBuffer = xStreamBuffer;
 1672              	 .loc 1 858 0
 1673 0008 7B68     	 ldr r3,[r7,#4]
 1674 000a 3B62     	 str r3,[r7,#32]
 859:../Dave/Generated/FREERTOS/stream_buffer.c ****     size_t xReturn, xBytesAvailable, xOriginalTail;
 860:../Dave/Generated/FREERTOS/stream_buffer.c ****     configMESSAGE_BUFFER_LENGTH_TYPE xTempReturn;
 861:../Dave/Generated/FREERTOS/stream_buffer.c **** 
 862:../Dave/Generated/FREERTOS/stream_buffer.c ****     configASSERT( pxStreamBuffer );
 1675              	 .loc 1 862 0
 1676 000c 3B6A     	 ldr r3,[r7,#32]
 1677 000e 002B     	 cmp r3,#0
 1678 0010 09D1     	 bne .L111
 1679              	.LBB146:
 1680              	.LBB147:
 197:C:/Infineon/Tools/DAVE IDE/4.5.0.202105191637/eclipse/workspace/xmc4800-CE/Dave/Generated/FREERTOS/portable/GCC\portmacro.h ****         (
 1681              	 .loc 2 197 0 discriminator 1
 1682              	
 1683 0012 4FF0FC03 	 mov r3,#252
 1684 0016 83F31188 	 msr basepri,r3
 1685 001a BFF36F8F 	 isb 
 1686 001e BFF34F8F 	 dsb 
 1687              	
 1688              	
 1689              	 .thumb
 1690 0022 7B61     	 str r3,[r7,#20]
 1691              	.L112:
 1692              	.LBE147:
 1693              	.LBE146:
 1694              	 .loc 1 862 0 discriminator 1
 1695 0024 FEE7     	 b .L112
 1696              	.L111:
 863:../Dave/Generated/FREERTOS/stream_buffer.c **** 
 864:../Dave/Generated/FREERTOS/stream_buffer.c ****     /* Ensure the stream buffer is being used as a message buffer. */
 865:../Dave/Generated/FREERTOS/stream_buffer.c ****     if( ( pxStreamBuffer->ucFlags & sbFLAGS_IS_MESSAGE_BUFFER ) != ( uint8_t ) 0 )
 1697              	 .loc 1 865 0
 1698 0026 3B6A     	 ldr r3,[r7,#32]
 1699 0028 1B7F     	 ldrb r3,[r3,#28]
 1700 002a 03F00103 	 and r3,r3,#1
 1701 002e 002B     	 cmp r3,#0
 1702 0030 27D0     	 beq .L113
 866:../Dave/Generated/FREERTOS/stream_buffer.c ****     {
 867:../Dave/Generated/FREERTOS/stream_buffer.c ****         xBytesAvailable = prvBytesInBuffer( pxStreamBuffer );
 1703              	 .loc 1 867 0
 1704 0032 386A     	 ldr r0,[r7,#32]
 1705 0034 FFF7FEFF 	 bl prvBytesInBuffer
 1706 0038 F861     	 str r0,[r7,#28]
 868:../Dave/Generated/FREERTOS/stream_buffer.c **** 
 869:../Dave/Generated/FREERTOS/stream_buffer.c ****         if( xBytesAvailable > sbBYTES_TO_STORE_MESSAGE_LENGTH )
 1707              	 .loc 1 869 0
 1708 003a FB69     	 ldr r3,[r7,#28]
 1709 003c 042B     	 cmp r3,#4
 1710 003e 10D9     	 bls .L114
 870:../Dave/Generated/FREERTOS/stream_buffer.c ****         {
 871:../Dave/Generated/FREERTOS/stream_buffer.c ****             /* The number of bytes available is greater than the number of bytes
 872:../Dave/Generated/FREERTOS/stream_buffer.c ****              * required to hold the length of the next message, so another message
 873:../Dave/Generated/FREERTOS/stream_buffer.c ****              * is available.  Return its length without removing the length bytes
 874:../Dave/Generated/FREERTOS/stream_buffer.c ****              * from the buffer.  A copy of the tail is stored so the buffer can be
 875:../Dave/Generated/FREERTOS/stream_buffer.c ****              * returned to its prior state as the message is not actually being
 876:../Dave/Generated/FREERTOS/stream_buffer.c ****              * removed from the buffer. */
 877:../Dave/Generated/FREERTOS/stream_buffer.c ****             xOriginalTail = pxStreamBuffer->xTail;
 1711              	 .loc 1 877 0
 1712 0040 3B6A     	 ldr r3,[r7,#32]
 1713 0042 1B68     	 ldr r3,[r3]
 1714 0044 BB61     	 str r3,[r7,#24]
 878:../Dave/Generated/FREERTOS/stream_buffer.c ****             ( void ) prvReadBytesFromBuffer( pxStreamBuffer, ( uint8_t * ) &xTempReturn, sbBYTES_TO
 1715              	 .loc 1 878 0
 1716 0046 07F10C03 	 add r3,r7,#12
 1717 004a 386A     	 ldr r0,[r7,#32]
 1718 004c 1946     	 mov r1,r3
 1719 004e 0422     	 movs r2,#4
 1720 0050 FB69     	 ldr r3,[r7,#28]
 1721 0052 FFF7FEFF 	 bl prvReadBytesFromBuffer
 879:../Dave/Generated/FREERTOS/stream_buffer.c ****             xReturn = ( size_t ) xTempReturn;
 1722              	 .loc 1 879 0
 1723 0056 FB68     	 ldr r3,[r7,#12]
 1724 0058 7B62     	 str r3,[r7,#36]
 880:../Dave/Generated/FREERTOS/stream_buffer.c ****             pxStreamBuffer->xTail = xOriginalTail;
 1725              	 .loc 1 880 0
 1726 005a 3B6A     	 ldr r3,[r7,#32]
 1727 005c BA69     	 ldr r2,[r7,#24]
 1728 005e 1A60     	 str r2,[r3]
 1729 0060 11E0     	 b .L118
 1730              	.L114:
 881:../Dave/Generated/FREERTOS/stream_buffer.c ****         }
 882:../Dave/Generated/FREERTOS/stream_buffer.c ****         else
 883:../Dave/Generated/FREERTOS/stream_buffer.c ****         {
 884:../Dave/Generated/FREERTOS/stream_buffer.c ****             /* The minimum amount of bytes in a message buffer is
 885:../Dave/Generated/FREERTOS/stream_buffer.c ****              * ( sbBYTES_TO_STORE_MESSAGE_LENGTH + 1 ), so if xBytesAvailable is
 886:../Dave/Generated/FREERTOS/stream_buffer.c ****              * less than sbBYTES_TO_STORE_MESSAGE_LENGTH the only other valid
 887:../Dave/Generated/FREERTOS/stream_buffer.c ****              * value is 0. */
 888:../Dave/Generated/FREERTOS/stream_buffer.c ****             configASSERT( xBytesAvailable == 0 );
 1731              	 .loc 1 888 0
 1732 0062 FB69     	 ldr r3,[r7,#28]
 1733 0064 002B     	 cmp r3,#0
 1734 0066 09D0     	 beq .L116
 1735              	.LBB148:
 1736              	.LBB149:
 197:C:/Infineon/Tools/DAVE IDE/4.5.0.202105191637/eclipse/workspace/xmc4800-CE/Dave/Generated/FREERTOS/portable/GCC\portmacro.h ****         (
 1737              	 .loc 2 197 0 discriminator 1
 1738              	
 1739 0068 4FF0FC03 	 mov r3,#252
 1740 006c 83F31188 	 msr basepri,r3
 1741 0070 BFF36F8F 	 isb 
 1742 0074 BFF34F8F 	 dsb 
 1743              	
 1744              	
 1745              	 .thumb
 1746 0078 3B61     	 str r3,[r7,#16]
 1747              	.L117:
 1748              	.LBE149:
 1749              	.LBE148:
 1750              	 .loc 1 888 0 discriminator 2
 1751 007a FEE7     	 b .L117
 1752              	.L116:
 889:../Dave/Generated/FREERTOS/stream_buffer.c ****             xReturn = 0;
 1753              	 .loc 1 889 0
 1754 007c 0023     	 movs r3,#0
 1755 007e 7B62     	 str r3,[r7,#36]
 1756 0080 01E0     	 b .L118
 1757              	.L113:
 890:../Dave/Generated/FREERTOS/stream_buffer.c ****         }
 891:../Dave/Generated/FREERTOS/stream_buffer.c ****     }
 892:../Dave/Generated/FREERTOS/stream_buffer.c ****     else
 893:../Dave/Generated/FREERTOS/stream_buffer.c ****     {
 894:../Dave/Generated/FREERTOS/stream_buffer.c ****         xReturn = 0;
 1758              	 .loc 1 894 0
 1759 0082 0023     	 movs r3,#0
 1760 0084 7B62     	 str r3,[r7,#36]
 1761              	.L118:
 895:../Dave/Generated/FREERTOS/stream_buffer.c ****     }
 896:../Dave/Generated/FREERTOS/stream_buffer.c **** 
 897:../Dave/Generated/FREERTOS/stream_buffer.c ****     return xReturn;
 1762              	 .loc 1 897 0
 1763 0086 7B6A     	 ldr r3,[r7,#36]
 898:../Dave/Generated/FREERTOS/stream_buffer.c **** }
 1764              	 .loc 1 898 0
 1765 0088 1846     	 mov r0,r3
 1766 008a 2837     	 adds r7,r7,#40
 1767              	.LCFI60:
 1768              	 .cfi_def_cfa_offset 8
 1769 008c BD46     	 mov sp,r7
 1770              	.LCFI61:
 1771              	 .cfi_def_cfa_register 13
 1772              	 
 1773 008e 80BD     	 pop {r7,pc}
 1774              	 .cfi_endproc
 1775              	.LFE148:
 1777              	 .section .text.xStreamBufferReceiveFromISR,"ax",%progbits
 1778              	 .align 2
 1779              	 .global xStreamBufferReceiveFromISR
 1780              	 .thumb
 1781              	 .thumb_func
 1783              	xStreamBufferReceiveFromISR:
 1784              	.LFB149:
 899:../Dave/Generated/FREERTOS/stream_buffer.c **** /*-----------------------------------------------------------*/
 900:../Dave/Generated/FREERTOS/stream_buffer.c **** 
 901:../Dave/Generated/FREERTOS/stream_buffer.c **** size_t xStreamBufferReceiveFromISR( StreamBufferHandle_t xStreamBuffer,
 902:../Dave/Generated/FREERTOS/stream_buffer.c ****                                     void * pvRxData,
 903:../Dave/Generated/FREERTOS/stream_buffer.c ****                                     size_t xBufferLengthBytes,
 904:../Dave/Generated/FREERTOS/stream_buffer.c ****                                     BaseType_t * const pxHigherPriorityTaskWoken )
 905:../Dave/Generated/FREERTOS/stream_buffer.c **** {
 1785              	 .loc 1 905 0
 1786              	 .cfi_startproc
 1787              	 
 1788              	 
 1789 0000 80B5     	 push {r7,lr}
 1790              	.LCFI62:
 1791              	 .cfi_def_cfa_offset 8
 1792              	 .cfi_offset 7,-8
 1793              	 .cfi_offset 14,-4
 1794 0002 90B0     	 sub sp,sp,#64
 1795              	.LCFI63:
 1796              	 .cfi_def_cfa_offset 72
 1797 0004 02AF     	 add r7,sp,#8
 1798              	.LCFI64:
 1799              	 .cfi_def_cfa 7,64
 1800 0006 F860     	 str r0,[r7,#12]
 1801 0008 B960     	 str r1,[r7,#8]
 1802 000a 7A60     	 str r2,[r7,#4]
 1803 000c 3B60     	 str r3,[r7]
 906:../Dave/Generated/FREERTOS/stream_buffer.c ****     StreamBuffer_t * const pxStreamBuffer = xStreamBuffer;
 1804              	 .loc 1 906 0
 1805 000e FB68     	 ldr r3,[r7,#12]
 1806 0010 FB62     	 str r3,[r7,#44]
 907:../Dave/Generated/FREERTOS/stream_buffer.c ****     size_t xReceivedLength = 0, xBytesAvailable, xBytesToStoreMessageLength;
 1807              	 .loc 1 907 0
 1808 0012 0023     	 movs r3,#0
 1809 0014 7B63     	 str r3,[r7,#52]
 908:../Dave/Generated/FREERTOS/stream_buffer.c **** 
 909:../Dave/Generated/FREERTOS/stream_buffer.c ****     configASSERT( pvRxData );
 1810              	 .loc 1 909 0
 1811 0016 BB68     	 ldr r3,[r7,#8]
 1812 0018 002B     	 cmp r3,#0
 1813 001a 09D1     	 bne .L121
 1814              	.LBB150:
 1815              	.LBB151:
 197:C:/Infineon/Tools/DAVE IDE/4.5.0.202105191637/eclipse/workspace/xmc4800-CE/Dave/Generated/FREERTOS/portable/GCC\portmacro.h ****         (
 1816              	 .loc 2 197 0 discriminator 1
 1817              	
 1818 001c 4FF0FC03 	 mov r3,#252
 1819 0020 83F31188 	 msr basepri,r3
 1820 0024 BFF36F8F 	 isb 
 1821 0028 BFF34F8F 	 dsb 
 1822              	
 1823              	
 1824              	 .thumb
 1825 002c 3B62     	 str r3,[r7,#32]
 1826              	.L122:
 1827              	.LBE151:
 1828              	.LBE150:
 1829              	 .loc 1 909 0 discriminator 1
 1830 002e FEE7     	 b .L122
 1831              	.L121:
 910:../Dave/Generated/FREERTOS/stream_buffer.c ****     configASSERT( pxStreamBuffer );
 1832              	 .loc 1 910 0
 1833 0030 FB6A     	 ldr r3,[r7,#44]
 1834 0032 002B     	 cmp r3,#0
 1835 0034 09D1     	 bne .L123
 1836              	.LBB152:
 1837              	.LBB153:
 197:C:/Infineon/Tools/DAVE IDE/4.5.0.202105191637/eclipse/workspace/xmc4800-CE/Dave/Generated/FREERTOS/portable/GCC\portmacro.h ****         (
 1838              	 .loc 2 197 0 discriminator 1
 1839              	
 1840 0036 4FF0FC03 	 mov r3,#252
 1841 003a 83F31188 	 msr basepri,r3
 1842 003e BFF36F8F 	 isb 
 1843 0042 BFF34F8F 	 dsb 
 1844              	
 1845              	
 1846              	 .thumb
 1847 0046 FB61     	 str r3,[r7,#28]
 1848              	.L124:
 1849              	.LBE153:
 1850              	.LBE152:
 1851              	 .loc 1 910 0 discriminator 2
 1852 0048 FEE7     	 b .L124
 1853              	.L123:
 911:../Dave/Generated/FREERTOS/stream_buffer.c **** 
 912:../Dave/Generated/FREERTOS/stream_buffer.c ****     /* This receive function is used by both message buffers, which store
 913:../Dave/Generated/FREERTOS/stream_buffer.c ****      * discrete messages, and stream buffers, which store a continuous stream of
 914:../Dave/Generated/FREERTOS/stream_buffer.c ****      * bytes.  Discrete messages include an additional
 915:../Dave/Generated/FREERTOS/stream_buffer.c ****      * sbBYTES_TO_STORE_MESSAGE_LENGTH bytes that hold the length of the
 916:../Dave/Generated/FREERTOS/stream_buffer.c ****      * message. */
 917:../Dave/Generated/FREERTOS/stream_buffer.c ****     if( ( pxStreamBuffer->ucFlags & sbFLAGS_IS_MESSAGE_BUFFER ) != ( uint8_t ) 0 )
 1854              	 .loc 1 917 0
 1855 004a FB6A     	 ldr r3,[r7,#44]
 1856 004c 1B7F     	 ldrb r3,[r3,#28]
 1857 004e 03F00103 	 and r3,r3,#1
 1858 0052 002B     	 cmp r3,#0
 1859 0054 02D0     	 beq .L125
 918:../Dave/Generated/FREERTOS/stream_buffer.c ****     {
 919:../Dave/Generated/FREERTOS/stream_buffer.c ****         xBytesToStoreMessageLength = sbBYTES_TO_STORE_MESSAGE_LENGTH;
 1860              	 .loc 1 919 0
 1861 0056 0423     	 movs r3,#4
 1862 0058 3B63     	 str r3,[r7,#48]
 1863 005a 01E0     	 b .L126
 1864              	.L125:
 920:../Dave/Generated/FREERTOS/stream_buffer.c ****     }
 921:../Dave/Generated/FREERTOS/stream_buffer.c ****     else
 922:../Dave/Generated/FREERTOS/stream_buffer.c ****     {
 923:../Dave/Generated/FREERTOS/stream_buffer.c ****         xBytesToStoreMessageLength = 0;
 1865              	 .loc 1 923 0
 1866 005c 0023     	 movs r3,#0
 1867 005e 3B63     	 str r3,[r7,#48]
 1868              	.L126:
 924:../Dave/Generated/FREERTOS/stream_buffer.c ****     }
 925:../Dave/Generated/FREERTOS/stream_buffer.c **** 
 926:../Dave/Generated/FREERTOS/stream_buffer.c ****     xBytesAvailable = prvBytesInBuffer( pxStreamBuffer );
 1869              	 .loc 1 926 0
 1870 0060 F86A     	 ldr r0,[r7,#44]
 1871 0062 FFF7FEFF 	 bl prvBytesInBuffer
 1872 0066 B862     	 str r0,[r7,#40]
 927:../Dave/Generated/FREERTOS/stream_buffer.c **** 
 928:../Dave/Generated/FREERTOS/stream_buffer.c ****     /* Whether receiving a discrete message (where xBytesToStoreMessageLength
 929:../Dave/Generated/FREERTOS/stream_buffer.c ****      * holds the number of bytes used to store the message length) or a stream of
 930:../Dave/Generated/FREERTOS/stream_buffer.c ****      * bytes (where xBytesToStoreMessageLength is zero), the number of bytes
 931:../Dave/Generated/FREERTOS/stream_buffer.c ****      * available must be greater than xBytesToStoreMessageLength to be able to
 932:../Dave/Generated/FREERTOS/stream_buffer.c ****      * read bytes from the buffer. */
 933:../Dave/Generated/FREERTOS/stream_buffer.c ****     if( xBytesAvailable > xBytesToStoreMessageLength )
 1873              	 .loc 1 933 0
 1874 0068 BA6A     	 ldr r2,[r7,#40]
 1875 006a 3B6B     	 ldr r3,[r7,#48]
 1876 006c 9A42     	 cmp r2,r3
 1877 006e 31D9     	 bls .L127
 934:../Dave/Generated/FREERTOS/stream_buffer.c ****     {
 935:../Dave/Generated/FREERTOS/stream_buffer.c ****         xReceivedLength = prvReadMessageFromBuffer( pxStreamBuffer, pvRxData, xBufferLengthBytes, x
 1878              	 .loc 1 935 0
 1879 0070 3B6B     	 ldr r3,[r7,#48]
 1880 0072 0093     	 str r3,[sp]
 1881 0074 F86A     	 ldr r0,[r7,#44]
 1882 0076 B968     	 ldr r1,[r7,#8]
 1883 0078 7A68     	 ldr r2,[r7,#4]
 1884 007a BB6A     	 ldr r3,[r7,#40]
 1885 007c FFF7FEFF 	 bl prvReadMessageFromBuffer
 1886 0080 7863     	 str r0,[r7,#52]
 936:../Dave/Generated/FREERTOS/stream_buffer.c **** 
 937:../Dave/Generated/FREERTOS/stream_buffer.c ****         /* Was a task waiting for space in the buffer? */
 938:../Dave/Generated/FREERTOS/stream_buffer.c ****         if( xReceivedLength != ( size_t ) 0 )
 1887              	 .loc 1 938 0
 1888 0082 7B6B     	 ldr r3,[r7,#52]
 1889 0084 002B     	 cmp r3,#0
 1890 0086 25D0     	 beq .L127
 1891              	.LBB154:
 1892              	.LBB155:
 1893              	.LBB156:
 213:C:/Infineon/Tools/DAVE IDE/4.5.0.202105191637/eclipse/workspace/xmc4800-CE/Dave/Generated/FREERTOS/portable/GCC\portmacro.h ****         (
 1894              	 .loc 2 213 0
 1895              	
 1896 0088 EFF31182 	 mrs r2,basepri
 1897 008c 4FF0FC03 	 mov r3,#252
 1898 0090 83F31188 	 msr basepri,r3
 1899 0094 BFF36F8F 	 isb 
 1900 0098 BFF34F8F 	 dsb 
 1901              	
 1902              	
 1903              	 .thumb
 1904 009c BA61     	 str r2,[r7,#24]
 1905 009e 7B61     	 str r3,[r7,#20]
 225:C:/Infineon/Tools/DAVE IDE/4.5.0.202105191637/eclipse/workspace/xmc4800-CE/Dave/Generated/FREERTOS/portable/GCC\portmacro.h ****     }
 1906              	 .loc 2 225 0
 1907 00a0 BB69     	 ldr r3,[r7,#24]
 1908              	.LBE156:
 1909              	.LBE155:
 939:../Dave/Generated/FREERTOS/stream_buffer.c ****         {
 940:../Dave/Generated/FREERTOS/stream_buffer.c ****             sbRECEIVE_COMPLETED_FROM_ISR( pxStreamBuffer, pxHigherPriorityTaskWoken );
 1910              	 .loc 1 940 0
 1911 00a2 7B62     	 str r3,[r7,#36]
 1912 00a4 FB6A     	 ldr r3,[r7,#44]
 1913 00a6 5B69     	 ldr r3,[r3,#20]
 1914 00a8 002B     	 cmp r3,#0
 1915 00aa 0ED0     	 beq .L129
 1916              	 .loc 1 940 0 is_stmt 0 discriminator 1
 1917 00ac FB6A     	 ldr r3,[r7,#44]
 1918 00ae 5A69     	 ldr r2,[r3,#20]
 1919 00b0 0023     	 movs r3,#0
 1920 00b2 0093     	 str r3,[sp]
 1921 00b4 3B68     	 ldr r3,[r7]
 1922 00b6 0193     	 str r3,[sp,#4]
 1923 00b8 1046     	 mov r0,r2
 1924 00ba 0021     	 movs r1,#0
 1925 00bc 0022     	 movs r2,#0
 1926 00be 0023     	 movs r3,#0
 1927 00c0 FFF7FEFF 	 bl xTaskGenericNotifyFromISR
 1928 00c4 FB6A     	 ldr r3,[r7,#44]
 1929 00c6 0022     	 movs r2,#0
 1930 00c8 5A61     	 str r2,[r3,#20]
 1931              	.L129:
 1932 00ca 7B6A     	 ldr r3,[r7,#36]
 1933 00cc 3B61     	 str r3,[r7,#16]
 1934              	.LBB157:
 1935              	.LBB158:
 1936              	 .loc 2 231 0 is_stmt 1 discriminator 3
 1937 00ce 3B69     	 ldr r3,[r7,#16]
 1938              	
 1939 00d0 83F31188 	 msr basepri,r3
 1940              	
 1941              	 .thumb
 1942              	.L127:
 1943              	.LBE158:
 1944              	.LBE157:
 1945              	.LBE154:
 941:../Dave/Generated/FREERTOS/stream_buffer.c ****         }
 942:../Dave/Generated/FREERTOS/stream_buffer.c ****         else
 943:../Dave/Generated/FREERTOS/stream_buffer.c ****         {
 944:../Dave/Generated/FREERTOS/stream_buffer.c ****             mtCOVERAGE_TEST_MARKER();
 945:../Dave/Generated/FREERTOS/stream_buffer.c ****         }
 946:../Dave/Generated/FREERTOS/stream_buffer.c ****     }
 947:../Dave/Generated/FREERTOS/stream_buffer.c ****     else
 948:../Dave/Generated/FREERTOS/stream_buffer.c ****     {
 949:../Dave/Generated/FREERTOS/stream_buffer.c ****         mtCOVERAGE_TEST_MARKER();
 950:../Dave/Generated/FREERTOS/stream_buffer.c ****     }
 951:../Dave/Generated/FREERTOS/stream_buffer.c **** 
 952:../Dave/Generated/FREERTOS/stream_buffer.c ****     traceSTREAM_BUFFER_RECEIVE_FROM_ISR( xStreamBuffer, xReceivedLength );
 953:../Dave/Generated/FREERTOS/stream_buffer.c **** 
 954:../Dave/Generated/FREERTOS/stream_buffer.c ****     return xReceivedLength;
 1946              	 .loc 1 954 0
 1947 00d4 7B6B     	 ldr r3,[r7,#52]
 955:../Dave/Generated/FREERTOS/stream_buffer.c **** }
 1948              	 .loc 1 955 0
 1949 00d6 1846     	 mov r0,r3
 1950 00d8 3837     	 adds r7,r7,#56
 1951              	.LCFI65:
 1952              	 .cfi_def_cfa_offset 8
 1953 00da BD46     	 mov sp,r7
 1954              	.LCFI66:
 1955              	 .cfi_def_cfa_register 13
 1956              	 
 1957 00dc 80BD     	 pop {r7,pc}
 1958              	 .cfi_endproc
 1959              	.LFE149:
 1961 00de 00BF     	 .section .text.prvReadMessageFromBuffer,"ax",%progbits
 1962              	 .align 2
 1963              	 .thumb
 1964              	 .thumb_func
 1966              	prvReadMessageFromBuffer:
 1967              	.LFB150:
 956:../Dave/Generated/FREERTOS/stream_buffer.c **** /*-----------------------------------------------------------*/
 957:../Dave/Generated/FREERTOS/stream_buffer.c **** 
 958:../Dave/Generated/FREERTOS/stream_buffer.c **** static size_t prvReadMessageFromBuffer( StreamBuffer_t * pxStreamBuffer,
 959:../Dave/Generated/FREERTOS/stream_buffer.c ****                                         void * pvRxData,
 960:../Dave/Generated/FREERTOS/stream_buffer.c ****                                         size_t xBufferLengthBytes,
 961:../Dave/Generated/FREERTOS/stream_buffer.c ****                                         size_t xBytesAvailable,
 962:../Dave/Generated/FREERTOS/stream_buffer.c ****                                         size_t xBytesToStoreMessageLength )
 963:../Dave/Generated/FREERTOS/stream_buffer.c **** {
 1968              	 .loc 1 963 0
 1969              	 .cfi_startproc
 1970              	 
 1971              	 
 1972 0000 80B5     	 push {r7,lr}
 1973              	.LCFI67:
 1974              	 .cfi_def_cfa_offset 8
 1975              	 .cfi_offset 7,-8
 1976              	 .cfi_offset 14,-4
 1977 0002 88B0     	 sub sp,sp,#32
 1978              	.LCFI68:
 1979              	 .cfi_def_cfa_offset 40
 1980 0004 00AF     	 add r7,sp,#0
 1981              	.LCFI69:
 1982              	 .cfi_def_cfa_register 7
 1983 0006 F860     	 str r0,[r7,#12]
 1984 0008 B960     	 str r1,[r7,#8]
 1985 000a 7A60     	 str r2,[r7,#4]
 1986 000c 3B60     	 str r3,[r7]
 964:../Dave/Generated/FREERTOS/stream_buffer.c ****     size_t xOriginalTail, xReceivedLength, xNextMessageLength;
 965:../Dave/Generated/FREERTOS/stream_buffer.c ****     configMESSAGE_BUFFER_LENGTH_TYPE xTempNextMessageLength;
 966:../Dave/Generated/FREERTOS/stream_buffer.c **** 
 967:../Dave/Generated/FREERTOS/stream_buffer.c ****     if( xBytesToStoreMessageLength != ( size_t ) 0 )
 1987              	 .loc 1 967 0
 1988 000e BB6A     	 ldr r3,[r7,#40]
 1989 0010 002B     	 cmp r3,#0
 1990 0012 1AD0     	 beq .L132
 968:../Dave/Generated/FREERTOS/stream_buffer.c ****     {
 969:../Dave/Generated/FREERTOS/stream_buffer.c ****         /* A discrete message is being received.  First receive the length
 970:../Dave/Generated/FREERTOS/stream_buffer.c ****          * of the message.  A copy of the tail is stored so the buffer can be
 971:../Dave/Generated/FREERTOS/stream_buffer.c ****          * returned to its prior state if the length of the message is too
 972:../Dave/Generated/FREERTOS/stream_buffer.c ****          * large for the provided buffer. */
 973:../Dave/Generated/FREERTOS/stream_buffer.c ****         xOriginalTail = pxStreamBuffer->xTail;
 1991              	 .loc 1 973 0
 1992 0014 FB68     	 ldr r3,[r7,#12]
 1993 0016 1B68     	 ldr r3,[r3]
 1994 0018 BB61     	 str r3,[r7,#24]
 974:../Dave/Generated/FREERTOS/stream_buffer.c ****         ( void ) prvReadBytesFromBuffer( pxStreamBuffer, ( uint8_t * ) &xTempNextMessageLength, xBy
 1995              	 .loc 1 974 0
 1996 001a 07F11003 	 add r3,r7,#16
 1997 001e F868     	 ldr r0,[r7,#12]
 1998 0020 1946     	 mov r1,r3
 1999 0022 BA6A     	 ldr r2,[r7,#40]
 2000 0024 3B68     	 ldr r3,[r7]
 2001 0026 FFF7FEFF 	 bl prvReadBytesFromBuffer
 975:../Dave/Generated/FREERTOS/stream_buffer.c ****         xNextMessageLength = ( size_t ) xTempNextMessageLength;
 2002              	 .loc 1 975 0
 2003 002a 3B69     	 ldr r3,[r7,#16]
 2004 002c FB61     	 str r3,[r7,#28]
 976:../Dave/Generated/FREERTOS/stream_buffer.c **** 
 977:../Dave/Generated/FREERTOS/stream_buffer.c ****         /* Reduce the number of bytes available by the number of bytes just
 978:../Dave/Generated/FREERTOS/stream_buffer.c ****          * read out. */
 979:../Dave/Generated/FREERTOS/stream_buffer.c ****         xBytesAvailable -= xBytesToStoreMessageLength;
 2005              	 .loc 1 979 0
 2006 002e 3A68     	 ldr r2,[r7]
 2007 0030 BB6A     	 ldr r3,[r7,#40]
 2008 0032 D31A     	 subs r3,r2,r3
 2009 0034 3B60     	 str r3,[r7]
 980:../Dave/Generated/FREERTOS/stream_buffer.c **** 
 981:../Dave/Generated/FREERTOS/stream_buffer.c ****         /* Check there is enough space in the buffer provided by the
 982:../Dave/Generated/FREERTOS/stream_buffer.c ****          * user. */
 983:../Dave/Generated/FREERTOS/stream_buffer.c ****         if( xNextMessageLength > xBufferLengthBytes )
 2010              	 .loc 1 983 0
 2011 0036 FA69     	 ldr r2,[r7,#28]
 2012 0038 7B68     	 ldr r3,[r7,#4]
 2013 003a 9A42     	 cmp r2,r3
 2014 003c 07D9     	 bls .L133
 984:../Dave/Generated/FREERTOS/stream_buffer.c ****         {
 985:../Dave/Generated/FREERTOS/stream_buffer.c ****             /* The user has provided insufficient space to read the message
 986:../Dave/Generated/FREERTOS/stream_buffer.c ****              * so return the buffer to its previous state (so the length of
 987:../Dave/Generated/FREERTOS/stream_buffer.c ****              * the message is in the buffer again). */
 988:../Dave/Generated/FREERTOS/stream_buffer.c ****             pxStreamBuffer->xTail = xOriginalTail;
 2015              	 .loc 1 988 0
 2016 003e FB68     	 ldr r3,[r7,#12]
 2017 0040 BA69     	 ldr r2,[r7,#24]
 2018 0042 1A60     	 str r2,[r3]
 989:../Dave/Generated/FREERTOS/stream_buffer.c ****             xNextMessageLength = 0;
 2019              	 .loc 1 989 0
 2020 0044 0023     	 movs r3,#0
 2021 0046 FB61     	 str r3,[r7,#28]
 2022 0048 01E0     	 b .L133
 2023              	.L132:
 990:../Dave/Generated/FREERTOS/stream_buffer.c ****         }
 991:../Dave/Generated/FREERTOS/stream_buffer.c ****         else
 992:../Dave/Generated/FREERTOS/stream_buffer.c ****         {
 993:../Dave/Generated/FREERTOS/stream_buffer.c ****             mtCOVERAGE_TEST_MARKER();
 994:../Dave/Generated/FREERTOS/stream_buffer.c ****         }
 995:../Dave/Generated/FREERTOS/stream_buffer.c ****     }
 996:../Dave/Generated/FREERTOS/stream_buffer.c ****     else
 997:../Dave/Generated/FREERTOS/stream_buffer.c ****     {
 998:../Dave/Generated/FREERTOS/stream_buffer.c ****         /* A stream of bytes is being received (as opposed to a discrete
 999:../Dave/Generated/FREERTOS/stream_buffer.c ****          * message), so read as many bytes as possible. */
1000:../Dave/Generated/FREERTOS/stream_buffer.c ****         xNextMessageLength = xBufferLengthBytes;
 2024              	 .loc 1 1000 0
 2025 004a 7B68     	 ldr r3,[r7,#4]
 2026 004c FB61     	 str r3,[r7,#28]
 2027              	.L133:
1001:../Dave/Generated/FREERTOS/stream_buffer.c ****     }
1002:../Dave/Generated/FREERTOS/stream_buffer.c **** 
1003:../Dave/Generated/FREERTOS/stream_buffer.c ****     /* Read the actual data. */
1004:../Dave/Generated/FREERTOS/stream_buffer.c ****     xReceivedLength = prvReadBytesFromBuffer( pxStreamBuffer, ( uint8_t * ) pvRxData, xNextMessageL
 2028              	 .loc 1 1004 0
 2029 004e F868     	 ldr r0,[r7,#12]
 2030 0050 B968     	 ldr r1,[r7,#8]
 2031 0052 FA69     	 ldr r2,[r7,#28]
 2032 0054 3B68     	 ldr r3,[r7]
 2033 0056 FFF7FEFF 	 bl prvReadBytesFromBuffer
 2034 005a 7861     	 str r0,[r7,#20]
1005:../Dave/Generated/FREERTOS/stream_buffer.c **** 
1006:../Dave/Generated/FREERTOS/stream_buffer.c ****     return xReceivedLength;
 2035              	 .loc 1 1006 0
 2036 005c 7B69     	 ldr r3,[r7,#20]
1007:../Dave/Generated/FREERTOS/stream_buffer.c **** }
 2037              	 .loc 1 1007 0
 2038 005e 1846     	 mov r0,r3
 2039 0060 2037     	 adds r7,r7,#32
 2040              	.LCFI70:
 2041              	 .cfi_def_cfa_offset 8
 2042 0062 BD46     	 mov sp,r7
 2043              	.LCFI71:
 2044              	 .cfi_def_cfa_register 13
 2045              	 
 2046 0064 80BD     	 pop {r7,pc}
 2047              	 .cfi_endproc
 2048              	.LFE150:
 2050 0066 00BF     	 .section .text.xStreamBufferIsEmpty,"ax",%progbits
 2051              	 .align 2
 2052              	 .global xStreamBufferIsEmpty
 2053              	 .thumb
 2054              	 .thumb_func
 2056              	xStreamBufferIsEmpty:
 2057              	.LFB151:
1008:../Dave/Generated/FREERTOS/stream_buffer.c **** /*-----------------------------------------------------------*/
1009:../Dave/Generated/FREERTOS/stream_buffer.c **** 
1010:../Dave/Generated/FREERTOS/stream_buffer.c **** BaseType_t xStreamBufferIsEmpty( StreamBufferHandle_t xStreamBuffer )
1011:../Dave/Generated/FREERTOS/stream_buffer.c **** {
 2058              	 .loc 1 1011 0
 2059              	 .cfi_startproc
 2060              	 
 2061              	 
 2062              	 
 2063 0000 80B4     	 push {r7}
 2064              	.LCFI72:
 2065              	 .cfi_def_cfa_offset 4
 2066              	 .cfi_offset 7,-4
 2067 0002 87B0     	 sub sp,sp,#28
 2068              	.LCFI73:
 2069              	 .cfi_def_cfa_offset 32
 2070 0004 00AF     	 add r7,sp,#0
 2071              	.LCFI74:
 2072              	 .cfi_def_cfa_register 7
 2073 0006 7860     	 str r0,[r7,#4]
1012:../Dave/Generated/FREERTOS/stream_buffer.c ****     const StreamBuffer_t * const pxStreamBuffer = xStreamBuffer;
 2074              	 .loc 1 1012 0
 2075 0008 7B68     	 ldr r3,[r7,#4]
 2076 000a 3B61     	 str r3,[r7,#16]
1013:../Dave/Generated/FREERTOS/stream_buffer.c ****     BaseType_t xReturn;
1014:../Dave/Generated/FREERTOS/stream_buffer.c ****     size_t xTail;
1015:../Dave/Generated/FREERTOS/stream_buffer.c **** 
1016:../Dave/Generated/FREERTOS/stream_buffer.c ****     configASSERT( pxStreamBuffer );
 2077              	 .loc 1 1016 0
 2078 000c 3B69     	 ldr r3,[r7,#16]
 2079 000e 002B     	 cmp r3,#0
 2080 0010 09D1     	 bne .L136
 2081              	.LBB159:
 2082              	.LBB160:
 197:C:/Infineon/Tools/DAVE IDE/4.5.0.202105191637/eclipse/workspace/xmc4800-CE/Dave/Generated/FREERTOS/portable/GCC\portmacro.h ****         (
 2083              	 .loc 2 197 0 discriminator 1
 2084              	
 2085 0012 4FF0FC03 	 mov r3,#252
 2086 0016 83F31188 	 msr basepri,r3
 2087 001a BFF36F8F 	 isb 
 2088 001e BFF34F8F 	 dsb 
 2089              	
 2090              	
 2091              	 .thumb
 2092 0022 BB60     	 str r3,[r7,#8]
 2093              	.L137:
 2094              	.LBE160:
 2095              	.LBE159:
 2096              	 .loc 1 1016 0 discriminator 1
 2097 0024 FEE7     	 b .L137
 2098              	.L136:
1017:../Dave/Generated/FREERTOS/stream_buffer.c **** 
1018:../Dave/Generated/FREERTOS/stream_buffer.c ****     /* True if no bytes are available. */
1019:../Dave/Generated/FREERTOS/stream_buffer.c ****     xTail = pxStreamBuffer->xTail;
 2099              	 .loc 1 1019 0
 2100 0026 3B69     	 ldr r3,[r7,#16]
 2101 0028 1B68     	 ldr r3,[r3]
 2102 002a FB60     	 str r3,[r7,#12]
1020:../Dave/Generated/FREERTOS/stream_buffer.c **** 
1021:../Dave/Generated/FREERTOS/stream_buffer.c ****     if( pxStreamBuffer->xHead == xTail )
 2103              	 .loc 1 1021 0
 2104 002c 3B69     	 ldr r3,[r7,#16]
 2105 002e 5A68     	 ldr r2,[r3,#4]
 2106 0030 FB68     	 ldr r3,[r7,#12]
 2107 0032 9A42     	 cmp r2,r3
 2108 0034 02D1     	 bne .L138
1022:../Dave/Generated/FREERTOS/stream_buffer.c ****     {
1023:../Dave/Generated/FREERTOS/stream_buffer.c ****         xReturn = pdTRUE;
 2109              	 .loc 1 1023 0
 2110 0036 0123     	 movs r3,#1
 2111 0038 7B61     	 str r3,[r7,#20]
 2112 003a 01E0     	 b .L139
 2113              	.L138:
1024:../Dave/Generated/FREERTOS/stream_buffer.c ****     }
1025:../Dave/Generated/FREERTOS/stream_buffer.c ****     else
1026:../Dave/Generated/FREERTOS/stream_buffer.c ****     {
1027:../Dave/Generated/FREERTOS/stream_buffer.c ****         xReturn = pdFALSE;
 2114              	 .loc 1 1027 0
 2115 003c 0023     	 movs r3,#0
 2116 003e 7B61     	 str r3,[r7,#20]
 2117              	.L139:
1028:../Dave/Generated/FREERTOS/stream_buffer.c ****     }
1029:../Dave/Generated/FREERTOS/stream_buffer.c **** 
1030:../Dave/Generated/FREERTOS/stream_buffer.c ****     return xReturn;
 2118              	 .loc 1 1030 0
 2119 0040 7B69     	 ldr r3,[r7,#20]
1031:../Dave/Generated/FREERTOS/stream_buffer.c **** }
 2120              	 .loc 1 1031 0
 2121 0042 1846     	 mov r0,r3
 2122 0044 1C37     	 adds r7,r7,#28
 2123              	.LCFI75:
 2124              	 .cfi_def_cfa_offset 4
 2125 0046 BD46     	 mov sp,r7
 2126              	.LCFI76:
 2127              	 .cfi_def_cfa_register 13
 2128              	 
 2129 0048 5DF8047B 	 ldr r7,[sp],#4
 2130              	.LCFI77:
 2131              	 .cfi_restore 7
 2132              	 .cfi_def_cfa_offset 0
 2133 004c 7047     	 bx lr
 2134              	 .cfi_endproc
 2135              	.LFE151:
 2137 004e 00BF     	 .section .text.xStreamBufferIsFull,"ax",%progbits
 2138              	 .align 2
 2139              	 .global xStreamBufferIsFull
 2140              	 .thumb
 2141              	 .thumb_func
 2143              	xStreamBufferIsFull:
 2144              	.LFB152:
1032:../Dave/Generated/FREERTOS/stream_buffer.c **** /*-----------------------------------------------------------*/
1033:../Dave/Generated/FREERTOS/stream_buffer.c **** 
1034:../Dave/Generated/FREERTOS/stream_buffer.c **** BaseType_t xStreamBufferIsFull( StreamBufferHandle_t xStreamBuffer )
1035:../Dave/Generated/FREERTOS/stream_buffer.c **** {
 2145              	 .loc 1 1035 0
 2146              	 .cfi_startproc
 2147              	 
 2148              	 
 2149 0000 80B5     	 push {r7,lr}
 2150              	.LCFI78:
 2151              	 .cfi_def_cfa_offset 8
 2152              	 .cfi_offset 7,-8
 2153              	 .cfi_offset 14,-4
 2154 0002 86B0     	 sub sp,sp,#24
 2155              	.LCFI79:
 2156              	 .cfi_def_cfa_offset 32
 2157 0004 00AF     	 add r7,sp,#0
 2158              	.LCFI80:
 2159              	 .cfi_def_cfa_register 7
 2160 0006 7860     	 str r0,[r7,#4]
1036:../Dave/Generated/FREERTOS/stream_buffer.c ****     BaseType_t xReturn;
1037:../Dave/Generated/FREERTOS/stream_buffer.c ****     size_t xBytesToStoreMessageLength;
1038:../Dave/Generated/FREERTOS/stream_buffer.c ****     const StreamBuffer_t * const pxStreamBuffer = xStreamBuffer;
 2161              	 .loc 1 1038 0
 2162 0008 7B68     	 ldr r3,[r7,#4]
 2163 000a FB60     	 str r3,[r7,#12]
1039:../Dave/Generated/FREERTOS/stream_buffer.c **** 
1040:../Dave/Generated/FREERTOS/stream_buffer.c ****     configASSERT( pxStreamBuffer );
 2164              	 .loc 1 1040 0
 2165 000c FB68     	 ldr r3,[r7,#12]
 2166 000e 002B     	 cmp r3,#0
 2167 0010 09D1     	 bne .L142
 2168              	.LBB161:
 2169              	.LBB162:
 197:C:/Infineon/Tools/DAVE IDE/4.5.0.202105191637/eclipse/workspace/xmc4800-CE/Dave/Generated/FREERTOS/portable/GCC\portmacro.h ****         (
 2170              	 .loc 2 197 0 discriminator 1
 2171              	
 2172 0012 4FF0FC03 	 mov r3,#252
 2173 0016 83F31188 	 msr basepri,r3
 2174 001a BFF36F8F 	 isb 
 2175 001e BFF34F8F 	 dsb 
 2176              	
 2177              	
 2178              	 .thumb
 2179 0022 BB60     	 str r3,[r7,#8]
 2180              	.L143:
 2181              	.LBE162:
 2182              	.LBE161:
 2183              	 .loc 1 1040 0 discriminator 1
 2184 0024 FEE7     	 b .L143
 2185              	.L142:
1041:../Dave/Generated/FREERTOS/stream_buffer.c **** 
1042:../Dave/Generated/FREERTOS/stream_buffer.c ****     /* This generic version of the receive function is used by both message
1043:../Dave/Generated/FREERTOS/stream_buffer.c ****      * buffers, which store discrete messages, and stream buffers, which store a
1044:../Dave/Generated/FREERTOS/stream_buffer.c ****      * continuous stream of bytes.  Discrete messages include an additional
1045:../Dave/Generated/FREERTOS/stream_buffer.c ****      * sbBYTES_TO_STORE_MESSAGE_LENGTH bytes that hold the length of the message. */
1046:../Dave/Generated/FREERTOS/stream_buffer.c ****     if( ( pxStreamBuffer->ucFlags & sbFLAGS_IS_MESSAGE_BUFFER ) != ( uint8_t ) 0 )
 2186              	 .loc 1 1046 0
 2187 0026 FB68     	 ldr r3,[r7,#12]
 2188 0028 1B7F     	 ldrb r3,[r3,#28]
 2189 002a 03F00103 	 and r3,r3,#1
 2190 002e 002B     	 cmp r3,#0
 2191 0030 02D0     	 beq .L144
1047:../Dave/Generated/FREERTOS/stream_buffer.c ****     {
1048:../Dave/Generated/FREERTOS/stream_buffer.c ****         xBytesToStoreMessageLength = sbBYTES_TO_STORE_MESSAGE_LENGTH;
 2192              	 .loc 1 1048 0
 2193 0032 0423     	 movs r3,#4
 2194 0034 3B61     	 str r3,[r7,#16]
 2195 0036 01E0     	 b .L145
 2196              	.L144:
1049:../Dave/Generated/FREERTOS/stream_buffer.c ****     }
1050:../Dave/Generated/FREERTOS/stream_buffer.c ****     else
1051:../Dave/Generated/FREERTOS/stream_buffer.c ****     {
1052:../Dave/Generated/FREERTOS/stream_buffer.c ****         xBytesToStoreMessageLength = 0;
 2197              	 .loc 1 1052 0
 2198 0038 0023     	 movs r3,#0
 2199 003a 3B61     	 str r3,[r7,#16]
 2200              	.L145:
1053:../Dave/Generated/FREERTOS/stream_buffer.c ****     }
1054:../Dave/Generated/FREERTOS/stream_buffer.c **** 
1055:../Dave/Generated/FREERTOS/stream_buffer.c ****     /* True if the available space equals zero. */
1056:../Dave/Generated/FREERTOS/stream_buffer.c ****     if( xStreamBufferSpacesAvailable( xStreamBuffer ) <= xBytesToStoreMessageLength )
 2201              	 .loc 1 1056 0
 2202 003c 7868     	 ldr r0,[r7,#4]
 2203 003e FFF7FEFF 	 bl xStreamBufferSpacesAvailable
 2204 0042 0246     	 mov r2,r0
 2205 0044 3B69     	 ldr r3,[r7,#16]
 2206 0046 9A42     	 cmp r2,r3
 2207 0048 02D8     	 bhi .L146
1057:../Dave/Generated/FREERTOS/stream_buffer.c ****     {
1058:../Dave/Generated/FREERTOS/stream_buffer.c ****         xReturn = pdTRUE;
 2208              	 .loc 1 1058 0
 2209 004a 0123     	 movs r3,#1
 2210 004c 7B61     	 str r3,[r7,#20]
 2211 004e 01E0     	 b .L147
 2212              	.L146:
1059:../Dave/Generated/FREERTOS/stream_buffer.c ****     }
1060:../Dave/Generated/FREERTOS/stream_buffer.c ****     else
1061:../Dave/Generated/FREERTOS/stream_buffer.c ****     {
1062:../Dave/Generated/FREERTOS/stream_buffer.c ****         xReturn = pdFALSE;
 2213              	 .loc 1 1062 0
 2214 0050 0023     	 movs r3,#0
 2215 0052 7B61     	 str r3,[r7,#20]
 2216              	.L147:
1063:../Dave/Generated/FREERTOS/stream_buffer.c ****     }
1064:../Dave/Generated/FREERTOS/stream_buffer.c **** 
1065:../Dave/Generated/FREERTOS/stream_buffer.c ****     return xReturn;
 2217              	 .loc 1 1065 0
 2218 0054 7B69     	 ldr r3,[r7,#20]
1066:../Dave/Generated/FREERTOS/stream_buffer.c **** }
 2219              	 .loc 1 1066 0
 2220 0056 1846     	 mov r0,r3
 2221 0058 1837     	 adds r7,r7,#24
 2222              	.LCFI81:
 2223              	 .cfi_def_cfa_offset 8
 2224 005a BD46     	 mov sp,r7
 2225              	.LCFI82:
 2226              	 .cfi_def_cfa_register 13
 2227              	 
 2228 005c 80BD     	 pop {r7,pc}
 2229              	 .cfi_endproc
 2230              	.LFE152:
 2232 005e 00BF     	 .section .text.xStreamBufferSendCompletedFromISR,"ax",%progbits
 2233              	 .align 2
 2234              	 .global xStreamBufferSendCompletedFromISR
 2235              	 .thumb
 2236              	 .thumb_func
 2238              	xStreamBufferSendCompletedFromISR:
 2239              	.LFB153:
1067:../Dave/Generated/FREERTOS/stream_buffer.c **** /*-----------------------------------------------------------*/
1068:../Dave/Generated/FREERTOS/stream_buffer.c **** 
1069:../Dave/Generated/FREERTOS/stream_buffer.c **** BaseType_t xStreamBufferSendCompletedFromISR( StreamBufferHandle_t xStreamBuffer,
1070:../Dave/Generated/FREERTOS/stream_buffer.c ****                                               BaseType_t * pxHigherPriorityTaskWoken )
1071:../Dave/Generated/FREERTOS/stream_buffer.c **** {
 2240              	 .loc 1 1071 0
 2241              	 .cfi_startproc
 2242              	 
 2243              	 
 2244 0000 80B5     	 push {r7,lr}
 2245              	.LCFI83:
 2246              	 .cfi_def_cfa_offset 8
 2247              	 .cfi_offset 7,-8
 2248              	 .cfi_offset 14,-4
 2249 0002 8CB0     	 sub sp,sp,#48
 2250              	.LCFI84:
 2251              	 .cfi_def_cfa_offset 56
 2252 0004 02AF     	 add r7,sp,#8
 2253              	.LCFI85:
 2254              	 .cfi_def_cfa 7,48
 2255 0006 7860     	 str r0,[r7,#4]
 2256 0008 3960     	 str r1,[r7]
1072:../Dave/Generated/FREERTOS/stream_buffer.c ****     StreamBuffer_t * const pxStreamBuffer = xStreamBuffer;
 2257              	 .loc 1 1072 0
 2258 000a 7B68     	 ldr r3,[r7,#4]
 2259 000c 3B62     	 str r3,[r7,#32]
1073:../Dave/Generated/FREERTOS/stream_buffer.c ****     BaseType_t xReturn;
1074:../Dave/Generated/FREERTOS/stream_buffer.c ****     UBaseType_t uxSavedInterruptStatus;
1075:../Dave/Generated/FREERTOS/stream_buffer.c **** 
1076:../Dave/Generated/FREERTOS/stream_buffer.c ****     configASSERT( pxStreamBuffer );
 2260              	 .loc 1 1076 0
 2261 000e 3B6A     	 ldr r3,[r7,#32]
 2262 0010 002B     	 cmp r3,#0
 2263 0012 09D1     	 bne .L150
 2264              	.LBB163:
 2265              	.LBB164:
 197:C:/Infineon/Tools/DAVE IDE/4.5.0.202105191637/eclipse/workspace/xmc4800-CE/Dave/Generated/FREERTOS/portable/GCC\portmacro.h ****         (
 2266              	 .loc 2 197 0 discriminator 1
 2267              	
 2268 0014 4FF0FC03 	 mov r3,#252
 2269 0018 83F31188 	 msr basepri,r3
 2270 001c BFF36F8F 	 isb 
 2271 0020 BFF34F8F 	 dsb 
 2272              	
 2273              	
 2274              	 .thumb
 2275 0024 BB61     	 str r3,[r7,#24]
 2276              	.L151:
 2277              	.LBE164:
 2278              	.LBE163:
 2279              	 .loc 1 1076 0 discriminator 1
 2280 0026 FEE7     	 b .L151
 2281              	.L150:
 2282              	.LBB165:
 2283              	.LBB166:
 213:C:/Infineon/Tools/DAVE IDE/4.5.0.202105191637/eclipse/workspace/xmc4800-CE/Dave/Generated/FREERTOS/portable/GCC\portmacro.h ****         (
 2284              	 .loc 2 213 0
 2285              	
 2286 0028 EFF31182 	 mrs r2,basepri
 2287 002c 4FF0FC03 	 mov r3,#252
 2288 0030 83F31188 	 msr basepri,r3
 2289 0034 BFF36F8F 	 isb 
 2290 0038 BFF34F8F 	 dsb 
 2291              	
 2292              	
 2293              	 .thumb
 2294 003c 7A61     	 str r2,[r7,#20]
 2295 003e 3B61     	 str r3,[r7,#16]
 225:C:/Infineon/Tools/DAVE IDE/4.5.0.202105191637/eclipse/workspace/xmc4800-CE/Dave/Generated/FREERTOS/portable/GCC\portmacro.h ****     }
 2296              	 .loc 2 225 0
 2297 0040 7B69     	 ldr r3,[r7,#20]
 2298              	.LBE166:
 2299              	.LBE165:
1077:../Dave/Generated/FREERTOS/stream_buffer.c **** 
1078:../Dave/Generated/FREERTOS/stream_buffer.c ****     uxSavedInterruptStatus = ( UBaseType_t ) portSET_INTERRUPT_MASK_FROM_ISR();
 2300              	 .loc 1 1078 0
 2301 0042 FB61     	 str r3,[r7,#28]
1079:../Dave/Generated/FREERTOS/stream_buffer.c ****     {
1080:../Dave/Generated/FREERTOS/stream_buffer.c ****         if( ( pxStreamBuffer )->xTaskWaitingToReceive != NULL )
 2302              	 .loc 1 1080 0
 2303 0044 3B6A     	 ldr r3,[r7,#32]
 2304 0046 1B69     	 ldr r3,[r3,#16]
 2305 0048 002B     	 cmp r3,#0
 2306 004a 11D0     	 beq .L153
1081:../Dave/Generated/FREERTOS/stream_buffer.c ****         {
1082:../Dave/Generated/FREERTOS/stream_buffer.c ****             ( void ) xTaskNotifyFromISR( ( pxStreamBuffer )->xTaskWaitingToReceive,
 2307              	 .loc 1 1082 0
 2308 004c 3B6A     	 ldr r3,[r7,#32]
 2309 004e 1A69     	 ldr r2,[r3,#16]
 2310 0050 0023     	 movs r3,#0
 2311 0052 0093     	 str r3,[sp]
 2312 0054 3B68     	 ldr r3,[r7]
 2313 0056 0193     	 str r3,[sp,#4]
 2314 0058 1046     	 mov r0,r2
 2315 005a 0021     	 movs r1,#0
 2316 005c 0022     	 movs r2,#0
 2317 005e 0023     	 movs r3,#0
 2318 0060 FFF7FEFF 	 bl xTaskGenericNotifyFromISR
1083:../Dave/Generated/FREERTOS/stream_buffer.c ****                                          ( uint32_t ) 0,
1084:../Dave/Generated/FREERTOS/stream_buffer.c ****                                          eNoAction,
1085:../Dave/Generated/FREERTOS/stream_buffer.c ****                                          pxHigherPriorityTaskWoken );
1086:../Dave/Generated/FREERTOS/stream_buffer.c ****             ( pxStreamBuffer )->xTaskWaitingToReceive = NULL;
 2319              	 .loc 1 1086 0
 2320 0064 3B6A     	 ldr r3,[r7,#32]
 2321 0066 0022     	 movs r2,#0
 2322 0068 1A61     	 str r2,[r3,#16]
1087:../Dave/Generated/FREERTOS/stream_buffer.c ****             xReturn = pdTRUE;
 2323              	 .loc 1 1087 0
 2324 006a 0123     	 movs r3,#1
 2325 006c 7B62     	 str r3,[r7,#36]
 2326 006e 01E0     	 b .L154
 2327              	.L153:
1088:../Dave/Generated/FREERTOS/stream_buffer.c ****         }
1089:../Dave/Generated/FREERTOS/stream_buffer.c ****         else
1090:../Dave/Generated/FREERTOS/stream_buffer.c ****         {
1091:../Dave/Generated/FREERTOS/stream_buffer.c ****             xReturn = pdFALSE;
 2328              	 .loc 1 1091 0
 2329 0070 0023     	 movs r3,#0
 2330 0072 7B62     	 str r3,[r7,#36]
 2331              	.L154:
 2332 0074 FB69     	 ldr r3,[r7,#28]
 2333 0076 FB60     	 str r3,[r7,#12]
 2334              	.LBB167:
 2335              	.LBB168:
 2336              	 .loc 2 231 0
 2337 0078 FB68     	 ldr r3,[r7,#12]
 2338              	
 2339 007a 83F31188 	 msr basepri,r3
 2340              	
 2341              	 .thumb
 2342              	.LBE168:
 2343              	.LBE167:
1092:../Dave/Generated/FREERTOS/stream_buffer.c ****         }
1093:../Dave/Generated/FREERTOS/stream_buffer.c ****     }
1094:../Dave/Generated/FREERTOS/stream_buffer.c ****     portCLEAR_INTERRUPT_MASK_FROM_ISR( uxSavedInterruptStatus );
1095:../Dave/Generated/FREERTOS/stream_buffer.c **** 
1096:../Dave/Generated/FREERTOS/stream_buffer.c ****     return xReturn;
 2344              	 .loc 1 1096 0
 2345 007e 7B6A     	 ldr r3,[r7,#36]
1097:../Dave/Generated/FREERTOS/stream_buffer.c **** }
 2346              	 .loc 1 1097 0
 2347 0080 1846     	 mov r0,r3
 2348 0082 2837     	 adds r7,r7,#40
 2349              	.LCFI86:
 2350              	 .cfi_def_cfa_offset 8
 2351 0084 BD46     	 mov sp,r7
 2352              	.LCFI87:
 2353              	 .cfi_def_cfa_register 13
 2354              	 
 2355 0086 80BD     	 pop {r7,pc}
 2356              	 .cfi_endproc
 2357              	.LFE153:
 2359              	 .section .text.xStreamBufferReceiveCompletedFromISR,"ax",%progbits
 2360              	 .align 2
 2361              	 .global xStreamBufferReceiveCompletedFromISR
 2362              	 .thumb
 2363              	 .thumb_func
 2365              	xStreamBufferReceiveCompletedFromISR:
 2366              	.LFB154:
1098:../Dave/Generated/FREERTOS/stream_buffer.c **** /*-----------------------------------------------------------*/
1099:../Dave/Generated/FREERTOS/stream_buffer.c **** 
1100:../Dave/Generated/FREERTOS/stream_buffer.c **** BaseType_t xStreamBufferReceiveCompletedFromISR( StreamBufferHandle_t xStreamBuffer,
1101:../Dave/Generated/FREERTOS/stream_buffer.c ****                                                  BaseType_t * pxHigherPriorityTaskWoken )
1102:../Dave/Generated/FREERTOS/stream_buffer.c **** {
 2367              	 .loc 1 1102 0
 2368              	 .cfi_startproc
 2369              	 
 2370              	 
 2371 0000 80B5     	 push {r7,lr}
 2372              	.LCFI88:
 2373              	 .cfi_def_cfa_offset 8
 2374              	 .cfi_offset 7,-8
 2375              	 .cfi_offset 14,-4
 2376 0002 8CB0     	 sub sp,sp,#48
 2377              	.LCFI89:
 2378              	 .cfi_def_cfa_offset 56
 2379 0004 02AF     	 add r7,sp,#8
 2380              	.LCFI90:
 2381              	 .cfi_def_cfa 7,48
 2382 0006 7860     	 str r0,[r7,#4]
 2383 0008 3960     	 str r1,[r7]
1103:../Dave/Generated/FREERTOS/stream_buffer.c ****     StreamBuffer_t * const pxStreamBuffer = xStreamBuffer;
 2384              	 .loc 1 1103 0
 2385 000a 7B68     	 ldr r3,[r7,#4]
 2386 000c 3B62     	 str r3,[r7,#32]
1104:../Dave/Generated/FREERTOS/stream_buffer.c ****     BaseType_t xReturn;
1105:../Dave/Generated/FREERTOS/stream_buffer.c ****     UBaseType_t uxSavedInterruptStatus;
1106:../Dave/Generated/FREERTOS/stream_buffer.c **** 
1107:../Dave/Generated/FREERTOS/stream_buffer.c ****     configASSERT( pxStreamBuffer );
 2387              	 .loc 1 1107 0
 2388 000e 3B6A     	 ldr r3,[r7,#32]
 2389 0010 002B     	 cmp r3,#0
 2390 0012 09D1     	 bne .L157
 2391              	.LBB169:
 2392              	.LBB170:
 197:C:/Infineon/Tools/DAVE IDE/4.5.0.202105191637/eclipse/workspace/xmc4800-CE/Dave/Generated/FREERTOS/portable/GCC\portmacro.h ****         (
 2393              	 .loc 2 197 0 discriminator 1
 2394              	
 2395 0014 4FF0FC03 	 mov r3,#252
 2396 0018 83F31188 	 msr basepri,r3
 2397 001c BFF36F8F 	 isb 
 2398 0020 BFF34F8F 	 dsb 
 2399              	
 2400              	
 2401              	 .thumb
 2402 0024 BB61     	 str r3,[r7,#24]
 2403              	.L158:
 2404              	.LBE170:
 2405              	.LBE169:
 2406              	 .loc 1 1107 0 discriminator 1
 2407 0026 FEE7     	 b .L158
 2408              	.L157:
 2409              	.LBB171:
 2410              	.LBB172:
 213:C:/Infineon/Tools/DAVE IDE/4.5.0.202105191637/eclipse/workspace/xmc4800-CE/Dave/Generated/FREERTOS/portable/GCC\portmacro.h ****         (
 2411              	 .loc 2 213 0
 2412              	
 2413 0028 EFF31182 	 mrs r2,basepri
 2414 002c 4FF0FC03 	 mov r3,#252
 2415 0030 83F31188 	 msr basepri,r3
 2416 0034 BFF36F8F 	 isb 
 2417 0038 BFF34F8F 	 dsb 
 2418              	
 2419              	
 2420              	 .thumb
 2421 003c 7A61     	 str r2,[r7,#20]
 2422 003e 3B61     	 str r3,[r7,#16]
 225:C:/Infineon/Tools/DAVE IDE/4.5.0.202105191637/eclipse/workspace/xmc4800-CE/Dave/Generated/FREERTOS/portable/GCC\portmacro.h ****     }
 2423              	 .loc 2 225 0
 2424 0040 7B69     	 ldr r3,[r7,#20]
 2425              	.LBE172:
 2426              	.LBE171:
1108:../Dave/Generated/FREERTOS/stream_buffer.c **** 
1109:../Dave/Generated/FREERTOS/stream_buffer.c ****     uxSavedInterruptStatus = ( UBaseType_t ) portSET_INTERRUPT_MASK_FROM_ISR();
 2427              	 .loc 1 1109 0
 2428 0042 FB61     	 str r3,[r7,#28]
1110:../Dave/Generated/FREERTOS/stream_buffer.c ****     {
1111:../Dave/Generated/FREERTOS/stream_buffer.c ****         if( ( pxStreamBuffer )->xTaskWaitingToSend != NULL )
 2429              	 .loc 1 1111 0
 2430 0044 3B6A     	 ldr r3,[r7,#32]
 2431 0046 5B69     	 ldr r3,[r3,#20]
 2432 0048 002B     	 cmp r3,#0
 2433 004a 11D0     	 beq .L160
1112:../Dave/Generated/FREERTOS/stream_buffer.c ****         {
1113:../Dave/Generated/FREERTOS/stream_buffer.c ****             ( void ) xTaskNotifyFromISR( ( pxStreamBuffer )->xTaskWaitingToSend,
 2434              	 .loc 1 1113 0
 2435 004c 3B6A     	 ldr r3,[r7,#32]
 2436 004e 5A69     	 ldr r2,[r3,#20]
 2437 0050 0023     	 movs r3,#0
 2438 0052 0093     	 str r3,[sp]
 2439 0054 3B68     	 ldr r3,[r7]
 2440 0056 0193     	 str r3,[sp,#4]
 2441 0058 1046     	 mov r0,r2
 2442 005a 0021     	 movs r1,#0
 2443 005c 0022     	 movs r2,#0
 2444 005e 0023     	 movs r3,#0
 2445 0060 FFF7FEFF 	 bl xTaskGenericNotifyFromISR
1114:../Dave/Generated/FREERTOS/stream_buffer.c ****                                          ( uint32_t ) 0,
1115:../Dave/Generated/FREERTOS/stream_buffer.c ****                                          eNoAction,
1116:../Dave/Generated/FREERTOS/stream_buffer.c ****                                          pxHigherPriorityTaskWoken );
1117:../Dave/Generated/FREERTOS/stream_buffer.c ****             ( pxStreamBuffer )->xTaskWaitingToSend = NULL;
 2446              	 .loc 1 1117 0
 2447 0064 3B6A     	 ldr r3,[r7,#32]
 2448 0066 0022     	 movs r2,#0
 2449 0068 5A61     	 str r2,[r3,#20]
1118:../Dave/Generated/FREERTOS/stream_buffer.c ****             xReturn = pdTRUE;
 2450              	 .loc 1 1118 0
 2451 006a 0123     	 movs r3,#1
 2452 006c 7B62     	 str r3,[r7,#36]
 2453 006e 01E0     	 b .L161
 2454              	.L160:
1119:../Dave/Generated/FREERTOS/stream_buffer.c ****         }
1120:../Dave/Generated/FREERTOS/stream_buffer.c ****         else
1121:../Dave/Generated/FREERTOS/stream_buffer.c ****         {
1122:../Dave/Generated/FREERTOS/stream_buffer.c ****             xReturn = pdFALSE;
 2455              	 .loc 1 1122 0
 2456 0070 0023     	 movs r3,#0
 2457 0072 7B62     	 str r3,[r7,#36]
 2458              	.L161:
 2459 0074 FB69     	 ldr r3,[r7,#28]
 2460 0076 FB60     	 str r3,[r7,#12]
 2461              	.LBB173:
 2462              	.LBB174:
 2463              	 .loc 2 231 0
 2464 0078 FB68     	 ldr r3,[r7,#12]
 2465              	
 2466 007a 83F31188 	 msr basepri,r3
 2467              	
 2468              	 .thumb
 2469              	.LBE174:
 2470              	.LBE173:
1123:../Dave/Generated/FREERTOS/stream_buffer.c ****         }
1124:../Dave/Generated/FREERTOS/stream_buffer.c ****     }
1125:../Dave/Generated/FREERTOS/stream_buffer.c ****     portCLEAR_INTERRUPT_MASK_FROM_ISR( uxSavedInterruptStatus );
1126:../Dave/Generated/FREERTOS/stream_buffer.c **** 
1127:../Dave/Generated/FREERTOS/stream_buffer.c ****     return xReturn;
 2471              	 .loc 1 1127 0
 2472 007e 7B6A     	 ldr r3,[r7,#36]
1128:../Dave/Generated/FREERTOS/stream_buffer.c **** }
 2473              	 .loc 1 1128 0
 2474 0080 1846     	 mov r0,r3
 2475 0082 2837     	 adds r7,r7,#40
 2476              	.LCFI91:
 2477              	 .cfi_def_cfa_offset 8
 2478 0084 BD46     	 mov sp,r7
 2479              	.LCFI92:
 2480              	 .cfi_def_cfa_register 13
 2481              	 
 2482 0086 80BD     	 pop {r7,pc}
 2483              	 .cfi_endproc
 2484              	.LFE154:
 2486              	 .section .text.prvWriteBytesToBuffer,"ax",%progbits
 2487              	 .align 2
 2488              	 .thumb
 2489              	 .thumb_func
 2491              	prvWriteBytesToBuffer:
 2492              	.LFB155:
1129:../Dave/Generated/FREERTOS/stream_buffer.c **** /*-----------------------------------------------------------*/
1130:../Dave/Generated/FREERTOS/stream_buffer.c **** 
1131:../Dave/Generated/FREERTOS/stream_buffer.c **** static size_t prvWriteBytesToBuffer( StreamBuffer_t * const pxStreamBuffer,
1132:../Dave/Generated/FREERTOS/stream_buffer.c ****                                      const uint8_t * pucData,
1133:../Dave/Generated/FREERTOS/stream_buffer.c ****                                      size_t xCount )
1134:../Dave/Generated/FREERTOS/stream_buffer.c **** {
 2493              	 .loc 1 1134 0
 2494              	 .cfi_startproc
 2495              	 
 2496              	 
 2497 0000 80B5     	 push {r7,lr}
 2498              	.LCFI93:
 2499              	 .cfi_def_cfa_offset 8
 2500              	 .cfi_offset 7,-8
 2501              	 .cfi_offset 14,-4
 2502 0002 8AB0     	 sub sp,sp,#40
 2503              	.LCFI94:
 2504              	 .cfi_def_cfa_offset 48
 2505 0004 00AF     	 add r7,sp,#0
 2506              	.LCFI95:
 2507              	 .cfi_def_cfa_register 7
 2508 0006 F860     	 str r0,[r7,#12]
 2509 0008 B960     	 str r1,[r7,#8]
 2510 000a 7A60     	 str r2,[r7,#4]
1135:../Dave/Generated/FREERTOS/stream_buffer.c ****     size_t xNextHead, xFirstLength;
1136:../Dave/Generated/FREERTOS/stream_buffer.c **** 
1137:../Dave/Generated/FREERTOS/stream_buffer.c ****     configASSERT( xCount > ( size_t ) 0 );
 2511              	 .loc 1 1137 0
 2512 000c 7B68     	 ldr r3,[r7,#4]
 2513 000e 002B     	 cmp r3,#0
 2514 0010 09D1     	 bne .L164
 2515              	.LBB175:
 2516              	.LBB176:
 197:C:/Infineon/Tools/DAVE IDE/4.5.0.202105191637/eclipse/workspace/xmc4800-CE/Dave/Generated/FREERTOS/portable/GCC\portmacro.h ****         (
 2517              	 .loc 2 197 0 discriminator 1
 2518              	
 2519 0012 4FF0FC03 	 mov r3,#252
 2520 0016 83F31188 	 msr basepri,r3
 2521 001a BFF36F8F 	 isb 
 2522 001e BFF34F8F 	 dsb 
 2523              	
 2524              	
 2525              	 .thumb
 2526 0022 FB61     	 str r3,[r7,#28]
 2527              	.L165:
 2528              	.LBE176:
 2529              	.LBE175:
 2530              	 .loc 1 1137 0 discriminator 1
 2531 0024 FEE7     	 b .L165
 2532              	.L164:
1138:../Dave/Generated/FREERTOS/stream_buffer.c **** 
1139:../Dave/Generated/FREERTOS/stream_buffer.c ****     xNextHead = pxStreamBuffer->xHead;
 2533              	 .loc 1 1139 0
 2534 0026 FB68     	 ldr r3,[r7,#12]
 2535 0028 5B68     	 ldr r3,[r3,#4]
 2536 002a 7B62     	 str r3,[r7,#36]
1140:../Dave/Generated/FREERTOS/stream_buffer.c **** 
1141:../Dave/Generated/FREERTOS/stream_buffer.c ****     /* Calculate the number of bytes that can be added in the first write -
1142:../Dave/Generated/FREERTOS/stream_buffer.c ****      * which may be less than the total number of bytes that need to be added if
1143:../Dave/Generated/FREERTOS/stream_buffer.c ****      * the buffer will wrap back to the beginning. */
1144:../Dave/Generated/FREERTOS/stream_buffer.c ****     xFirstLength = configMIN( pxStreamBuffer->xLength - xNextHead, xCount );
 2537              	 .loc 1 1144 0
 2538 002c FB68     	 ldr r3,[r7,#12]
 2539 002e 9A68     	 ldr r2,[r3,#8]
 2540 0030 7B6A     	 ldr r3,[r7,#36]
 2541 0032 D21A     	 subs r2,r2,r3
 2542 0034 7B68     	 ldr r3,[r7,#4]
 2543 0036 9342     	 cmp r3,r2
 2544 0038 28BF     	 it cs
 2545 003a 1346     	 movcs r3,r2
 2546 003c 3B62     	 str r3,[r7,#32]
1145:../Dave/Generated/FREERTOS/stream_buffer.c **** 
1146:../Dave/Generated/FREERTOS/stream_buffer.c ****     /* Write as many bytes as can be written in the first write. */
1147:../Dave/Generated/FREERTOS/stream_buffer.c ****     configASSERT( ( xNextHead + xFirstLength ) <= pxStreamBuffer->xLength );
 2547              	 .loc 1 1147 0
 2548 003e 7A6A     	 ldr r2,[r7,#36]
 2549 0040 3B6A     	 ldr r3,[r7,#32]
 2550 0042 1A44     	 add r2,r2,r3
 2551 0044 FB68     	 ldr r3,[r7,#12]
 2552 0046 9B68     	 ldr r3,[r3,#8]
 2553 0048 9A42     	 cmp r2,r3
 2554 004a 09D9     	 bls .L166
 2555              	.LBB177:
 2556              	.LBB178:
 197:C:/Infineon/Tools/DAVE IDE/4.5.0.202105191637/eclipse/workspace/xmc4800-CE/Dave/Generated/FREERTOS/portable/GCC\portmacro.h ****         (
 2557              	 .loc 2 197 0 discriminator 1
 2558              	
 2559 004c 4FF0FC03 	 mov r3,#252
 2560 0050 83F31188 	 msr basepri,r3
 2561 0054 BFF36F8F 	 isb 
 2562 0058 BFF34F8F 	 dsb 
 2563              	
 2564              	
 2565              	 .thumb
 2566 005c BB61     	 str r3,[r7,#24]
 2567              	.L167:
 2568              	.LBE178:
 2569              	.LBE177:
 2570              	 .loc 1 1147 0 discriminator 2
 2571 005e FEE7     	 b .L167
 2572              	.L166:
1148:../Dave/Generated/FREERTOS/stream_buffer.c ****     ( void ) memcpy( ( void * ) ( &( pxStreamBuffer->pucBuffer[ xNextHead ] ) ), ( const void * ) p
 2573              	 .loc 1 1148 0
 2574 0060 FB68     	 ldr r3,[r7,#12]
 2575 0062 9A69     	 ldr r2,[r3,#24]
 2576 0064 7B6A     	 ldr r3,[r7,#36]
 2577 0066 1344     	 add r3,r3,r2
 2578 0068 1846     	 mov r0,r3
 2579 006a B968     	 ldr r1,[r7,#8]
 2580 006c 3A6A     	 ldr r2,[r7,#32]
 2581 006e FFF7FEFF 	 bl memcpy
1149:../Dave/Generated/FREERTOS/stream_buffer.c **** 
1150:../Dave/Generated/FREERTOS/stream_buffer.c ****     /* If the number of bytes written was less than the number that could be
1151:../Dave/Generated/FREERTOS/stream_buffer.c ****      * written in the first write... */
1152:../Dave/Generated/FREERTOS/stream_buffer.c ****     if( xCount > xFirstLength )
 2582              	 .loc 1 1152 0
 2583 0072 7A68     	 ldr r2,[r7,#4]
 2584 0074 3B6A     	 ldr r3,[r7,#32]
 2585 0076 9A42     	 cmp r2,r3
 2586 0078 1BD9     	 bls .L168
1153:../Dave/Generated/FREERTOS/stream_buffer.c ****     {
1154:../Dave/Generated/FREERTOS/stream_buffer.c ****         /* ...then write the remaining bytes to the start of the buffer. */
1155:../Dave/Generated/FREERTOS/stream_buffer.c ****         configASSERT( ( xCount - xFirstLength ) <= pxStreamBuffer->xLength );
 2587              	 .loc 1 1155 0
 2588 007a 7A68     	 ldr r2,[r7,#4]
 2589 007c 3B6A     	 ldr r3,[r7,#32]
 2590 007e D21A     	 subs r2,r2,r3
 2591 0080 FB68     	 ldr r3,[r7,#12]
 2592 0082 9B68     	 ldr r3,[r3,#8]
 2593 0084 9A42     	 cmp r2,r3
 2594 0086 09D9     	 bls .L169
 2595              	.LBB179:
 2596              	.LBB180:
 197:C:/Infineon/Tools/DAVE IDE/4.5.0.202105191637/eclipse/workspace/xmc4800-CE/Dave/Generated/FREERTOS/portable/GCC\portmacro.h ****         (
 2597              	 .loc 2 197 0 discriminator 1
 2598              	
 2599 0088 4FF0FC03 	 mov r3,#252
 2600 008c 83F31188 	 msr basepri,r3
 2601 0090 BFF36F8F 	 isb 
 2602 0094 BFF34F8F 	 dsb 
 2603              	
 2604              	
 2605              	 .thumb
 2606 0098 7B61     	 str r3,[r7,#20]
 2607              	.L170:
 2608              	.LBE180:
 2609              	.LBE179:
 2610              	 .loc 1 1155 0 discriminator 3
 2611 009a FEE7     	 b .L170
 2612              	.L169:
1156:../Dave/Generated/FREERTOS/stream_buffer.c ****         ( void ) memcpy( ( void * ) pxStreamBuffer->pucBuffer, ( const void * ) &( pucData[ xFirstL
 2613              	 .loc 1 1156 0
 2614 009c FB68     	 ldr r3,[r7,#12]
 2615 009e 9869     	 ldr r0,[r3,#24]
 2616 00a0 BA68     	 ldr r2,[r7,#8]
 2617 00a2 3B6A     	 ldr r3,[r7,#32]
 2618 00a4 D118     	 adds r1,r2,r3
 2619 00a6 7A68     	 ldr r2,[r7,#4]
 2620 00a8 3B6A     	 ldr r3,[r7,#32]
 2621 00aa D31A     	 subs r3,r2,r3
 2622 00ac 1A46     	 mov r2,r3
 2623 00ae FFF7FEFF 	 bl memcpy
 2624              	.L168:
1157:../Dave/Generated/FREERTOS/stream_buffer.c ****     }
1158:../Dave/Generated/FREERTOS/stream_buffer.c ****     else
1159:../Dave/Generated/FREERTOS/stream_buffer.c ****     {
1160:../Dave/Generated/FREERTOS/stream_buffer.c ****         mtCOVERAGE_TEST_MARKER();
1161:../Dave/Generated/FREERTOS/stream_buffer.c ****     }
1162:../Dave/Generated/FREERTOS/stream_buffer.c **** 
1163:../Dave/Generated/FREERTOS/stream_buffer.c ****     xNextHead += xCount;
 2625              	 .loc 1 1163 0
 2626 00b2 7A6A     	 ldr r2,[r7,#36]
 2627 00b4 7B68     	 ldr r3,[r7,#4]
 2628 00b6 1344     	 add r3,r3,r2
 2629 00b8 7B62     	 str r3,[r7,#36]
1164:../Dave/Generated/FREERTOS/stream_buffer.c **** 
1165:../Dave/Generated/FREERTOS/stream_buffer.c ****     if( xNextHead >= pxStreamBuffer->xLength )
 2630              	 .loc 1 1165 0
 2631 00ba FB68     	 ldr r3,[r7,#12]
 2632 00bc 9A68     	 ldr r2,[r3,#8]
 2633 00be 7B6A     	 ldr r3,[r7,#36]
 2634 00c0 9A42     	 cmp r2,r3
 2635 00c2 04D8     	 bhi .L171
1166:../Dave/Generated/FREERTOS/stream_buffer.c ****     {
1167:../Dave/Generated/FREERTOS/stream_buffer.c ****         xNextHead -= pxStreamBuffer->xLength;
 2636              	 .loc 1 1167 0
 2637 00c4 FB68     	 ldr r3,[r7,#12]
 2638 00c6 9B68     	 ldr r3,[r3,#8]
 2639 00c8 7A6A     	 ldr r2,[r7,#36]
 2640 00ca D31A     	 subs r3,r2,r3
 2641 00cc 7B62     	 str r3,[r7,#36]
 2642              	.L171:
1168:../Dave/Generated/FREERTOS/stream_buffer.c ****     }
1169:../Dave/Generated/FREERTOS/stream_buffer.c ****     else
1170:../Dave/Generated/FREERTOS/stream_buffer.c ****     {
1171:../Dave/Generated/FREERTOS/stream_buffer.c ****         mtCOVERAGE_TEST_MARKER();
1172:../Dave/Generated/FREERTOS/stream_buffer.c ****     }
1173:../Dave/Generated/FREERTOS/stream_buffer.c **** 
1174:../Dave/Generated/FREERTOS/stream_buffer.c ****     pxStreamBuffer->xHead = xNextHead;
 2643              	 .loc 1 1174 0
 2644 00ce FB68     	 ldr r3,[r7,#12]
 2645 00d0 7A6A     	 ldr r2,[r7,#36]
 2646 00d2 5A60     	 str r2,[r3,#4]
1175:../Dave/Generated/FREERTOS/stream_buffer.c **** 
1176:../Dave/Generated/FREERTOS/stream_buffer.c ****     return xCount;
 2647              	 .loc 1 1176 0
 2648 00d4 7B68     	 ldr r3,[r7,#4]
1177:../Dave/Generated/FREERTOS/stream_buffer.c **** }
 2649              	 .loc 1 1177 0
 2650 00d6 1846     	 mov r0,r3
 2651 00d8 2837     	 adds r7,r7,#40
 2652              	.LCFI96:
 2653              	 .cfi_def_cfa_offset 8
 2654 00da BD46     	 mov sp,r7
 2655              	.LCFI97:
 2656              	 .cfi_def_cfa_register 13
 2657              	 
 2658 00dc 80BD     	 pop {r7,pc}
 2659              	 .cfi_endproc
 2660              	.LFE155:
 2662 00de 00BF     	 .section .text.prvReadBytesFromBuffer,"ax",%progbits
 2663              	 .align 2
 2664              	 .thumb
 2665              	 .thumb_func
 2667              	prvReadBytesFromBuffer:
 2668              	.LFB156:
1178:../Dave/Generated/FREERTOS/stream_buffer.c **** /*-----------------------------------------------------------*/
1179:../Dave/Generated/FREERTOS/stream_buffer.c **** 
1180:../Dave/Generated/FREERTOS/stream_buffer.c **** static size_t prvReadBytesFromBuffer( StreamBuffer_t * pxStreamBuffer,
1181:../Dave/Generated/FREERTOS/stream_buffer.c ****                                       uint8_t * pucData,
1182:../Dave/Generated/FREERTOS/stream_buffer.c ****                                       size_t xMaxCount,
1183:../Dave/Generated/FREERTOS/stream_buffer.c ****                                       size_t xBytesAvailable )
1184:../Dave/Generated/FREERTOS/stream_buffer.c **** {
 2669              	 .loc 1 1184 0
 2670              	 .cfi_startproc
 2671              	 
 2672              	 
 2673 0000 80B5     	 push {r7,lr}
 2674              	.LCFI98:
 2675              	 .cfi_def_cfa_offset 8
 2676              	 .cfi_offset 7,-8
 2677              	 .cfi_offset 14,-4
 2678 0002 8AB0     	 sub sp,sp,#40
 2679              	.LCFI99:
 2680              	 .cfi_def_cfa_offset 48
 2681 0004 00AF     	 add r7,sp,#0
 2682              	.LCFI100:
 2683              	 .cfi_def_cfa_register 7
 2684 0006 F860     	 str r0,[r7,#12]
 2685 0008 B960     	 str r1,[r7,#8]
 2686 000a 7A60     	 str r2,[r7,#4]
 2687 000c 3B60     	 str r3,[r7]
1185:../Dave/Generated/FREERTOS/stream_buffer.c ****     size_t xCount, xFirstLength, xNextTail;
1186:../Dave/Generated/FREERTOS/stream_buffer.c **** 
1187:../Dave/Generated/FREERTOS/stream_buffer.c ****     /* Use the minimum of the wanted bytes and the available bytes. */
1188:../Dave/Generated/FREERTOS/stream_buffer.c ****     xCount = configMIN( xBytesAvailable, xMaxCount );
 2688              	 .loc 1 1188 0
 2689 000e 7A68     	 ldr r2,[r7,#4]
 2690 0010 3B68     	 ldr r3,[r7]
 2691 0012 9342     	 cmp r3,r2
 2692 0014 28BF     	 it cs
 2693 0016 1346     	 movcs r3,r2
 2694 0018 3B62     	 str r3,[r7,#32]
1189:../Dave/Generated/FREERTOS/stream_buffer.c **** 
1190:../Dave/Generated/FREERTOS/stream_buffer.c ****     if( xCount > ( size_t ) 0 )
 2695              	 .loc 1 1190 0
 2696 001a 3B6A     	 ldr r3,[r7,#32]
 2697 001c 002B     	 cmp r3,#0
 2698 001e 61D0     	 beq .L174
1191:../Dave/Generated/FREERTOS/stream_buffer.c ****     {
1192:../Dave/Generated/FREERTOS/stream_buffer.c ****         xNextTail = pxStreamBuffer->xTail;
 2699              	 .loc 1 1192 0
 2700 0020 FB68     	 ldr r3,[r7,#12]
 2701 0022 1B68     	 ldr r3,[r3]
 2702 0024 7B62     	 str r3,[r7,#36]
1193:../Dave/Generated/FREERTOS/stream_buffer.c **** 
1194:../Dave/Generated/FREERTOS/stream_buffer.c ****         /* Calculate the number of bytes that can be read - which may be
1195:../Dave/Generated/FREERTOS/stream_buffer.c ****          * less than the number wanted if the data wraps around to the start of
1196:../Dave/Generated/FREERTOS/stream_buffer.c ****          * the buffer. */
1197:../Dave/Generated/FREERTOS/stream_buffer.c ****         xFirstLength = configMIN( pxStreamBuffer->xLength - xNextTail, xCount );
 2703              	 .loc 1 1197 0
 2704 0026 FB68     	 ldr r3,[r7,#12]
 2705 0028 9A68     	 ldr r2,[r3,#8]
 2706 002a 7B6A     	 ldr r3,[r7,#36]
 2707 002c D21A     	 subs r2,r2,r3
 2708 002e 3B6A     	 ldr r3,[r7,#32]
 2709 0030 9342     	 cmp r3,r2
 2710 0032 28BF     	 it cs
 2711 0034 1346     	 movcs r3,r2
 2712 0036 FB61     	 str r3,[r7,#28]
1198:../Dave/Generated/FREERTOS/stream_buffer.c **** 
1199:../Dave/Generated/FREERTOS/stream_buffer.c ****         /* Obtain the number of bytes it is possible to obtain in the first
1200:../Dave/Generated/FREERTOS/stream_buffer.c ****          * read.  Asserts check bounds of read and write. */
1201:../Dave/Generated/FREERTOS/stream_buffer.c ****         configASSERT( xFirstLength <= xMaxCount );
 2713              	 .loc 1 1201 0
 2714 0038 FA69     	 ldr r2,[r7,#28]
 2715 003a 7B68     	 ldr r3,[r7,#4]
 2716 003c 9A42     	 cmp r2,r3
 2717 003e 09D9     	 bls .L175
 2718              	.LBB181:
 2719              	.LBB182:
 197:C:/Infineon/Tools/DAVE IDE/4.5.0.202105191637/eclipse/workspace/xmc4800-CE/Dave/Generated/FREERTOS/portable/GCC\portmacro.h ****         (
 2720              	 .loc 2 197 0 discriminator 1
 2721              	
 2722 0040 4FF0FC03 	 mov r3,#252
 2723 0044 83F31188 	 msr basepri,r3
 2724 0048 BFF36F8F 	 isb 
 2725 004c BFF34F8F 	 dsb 
 2726              	
 2727              	
 2728              	 .thumb
 2729 0050 BB61     	 str r3,[r7,#24]
 2730              	.L176:
 2731              	.LBE182:
 2732              	.LBE181:
 2733              	 .loc 1 1201 0 discriminator 1
 2734 0052 FEE7     	 b .L176
 2735              	.L175:
1202:../Dave/Generated/FREERTOS/stream_buffer.c ****         configASSERT( ( xNextTail + xFirstLength ) <= pxStreamBuffer->xLength );
 2736              	 .loc 1 1202 0
 2737 0054 7A6A     	 ldr r2,[r7,#36]
 2738 0056 FB69     	 ldr r3,[r7,#28]
 2739 0058 1A44     	 add r2,r2,r3
 2740 005a FB68     	 ldr r3,[r7,#12]
 2741 005c 9B68     	 ldr r3,[r3,#8]
 2742 005e 9A42     	 cmp r2,r3
 2743 0060 09D9     	 bls .L177
 2744              	.LBB183:
 2745              	.LBB184:
 197:C:/Infineon/Tools/DAVE IDE/4.5.0.202105191637/eclipse/workspace/xmc4800-CE/Dave/Generated/FREERTOS/portable/GCC\portmacro.h ****         (
 2746              	 .loc 2 197 0 discriminator 1
 2747              	
 2748 0062 4FF0FC03 	 mov r3,#252
 2749 0066 83F31188 	 msr basepri,r3
 2750 006a BFF36F8F 	 isb 
 2751 006e BFF34F8F 	 dsb 
 2752              	
 2753              	
 2754              	 .thumb
 2755 0072 7B61     	 str r3,[r7,#20]
 2756              	.L178:
 2757              	.LBE184:
 2758              	.LBE183:
 2759              	 .loc 1 1202 0 discriminator 2
 2760 0074 FEE7     	 b .L178
 2761              	.L177:
1203:../Dave/Generated/FREERTOS/stream_buffer.c ****         ( void ) memcpy( ( void * ) pucData, ( const void * ) &( pxStreamBuffer->pucBuffer[ xNextTa
 2762              	 .loc 1 1203 0
 2763 0076 FB68     	 ldr r3,[r7,#12]
 2764 0078 9A69     	 ldr r2,[r3,#24]
 2765 007a 7B6A     	 ldr r3,[r7,#36]
 2766 007c 1344     	 add r3,r3,r2
 2767 007e B868     	 ldr r0,[r7,#8]
 2768 0080 1946     	 mov r1,r3
 2769 0082 FA69     	 ldr r2,[r7,#28]
 2770 0084 FFF7FEFF 	 bl memcpy
1204:../Dave/Generated/FREERTOS/stream_buffer.c **** 
1205:../Dave/Generated/FREERTOS/stream_buffer.c ****         /* If the total number of wanted bytes is greater than the number
1206:../Dave/Generated/FREERTOS/stream_buffer.c ****          * that could be read in the first read... */
1207:../Dave/Generated/FREERTOS/stream_buffer.c ****         if( xCount > xFirstLength )
 2771              	 .loc 1 1207 0
 2772 0088 3A6A     	 ldr r2,[r7,#32]
 2773 008a FB69     	 ldr r3,[r7,#28]
 2774 008c 9A42     	 cmp r2,r3
 2775 008e 18D9     	 bls .L179
1208:../Dave/Generated/FREERTOS/stream_buffer.c ****         {
1209:../Dave/Generated/FREERTOS/stream_buffer.c ****             /*...then read the remaining bytes from the start of the buffer. */
1210:../Dave/Generated/FREERTOS/stream_buffer.c ****             configASSERT( xCount <= xMaxCount );
 2776              	 .loc 1 1210 0
 2777 0090 3A6A     	 ldr r2,[r7,#32]
 2778 0092 7B68     	 ldr r3,[r7,#4]
 2779 0094 9A42     	 cmp r2,r3
 2780 0096 09D9     	 bls .L180
 2781              	.LBB185:
 2782              	.LBB186:
 197:C:/Infineon/Tools/DAVE IDE/4.5.0.202105191637/eclipse/workspace/xmc4800-CE/Dave/Generated/FREERTOS/portable/GCC\portmacro.h ****         (
 2783              	 .loc 2 197 0 discriminator 1
 2784              	
 2785 0098 4FF0FC03 	 mov r3,#252
 2786 009c 83F31188 	 msr basepri,r3
 2787 00a0 BFF36F8F 	 isb 
 2788 00a4 BFF34F8F 	 dsb 
 2789              	
 2790              	
 2791              	 .thumb
 2792 00a8 3B61     	 str r3,[r7,#16]
 2793              	.L181:
 2794              	.LBE186:
 2795              	.LBE185:
 2796              	 .loc 1 1210 0 discriminator 3
 2797 00aa FEE7     	 b .L181
 2798              	.L180:
1211:../Dave/Generated/FREERTOS/stream_buffer.c ****             ( void ) memcpy( ( void * ) &( pucData[ xFirstLength ] ), ( void * ) ( pxStreamBuffer->
 2799              	 .loc 1 1211 0
 2800 00ac BA68     	 ldr r2,[r7,#8]
 2801 00ae FB69     	 ldr r3,[r7,#28]
 2802 00b0 D018     	 adds r0,r2,r3
 2803 00b2 FB68     	 ldr r3,[r7,#12]
 2804 00b4 9969     	 ldr r1,[r3,#24]
 2805 00b6 3A6A     	 ldr r2,[r7,#32]
 2806 00b8 FB69     	 ldr r3,[r7,#28]
 2807 00ba D31A     	 subs r3,r2,r3
 2808 00bc 1A46     	 mov r2,r3
 2809 00be FFF7FEFF 	 bl memcpy
 2810              	.L179:
1212:../Dave/Generated/FREERTOS/stream_buffer.c ****         }
1213:../Dave/Generated/FREERTOS/stream_buffer.c ****         else
1214:../Dave/Generated/FREERTOS/stream_buffer.c ****         {
1215:../Dave/Generated/FREERTOS/stream_buffer.c ****             mtCOVERAGE_TEST_MARKER();
1216:../Dave/Generated/FREERTOS/stream_buffer.c ****         }
1217:../Dave/Generated/FREERTOS/stream_buffer.c **** 
1218:../Dave/Generated/FREERTOS/stream_buffer.c ****         /* Move the tail pointer to effectively remove the data read from
1219:../Dave/Generated/FREERTOS/stream_buffer.c ****          * the buffer. */
1220:../Dave/Generated/FREERTOS/stream_buffer.c ****         xNextTail += xCount;
 2811              	 .loc 1 1220 0
 2812 00c2 7A6A     	 ldr r2,[r7,#36]
 2813 00c4 3B6A     	 ldr r3,[r7,#32]
 2814 00c6 1344     	 add r3,r3,r2
 2815 00c8 7B62     	 str r3,[r7,#36]
1221:../Dave/Generated/FREERTOS/stream_buffer.c **** 
1222:../Dave/Generated/FREERTOS/stream_buffer.c ****         if( xNextTail >= pxStreamBuffer->xLength )
 2816              	 .loc 1 1222 0
 2817 00ca FB68     	 ldr r3,[r7,#12]
 2818 00cc 9A68     	 ldr r2,[r3,#8]
 2819 00ce 7B6A     	 ldr r3,[r7,#36]
 2820 00d0 9A42     	 cmp r2,r3
 2821 00d2 04D8     	 bhi .L182
1223:../Dave/Generated/FREERTOS/stream_buffer.c ****         {
1224:../Dave/Generated/FREERTOS/stream_buffer.c ****             xNextTail -= pxStreamBuffer->xLength;
 2822              	 .loc 1 1224 0
 2823 00d4 FB68     	 ldr r3,[r7,#12]
